ASxxxx Linker V03.00/V05.40 + sdld,  page 1.
Hexadecimal  [32-Bits]

Area                                    Addr        Size        Decimal Bytes (Attributes)
--------------------------------        ----        ----        ------- ----- ------------
.  .ABS.                            00000000    00000000 =           0. bytes (ABS,CON)

      Value  Global                              Global Defined In Module
      -----  --------------------------------   ------------------------
     00000000  .__.ABS.                           
     00000000  _rRAMG                             
     00000000  l__BASE                         
     00000000  l__BSS                          
     00000000  l__CABS                         
     00000000  l__CODE_0                       
     00000000  l__CRASH_HEADER                 
     00000000  l__CRASH_SCRATCH                
     00000000  l__DABS                         
     00000000  l__HEADER                       
     00000000  l__HEADER_LCD                   
     00000000  l__HEADER_SIO                   
     00000000  l__HEADER_TIMER                 
     00000000  l__HEAP                         
     00000000  l__HEAP_END                     
     00000000  l__HRAM                         
     00000000  l__LIT                          
     00000000  s__CABS                         
     00000000  s__CRASH_HEADER                 
     00000000  s__CRASH_HEADER0                
     00000000  s__CRASH_HEADER1                
     00000000  s__CRASH_SCRATCH                
     00000000  s__CRASH_SCRATCH2               
     00000000  s__DABS                         
     00000000  s__HEADER                       
     00000000  s__HEADER0                      
     00000000  s__HEADER1                      
     00000000  s__HEADER10                     
     00000000  s__HEADER11                     
     00000000  s__HEADER2                      
     00000000  s__HEADER3                      
     00000000  s__HEADER4                      
     00000000  s__HEADER5                      
     00000000  s__HEADER6                      
     00000000  s__HEADER7                      
     00000000  s__HEADER8                      
     00000000  s__HEADER9                      
     00000000  s__HEADER_LCD                   
     00000000  s__HEADER_LCD0                  
     00000000  s__HEADER_SIO                   
     00000000  s__HEADER_SIO0                  
     00000000  s__HEADER_TIMER                 
     00000000  s__HEADER_TIMER0                
     00000000  s__HEADERa                      
     00000000  s__HEADERb                      
     00000000  s__HEADERc                      
     00000000  s__HEADERd                      
     00000000  s__HEADERe                      
     00000000  s__HEADERf                      
     00000000  s__HRAM                         
ASxxxx Linker V03.00/V05.40 + sdld,  page 2.
Hexadecimal  [32-Bits]

Area                                    Addr        Size        Decimal Bytes (Attributes)
--------------------------------        ----        ----        ------- ----- ------------
.  .ABS.                            00000000    00000000 =           0. bytes (ABS,CON)

      Value  Global                              Global Defined In Module
      -----  --------------------------------   ------------------------
     00000000  s__HRAM12                       
     00000001  ___bank_VM_SGB                     vm_sgb
     00000001  ___bank_bg_3_tilemap_attr          bg_3_tilemap_attr
     00000001  ___bank_bg_city2_tileset           bg_city2_tileset
     00000001  ___bank_sprite_new_piskel_1_png    sprite_new_piskel_1_png
     00000001  b_ui_draw_frame                    ui
     00000001  b_ui_draw_text_buffer_char         ui
     00000001  b_ui_init                          ui
     00000001  b_ui_load_tiles                    ui
     00000001  b_ui_run_menu                      ui
     00000001  b_ui_run_modal                     ui
     00000001  b_ui_set_start_tile                ui
     00000001  l__GSFINAL                      
     00000001  l__HEADER0                      
     00000001  l__HEADER5                      
     00000001  l__HEADERa                      
     00000001  l__HEADERb                      
     00000001  l__HEADERc                      
     00000001  l__HEADERe                      
     00000001  l__HEADERf                      
     00000002  ___bank_scene_44_sprites           scene_44_sprites
     00000002  ___bank_song_song_template_Data    song_song_template_Data
     00000002  ___bank_sprite_room2_tileset       sprite_room2_tileset
     00000002  l__HEADER10                     
     00000002  l__HEADER6                      
     00000002  l__HEADERd                      
     00000003  ___bank_bg_3_tilemap               bg_3_tilemap
     00000003  ___bank_script_5                   script_5
     00000003  ___bank_song_the_real_door_Data    song_the_real_door_Data
     00000003  l__HEADER9                      
     00000003  l__HEADER_LCD0                  
     00000003  l__HRAM12                       
     00000004  ___bank_bg_legend4_tilemap_attr    bg_legend4_tilemap_attr
     00000004  ___bank_scene_21_collisions        scene_21_collisions
     00000004  ___bank_song_susie_Data            song_susie_Data
     00000004  l__CRASH_HEADER1                
     00000004  l__HEADER_SIO0                  
     00000004  l__HEADER_TIMER0                
     00000005  ___bank_bg_4_tilemap_attr          bg_4_tilemap_attr
     00000005  ___bank_script_2                   script_2
     00000005  ___bank_song_beginning_Data        song_beginning_Data
     00000005  l__CRASH_HEADER0                
     00000005  l__HEADER1                      
     00000006  ___bank_bg_4_tilemap               bg_4_tilemap
     00000006  ___bank_song_savetransfer_Data     song_savetransfer_Data
     00000006  b_CGBZeroPalette                   palette
     00000006  b_palette_init                     palette
     00000006  l__HEADER8                      
     00000007  ___bank_scene_14_sprites           scene_14_sprites
     00000007  ___bank_scene_25_collisions        scene_25_collisions
     00000007  ___bank_song_school_Data           song_school_Data
ASxxxx Linker V03.00/V05.40 + sdld,  page 3.
Hexadecimal  [32-Bits]

Area                                    Addr        Size        Decimal Bytes (Attributes)
--------------------------------        ----        ----        ------- ----- ------------
.  .ABS.                            00000000    00000000 =           0. bytes (ABS,CON)

      Value  Global                              Global Defined In Module
      -----  --------------------------------   ------------------------
     00000007  b_gbprinter_detect                 gbprinter
     00000007  b_gbprinter_print_overlay          gbprinter
     00000007  l__HEADER2                      
     00000008  ___bank_scene_65_init              scene_65_init
     00000008  ___bank_script_9                   script_9
     00000008  ___bank_song_lancervsvr_Data       song_lancervsvr_Data
     00000008  ___mute_mask_sound_legacy_0        sound_legacy_0
     00000008  ___mute_mask_sound_legacy_0_0      sound_legacy_0_0
     00000008  ___mute_mask_sound_legacy_0_1      sound_legacy_0_1
     00000008  ___mute_mask_sound_legacy_0_2      sound_legacy_0_2
     00000008  l__HEADER3                      
     00000009  ___bank_song_anothergameover_Dat   song_anothergameover_Data
     00000009  ___bank_song_song_template_0_Dat   song_song_template_0_Data
     00000009  ___bank_sprite_susiehs_copie       sprite_susiehs_copie
     00000009  ___bank_tileset_gbs_mono           tileset_gbs_mono
     0000000A  ___bank_ACTOR                      actor
     0000000A  ___bank_VM_ACTOR                   vm_actor
     0000000A  ___bank_bg_black_copie_tileset     bg_black_copie_tileset
     0000000A  ___bank_scene_21_sprites           scene_21_sprites
     0000000A  ___bank_song_emptytown_Data        song_emptytown_Data
     0000000A  b_activate_actor                   actor
     0000000A  b_activate_actors_in_col           actor
     0000000A  b_activate_actors_in_row           actor
     0000000A  b_actor_at_tile                    actor
     0000000A  b_actor_get_frame_offset           actor
     0000000A  b_actor_in_front_of_player         actor
     0000000A  b_actor_overlapping_bb             actor
     0000000A  b_actor_overlapping_player         actor
     0000000A  b_actor_set_anim_idle              actor
     0000000A  b_actor_set_anim_moving            actor
     0000000A  b_actor_set_dir                    actor
     0000000A  b_actor_set_frame_offset           actor
     0000000A  b_actor_set_frames                 actor
     0000000A  b_actors_handle_player_collision   actor
     0000000A  b_actors_init                      actor
     0000000A  b_check_collision_in_direction     actor
     0000000A  b_deactivate_actor                 actor
     0000000A  b_player_init                      actor
     0000000A  b_projectile_launch                projectiles
     0000000A  b_projectiles_init                 projectiles
     0000000A  b_vm_actor_activate                vm_actor
     0000000A  b_vm_actor_begin_update            vm_actor
     0000000A  b_vm_actor_deactivate              vm_actor
     0000000A  b_vm_actor_emote                   vm_actor
     0000000A  b_vm_actor_get_angle               vm_actor
     0000000A  b_vm_actor_get_anim_frame          vm_actor
     0000000A  b_vm_actor_get_dir                 vm_actor
     0000000A  b_vm_actor_get_pos                 vm_actor
     0000000A  b_vm_actor_move_cancel             vm_actor
     0000000A  b_vm_actor_move_to                 vm_actor
     0000000A  b_vm_actor_replace_tile            vm_actor
ASxxxx Linker V03.00/V05.40 + sdld,  page 4.
Hexadecimal  [32-Bits]

Area                                    Addr        Size        Decimal Bytes (Attributes)
--------------------------------        ----        ----        ------- ----- ------------
.  .ABS.                            00000000    00000000 =           0. bytes (ABS,CON)

      Value  Global                              Global Defined In Module
      -----  --------------------------------   ------------------------
     0000000A  b_vm_actor_set_anim                vm_actor
     0000000A  b_vm_actor_set_anim_frame          vm_actor
     0000000A  b_vm_actor_set_anim_set            vm_actor
     0000000A  b_vm_actor_set_anim_tick           vm_actor
     0000000A  b_vm_actor_set_bounds              vm_actor
     0000000A  b_vm_actor_set_dir                 vm_actor
     0000000A  b_vm_actor_set_flags               vm_actor
     0000000A  b_vm_actor_set_move_speed          vm_actor
     0000000A  b_vm_actor_set_pos                 vm_actor
     0000000A  b_vm_actor_set_spritesheet         vm_actor
     0000000A  b_vm_actor_set_spritesheet_by_re   vm_actor
     0000000A  b_vm_actor_terminate_update        vm_actor
     0000000B  ___bank_actor_37_interact          actor_37_interact
     0000000B  ___bank_bg_8_tilemap_attr          bg_8_tilemap_attr
     0000000B  ___bank_bg_9_tilemap               bg_9_tilemap
     0000000B  ___bank_bg_9_tilemap_attr          bg_9_tilemap_attr
     0000000B  ___bank_scene_25_sprites           scene_25_sprites
     0000000B  ___bank_scene_61_collisions        scene_61_collisions
     0000000C  ___bank_VM_MAIN                    vm
     0000000C  ___bank_bg_8_tilemap               bg_8_tilemap
     0000000C  ___bank_bg_krislegend_tileset      bg_krislegend_tileset
     0000000C  ___bank_font_gbs_mono_0            font_gbs_mono_0
     0000000C  ___bank_scene_60_collisions        scene_60_collisions
     0000000C  b_remove_LCD_ISRs                  interrupts
     0000000C  b_script_detach_hthread            vm
     0000000C  b_script_execute                   vm
     0000000C  b_script_runner_init               vm
     0000000C  b_script_terminate                 vm
     0000000C  b_vm_call                          vm
     0000000C  b_vm_call_far                      vm
     0000000C  b_vm_get_indirect                  vm
     0000000C  b_vm_get_tlocal                    vm
     0000000C  b_vm_idle                          vm
     0000000C  b_vm_if                            vm
     0000000C  b_vm_if_const                      vm
     0000000C  b_vm_init_rng                      vm
     0000000C  b_vm_invoke                        vm
     0000000C  b_vm_join                          vm
     0000000C  b_vm_jump                          vm
     0000000C  b_vm_lock                          vm
     0000000C  b_vm_loop                          vm
     0000000C  b_vm_memcpy                        vm
     0000000C  b_vm_memset                        vm
     0000000C  b_vm_poll_loaded                   vm
     0000000C  b_vm_pop                           vm
     0000000C  b_vm_push                          vm
     0000000C  b_vm_push_reference                vm
     0000000C  b_vm_push_value                    vm
     0000000C  b_vm_push_value_ind                vm
     0000000C  b_vm_raise                         vm
     0000000C  b_vm_rand                          vm
ASxxxx Linker V03.00/V05.40 + sdld,  page 5.
Hexadecimal  [32-Bits]

Area                                    Addr        Size        Decimal Bytes (Attributes)
--------------------------------        ----        ----        ------- ----- ------------
.  .ABS.                            00000000    00000000 =           0. bytes (ABS,CON)

      Value  Global                              Global Defined In Module
      -----  --------------------------------   ------------------------
     0000000C  b_vm_reserve                       vm
     0000000C  b_vm_ret                           vm
     0000000C  b_vm_ret_far                       vm
     0000000C  b_vm_set                           vm
     0000000C  b_vm_set_const                     vm
     0000000C  b_vm_set_indirect                  vm
     0000000C  b_vm_terminate                     vm
     0000000C  b_vm_test_terminate                vm
     0000000C  b_vm_unlock                        vm
     0000000C  b_wait_frames                      vm
     0000000D  ___bank_bg_10                      bg_10
     0000000D  ___bank_bg_quelesttonnom_tileset   bg_quelesttonnom_tileset
     0000000D  ___bank_font_gbs_mono              font_gbs_mono
     0000000D  ___bank_font_gbs_mono_copie        font_gbs_mono_copie
     0000000D  ___bank_font_gbs_mono_copie_0      font_gbs_mono_copie_0
     0000000D  ___bank_font_gbs_portrait          font_gbs_portrait
     0000000E  ___bank_bg_kris_s_tileset          bg_kris_s_tileset
     0000000E  ___bank_bg_krislegend_tilemap_at   bg_krislegend_tilemap_attr
     0000000E  ___bank_bg_room_tileset            bg_room_tileset
     0000000E  ___bank_bg_secoundfountain_tiles   bg_secoundfountain_tileset
     0000000E  ___bank_font_gbs_portrait_copie    font_gbs_portrait_copie
     0000000E  ___bank_song_anotherhim_Data       song_anotherhim_Data
     0000000F  ___bank_bg_5_tileset               bg_5_tileset
     0000000F  ___bank_bg_exterior_tileset        bg_exterior_tileset
     0000000F  ___bank_bg_kris_ss_tileset         bg_kris_ss_tileset
     0000000F  ___bank_bg_schoolcorridor1_tiles   bg_schoolcorridor1_tileset
     0000000F  ___bank_bg_the_castle_copie_tile   bg_the_castle_copie_tileset
     0000000F  ___bank_bg_thetle_tileset          bg_thetle_tileset
     0000000F  ___bank_scene_32_sprites           scene_32_sprites
     0000000F  ___bank_trigger_13_interact        trigger_13_interact
     00000010  ___bank_bg_4_tileset               bg_4_tileset
     00000010  ___bank_bg_9_1__tilemap_attr       bg_9_1__tilemap_attr
     00000010  ___bank_bg_fountaincastle_tilese   bg_fountaincastle_tileset
     00000010  ___bank_bg_ralseilegend_tileset    bg_ralseilegend_tileset
     00000010  ___bank_bg_schoolint_tileset       bg_schoolint_tileset
     00000010  ___bank_scene_14_init              scene_14_init
     00000010  ___bank_scene_34_sprites           scene_34_sprites
     00000011  ___bank_bg_9_1__tilemap            bg_9_1__tilemap
     00000011  ___bank_bg_gameover_tileset        bg_gameover_tileset
     00000011  ___bank_bg_schoolext_tileset       bg_schoolext_tileset
     00000011  ___bank_scene_62_collisions        scene_62_collisions
     00000011  ___bank_song_song_templateffrzre   song_song_templateffrzref_Da
     00000011  ___bank_trigger_26_interact        trigger_26_interact
     00000011  b_do_load_palette                  data_manager
     00000011  b_load_background                  data_manager
     00000011  b_load_bkg_tileset                 data_manager
     00000011  b_load_bounds                      data_manager
     00000011  b_load_emote                       data_manager
     00000011  b_load_init                        data_manager
     00000011  b_load_player                      data_manager
     00000011  b_load_scene                       data_manager
ASxxxx Linker V03.00/V05.40 + sdld,  page 6.
Hexadecimal  [32-Bits]

Area                                    Addr        Size        Decimal Bytes (Attributes)
--------------------------------        ----        ----        ------- ----- ------------
.  .ABS.                            00000000    00000000 =           0. bytes (ABS,CON)

      Value  Global                              Global Defined In Module
      -----  --------------------------------   ------------------------
     00000011  b_load_sprite                      data_manager
     00000012  ___bank_VM_UI                      vm_ui
     00000012  ___bank_actor_62_interact          actor_62_interact
     00000012  ___bank_bg_legend2_tileset         bg_legend2_tileset
     00000012  ___bank_bg_legend5d_tileset        bg_legend5d_tileset
     00000012  ___bank_bg_susielegend_tileset     bg_susielegend_tileset
     00000012  ___bank_bg_toilet2_tileset         bg_toilet2_tileset
     00000012  ___bank_song_fallinggg_Data        song_fallinggg_Data
     00000012  ___bank_sprite_lacer_shadow_tile   sprite_lacer_shadow_tileset
     00000012  b_vm_choice                        vm_ui
     00000012  b_vm_display_text                  vm_ui
     00000012  b_vm_overlay_clear                 vm_ui
     00000012  b_vm_overlay_move_to               vm_ui
     00000012  b_vm_overlay_scroll                vm_ui
     00000012  b_vm_overlay_set_map               vm_ui
     00000012  b_vm_overlay_set_scroll            vm_ui
     00000012  b_vm_overlay_set_submap            vm_ui
     00000012  b_vm_overlay_set_submap_ex         vm_ui
     00000012  b_vm_overlay_setpos                vm_ui
     00000012  b_vm_overlay_show                  vm_ui
     00000012  b_vm_overlay_wait                  vm_ui
     00000012  b_vm_set_font                      vm_ui
     00000012  b_vm_set_text_sound                vm_ui
     00000012  b_vm_switch_text_layer             vm_ui
     00000013  ___bank_bg_city1_tileset           bg_city1_tileset
     00000013  ___bank_bg_dogchecksavedata_tile   bg_dogchecksavedata_tileset
     00000013  ___bank_bg_legend1d_tileset        bg_legend1d_tileset
     00000013  ___bank_bg_legendsealfountain_ti   bg_legendsealfountain_tilese
     00000013  ___bank_bg_quelesttonnom_copie_t   bg_quelesttonnom_copie_tiles
     00000013  ___bank_bg_schoolcorridor1_tilem   bg_schoolcorridor1_tilemap
     00000013  ___bank_bg_schoolcorridor1_tilem   bg_schoolcorridor1_tilemap_a
     00000013  ___bank_palette_0                  palette_0
     00000013  ___bank_scene_14_collisions        scene_14_collisions
     00000013  ___bank_scene_35_sprites           scene_35_sprites
     00000014  ___bank_VM_GAMEBOY                 vm_gameboy
     00000014  ___bank_bg_3_tileset               bg_3_tileset
     00000014  ___bank_bg_8_tileset               bg_8_tileset
     00000014  ___bank_bg_dogchecksavedata_copi   bg_dogchecksavedata_copie_ti
     00000014  ___bank_bg_legend6d_tileset        bg_legend6d_tileset
     00000014  ___bank_bg_toilet_tileset          bg_toilet_tileset
     00000014  ___bank_bootstrap_script           
     00000014  ___bank_scene_29_init              scene_29_init
     00000014  b_scroll_init                      scroll
     00000014  b_scroll_repaint                   scroll
     00000014  b_scroll_reset                     scroll
     00000014  b_scroll_update                    scroll
     00000014  b_topdown_init                     topdown
     00000014  b_topdown_update                   topdown
     00000014  b_trigger_activate_at              trigger
     00000014  b_trigger_activate_at_intersecti   trigger
     00000014  b_trigger_at_intersection          trigger
ASxxxx Linker V03.00/V05.40 + sdld,  page 7.
Hexadecimal  [32-Bits]

Area                                    Addr        Size        Decimal Bytes (Attributes)
--------------------------------        ----        ----        ------- ----- ------------
.  .ABS.                            00000000    00000000 =           0. bytes (ABS,CON)

      Value  Global                              Global Defined In Module
      -----  --------------------------------   ------------------------
     00000014  b_trigger_at_tile                  trigger
     00000014  b_trigger_interact                 trigger
     00000014  b_trigger_reset                    trigger
     00000014  b_vm_context_prepare               vm_gameboy
     00000014  b_vm_fade                          vm_gameboy
     00000014  b_vm_get_tile_xy                   vm_gameboy
     00000014  b_vm_input_attach                  vm_gameboy
     00000014  b_vm_input_detach                  vm_gameboy
     00000014  b_vm_input_get                     vm_gameboy
     00000014  b_vm_input_wait                    vm_gameboy
     00000014  b_vm_load_tileset                  vm_gameboy
     00000014  b_vm_poll                          vm_gameboy
     00000014  b_vm_replace_tile                  vm_gameboy
     00000014  b_vm_replace_tile_xy               vm_gameboy
     00000014  b_vm_rumble                        vm_gameboy
     00000014  b_vm_set_sprite_mode               vm_gameboy
     00000014  b_vm_set_sprites_visible           vm_gameboy
     00000014  b_vm_timer_prepare                 vm_gameboy
     00000014  b_vm_timer_reset                   vm_gameboy
     00000014  b_vm_timer_set                     vm_gameboy
     00000014  b_vm_timer_stop                    vm_gameboy
     00000015  ___bank_bg_10_tilemap              bg_10_tilemap
     00000015  ___bank_bg_10_tilemap_attr         bg_10_tilemap_attr
     00000015  ___bank_bg_2                       bg_2
     00000015  ___bank_bg_6_1__tilemap            bg_6_1__tilemap
     00000015  ___bank_bg_6_1__tilemap_attr       bg_6_1__tilemap_attr
     00000015  ___bank_bg_6_tilemap               bg_6_tilemap
     00000015  ___bank_bg_6_tilemap_attr          bg_6_tilemap_attr
     00000015  ___bank_bg_chamberkriso2_tileset   bg_chamberkriso2_tileset
     00000015  ___bank_bg_schoolint_tilemap_att   bg_schoolint_tilemap_attr
     00000015  ___bank_bg_worldddd_tileset        bg_worldddd_tileset
     00000015  ___bank_scene_28_init              scene_28_init
     00000015  ___bank_scene_63_collisions        scene_63_collisions
     00000016  ___bank_bg_7_tilemap               bg_7_tilemap
     00000016  ___bank_bg_7_tilemap_attr          bg_7_tilemap_attr
     00000016  ___bank_bg_7_tileset               bg_7_tileset
     00000016  ___bank_bg_legend3_tileset         bg_legend3_tileset
     00000016  ___bank_bg_legend4_tileset         bg_legend4_tileset
     00000016  ___bank_bg_worldddddark_tileset    bg_worldddddark_tileset
     00000016  ___bank_scene_24_init              scene_24_init
     00000016  ___bank_scene_29_actors            scene_29_actors
     00000016  ___bank_scene_42_init              scene_42_init
     00000016  ___bank_scene_57_collisions        scene_57_collisions
     00000016  ___bank_scene_58_collisions        scene_58_collisions
     00000016  ___bank_scene_59_collisions        scene_59_collisions
     00000017  ___bank_actor_67_interact          actor_67_interact
     00000017  ___bank_bg_9_tileset               bg_9_tileset
     00000017  ___bank_bg_blackdoor_tilemap       bg_blackdoor_tilemap
     00000017  ___bank_bg_blackdoor_tilemap_att   bg_blackdoor_tilemap_attr
     00000017  ___bank_bg_dogchecksavedata_copi   bg_dogchecksavedata_copie_0_
     00000017  ___bank_bg_legend7f_tileset        bg_legend7f_tileset
ASxxxx Linker V03.00/V05.40 + sdld,  page 8.
Hexadecimal  [32-Bits]

Area                                    Addr        Size        Decimal Bytes (Attributes)
--------------------------------        ----        ----        ------- ----- ------------
.  .ABS.                            00000000    00000000 =           0. bytes (ABS,CON)

      Value  Global                              Global Defined In Module
      -----  --------------------------------   ------------------------
     00000017  ___bank_bg_worldddd_tilemap        bg_worldddd_tilemap
     00000017  ___bank_bg_worldddd_tilemap_attr   bg_worldddd_tilemap_attr
     00000017  ___bank_bg_worldddddark_tilemap    bg_worldddddark_tilemap
     00000017  ___bank_bg_worldddddark_tilemap_   bg_worldddddark_tilemap_attr
     00000017  ___bank_scene_36_sprites           scene_36_sprites
     00000017  ___bank_scene_46_collisions        scene_46_collisions
     00000017  ___bank_scene_47_collisions        scene_47_collisions
     00000017  ___bank_scene_51_collisions        scene_51_collisions
     00000018  ___bank_bg_2_tilemap               bg_2_tilemap
     00000018  ___bank_bg_2_tilemap_attr          bg_2_tilemap_attr
     00000018  ___bank_bg_2_tileset               bg_2_tileset
     00000018  ___bank_bg_castle_town_map2_tile   bg_castle_town_map2_tilemap
     00000018  ___bank_bg_castle_town_map2_tile   bg_castle_town_map2_tilemap_
     00000018  ___bank_bg_legendsealfountain_ti   bg_legendsealfountain_tilema
     00000018  ___bank_bg_untitled_tilemap        bg_untitled_tilemap
     00000018  ___bank_bg_untitled_tilemap_attr   bg_untitled_tilemap_attr
     00000018  ___bank_scene_32_collisions        scene_32_collisions
     00000018  ___bank_scene_54_collisions        scene_54_collisions
     00000018  ___bank_scene_55_collisions        scene_55_collisions
     00000018  ___bank_scene_64_collisions        scene_64_collisions
     00000018  ___bank_script_engine_init         
     00000018  ___bank_sprite_lowercases_tilese   sprite_lowercases_tileset
     00000018  ___bank_sprite_room2_tilemap       sprite_room2_tilemap
     00000018  ___bank_sprite_room2_tilemap_att   sprite_room2_tilemap_attr
     00000018  b_core_reset                       core
     00000018  b_core_run                         core
     00000019  ___bank_VM_CAMERA                  vm_camera
     00000019  ___bank_VM_SIO                     vm_sio
     00000019  ___bank_actor_31_interact          actor_31_interact
     00000019  ___bank_bg_10_tileset              bg_10_tileset
     00000019  ___bank_bg_b0027_copie_tilemap     bg_b0027_copie_tilemap
     00000019  ___bank_bg_b0027_copie_tilemap_a   bg_b0027_copie_tilemap_attr
     00000019  ___bank_bg_b0027_copie_tileset     bg_b0027_copie_tileset
     00000019  ___bank_bg_gameover_tilemap        bg_gameover_tilemap
     00000019  ___bank_bg_gameover_tilemap_attr   bg_gameover_tilemap_attr
     00000019  ___bank_bg_legend2_tilemap         bg_legend2_tilemap
     00000019  ___bank_bg_legend2_tilemap_attr    bg_legend2_tilemap_attr
     00000019  ___bank_bg_name_input_background   bg_name_input_background_til
     00000019  ___bank_bg_title_tileset           bg_title_tileset
     00000019  ___bank_bg_untitled_tileset        bg_untitled_tileset
     00000019  ___bank_scene_2_sprites            scene_2_sprites
     00000019  ___bank_scene_4_collisions         scene_4_collisions
     00000019  ___bank_script_7                   script_7
     00000019  b___HandleCrash_banked             
     00000019  b_atan2                            math_atan2
     00000019  b_camera_shake_frames              vm_camera
     00000019  b_data_clear                       load_save
     00000019  b_data_init                        load_save
     00000019  b_data_load                        load_save
     00000019  b_data_peek                        load_save
     00000019  b_data_save                        load_save
ASxxxx Linker V03.00/V05.40 + sdld,  page 9.
Hexadecimal  [32-Bits]

Area                                    Addr        Size        Decimal Bytes (Attributes)
--------------------------------        ----        ----        ------- ----- ------------
.  .ABS.                            00000000    00000000 =           0. bytes (ABS,CON)

      Value  Global                              Global Defined In Module
      -----  --------------------------------   ------------------------
     00000019  b_pointnclick_init                 pointnclick
     00000019  b_pointnclick_update               pointnclick
     00000019  b_vm_camera_move_to                vm_camera
     00000019  b_vm_camera_set_pos                vm_camera
     00000019  b_vm_sio_exchange                  vm_sio
     00000019  b_vm_sio_set_mode                  vm_sio
     00000019  l__INITIALIZED                  
     00000019  l__INITIALIZER                  
     0000001A  ___bank_actor_3_interact           actor_3_interact
     0000001A  ___bank_actor_78_interact          actor_78_interact
     0000001A  ___bank_bg_5_tilemap               bg_5_tilemap
     0000001A  ___bank_bg_5_tilemap_attr          bg_5_tilemap_attr
     0000001A  ___bank_bg_castle_town_tileset     bg_castle_town_tileset
     0000001A  ___bank_bg_city2_tilemap           bg_city2_tilemap
     0000001A  ___bank_bg_city2_tilemap_attr      bg_city2_tilemap_attr
     0000001A  ___bank_bg_kris_s_tilemap          bg_kris_s_tilemap
     0000001A  ___bank_bg_kris_s_tilemap_attr     bg_kris_s_tilemap_attr
     0000001A  ___bank_bg_kris_ss_tilemap         bg_kris_ss_tilemap
     0000001A  ___bank_bg_kris_ss_tilemap_attr    bg_kris_ss_tilemap_attr
     0000001A  ___bank_bg_schoolint_tilemap       bg_schoolint_tilemap
     0000001A  ___bank_scene_13_init              scene_13_init
     0000001A  ___bank_scene_28_collisions        scene_28_collisions
     0000001A  ___bank_scene_29_collisions        scene_29_collisions
     0000001A  ___bank_scene_30_collisions        scene_30_collisions
     0000001A  ___bank_scene_33_collisions        scene_33_collisions
     0000001A  ___bank_scene_34_collisions        scene_34_collisions
     0000001A  ___bank_scene_40_collisions        scene_40_collisions
     0000001A  ___bank_scene_45_collisions        scene_45_collisions
     0000001A  ___bank_scene_51_init              scene_51_init
     0000001A  ___bank_scene_56_collisions        scene_56_collisions
     0000001A  ___bank_scene_56_init              scene_56_init
     0000001A  ___bank_sprite_susiehs_copie_til   sprite_susiehs_copie_tileset
     0000001A  b_fade_applypalettechange          fade_manager
     0000001A  b_fade_in                          fade_manager
     0000001A  b_fade_in_modal                    fade_manager
     0000001A  b_fade_init                        fade_manager
     0000001A  b_fade_out                         fade_manager
     0000001A  b_fade_out_modal                   fade_manager
     0000001A  b_fade_setspeed                    fade_manager
     0000001A  b_fade_update                      fade_manager
     0000001B  ___bank_actor_55_interact          actor_55_interact
     0000001B  ___bank_actor_59_interact          actor_59_interact
     0000001B  ___bank_actor_79_interact          actor_79_interact
     0000001B  ___bank_bg_6_tileset               bg_6_tileset
     0000001B  ___bank_bg_castle_town_tilemap     bg_castle_town_tilemap
     0000001B  ___bank_bg_castle_town_tilemap_a   bg_castle_town_tilemap_attr
     0000001B  ___bank_bg_dogchecksavedata_copi   bg_dogchecksavedata_copie_0_
     0000001B  ___bank_bg_dogchecksavedata_copi   bg_dogchecksavedata_copie_0_
     0000001B  ___bank_bg_exterior_tilemap        bg_exterior_tilemap
     0000001B  ___bank_bg_exterior_tilemap_attr   bg_exterior_tilemap_attr
     0000001B  ___bank_bg_legend5d_tilemap        bg_legend5d_tilemap
ASxxxx Linker V03.00/V05.40 + sdld,  page 10.
Hexadecimal  [32-Bits]

Area                                    Addr        Size        Decimal Bytes (Attributes)
--------------------------------        ----        ----        ------- ----- ------------
.  .ABS.                            00000000    00000000 =           0. bytes (ABS,CON)

      Value  Global                              Global Defined In Module
      -----  --------------------------------   ------------------------
     0000001B  ___bank_bg_legend5d_tilemap_attr   bg_legend5d_tilemap_attr
     0000001B  ___bank_bg_legend7f_tilemap        bg_legend7f_tilemap
     0000001B  ___bank_bg_legend7f_tilemap_attr   bg_legend7f_tilemap_attr
     0000001B  ___bank_bg_legendsealfountain_ti   bg_legendsealfountain_tilema
     0000001B  ___bank_bg_room_tilemap_attr       bg_room_tilemap_attr
     0000001B  ___bank_bg_secoundfountain_tilem   bg_secoundfountain_tilemap
     0000001B  ___bank_bg_secoundfountain_tilem   bg_secoundfountain_tilemap_a
     0000001B  ___bank_scene_11_init              scene_11_init
     0000001B  ___bank_scene_1_collisions         scene_1_collisions
     0000001B  ___bank_scene_26_init              scene_26_init
     0000001B  ___bank_scene_32_actors            scene_32_actors
     0000001B  ___bank_scene_37_collisions        scene_37_collisions
     0000001B  ___bank_scene_37_init              scene_37_init
     0000001B  ___bank_scene_46_sprites           scene_46_sprites
     0000001B  ___bank_scene_49_collisions        scene_49_collisions
     0000001B  ___bank_scene_65_collisions        scene_65_collisions
     0000001B  ___bank_scene_7_collisions         scene_7_collisions
     0000001B  ___bank_scene_9_collisions         scene_9_collisions
     0000001B  ___bank_sprite_toriel_tileset      sprite_toriel_tileset
     0000001B  b_set_sgb_border                   sgb_border
     0000001C  ___bank_VM_GBPRINTER               vm_gbprinter
     0000001C  ___bank_VM_PALETTE                 vm_palette
     0000001C  ___bank_actor_17_interact          actor_17_interact
     0000001C  ___bank_actor_18_interact          actor_18_interact
     0000001C  ___bank_actor_19_interact          actor_19_interact
     0000001C  ___bank_actor_73_interact          actor_73_interact
     0000001C  ___bank_actor_85_interact          actor_85_interact
     0000001C  ___bank_bg_city1_tilemap           bg_city1_tilemap
     0000001C  ___bank_bg_city1_tilemap_attr      bg_city1_tilemap_attr
     0000001C  ___bank_bg_dogchecksavedata_tile   bg_dogchecksavedata_tilemap
     0000001C  ___bank_bg_dogchecksavedata_tile   bg_dogchecksavedata_tilemap_
     0000001C  ___bank_bg_fountaincastle_tilema   bg_fountaincastle_tilemap
     0000001C  ___bank_bg_fountaincastle_tilema   bg_fountaincastle_tilemap_at
     0000001C  ___bank_bg_legend3_tilemap_attr    bg_legend3_tilemap_attr
     0000001C  ___bank_bg_new_piskel_43__tilese   bg_new_piskel_43__tileset
     0000001C  ___bank_bg_quelesttonnom_copie_t   bg_quelesttonnom_copie_tilem
     0000001C  ___bank_bg_quelesttonnom_copie_t   bg_quelesttonnom_copie_tilem
     0000001C  ___bank_bg_quelesttonnom_tilemap   bg_quelesttonnom_tilemap
     0000001C  ___bank_bg_quelesttonnom_tilemap   bg_quelesttonnom_tilemap_att
     0000001C  ___bank_bg_room_tilemap            bg_room_tilemap
     0000001C  ___bank_bg_schoolext_tilemap       bg_schoolext_tilemap
     0000001C  ___bank_bg_schoolext_tilemap_att   bg_schoolext_tilemap_attr
     0000001C  ___bank_bg_title_tilemap           bg_title_tilemap
     0000001C  ___bank_bg_title_tilemap_attr      bg_title_tilemap_attr
     0000001C  ___bank_scene_0_collisions         scene_0_collisions
     0000001C  ___bank_scene_11_collisions        scene_11_collisions
     0000001C  ___bank_scene_23_collisions        scene_23_collisions
     0000001C  ___bank_scene_24_collisions        scene_24_collisions
     0000001C  ___bank_scene_26_collisions        scene_26_collisions
     0000001C  ___bank_scene_39_collisions        scene_39_collisions
     0000001C  ___bank_scene_3_collisions         scene_3_collisions
ASxxxx Linker V03.00/V05.40 + sdld,  page 11.
Hexadecimal  [32-Bits]

Area                                    Addr        Size        Decimal Bytes (Attributes)
--------------------------------        ----        ----        ------- ----- ------------
.  .ABS.                            00000000    00000000 =           0. bytes (ABS,CON)

      Value  Global                              Global Defined In Module
      -----  --------------------------------   ------------------------
     0000001C  ___bank_scene_41_collisions        scene_41_collisions
     0000001C  ___bank_scene_42_collisions        scene_42_collisions
     0000001C  ___bank_scene_45_actors            scene_45_actors
     0000001C  ___bank_scene_52_actors            scene_52_actors
     0000001C  ___bank_scene_67_collisions        scene_67_collisions
     0000001C  b_vm_load_palette                  vm_palette
     0000001C  b_vm_print_detect                  vm_gbprinter
     0000001C  b_vm_print_overlay                 vm_gbprinter
     0000001D  ___bank_actor_24_interact          actor_24_interact
     0000001D  ___bank_bg_black_copie_tilemap     bg_black_copie_tilemap
     0000001D  ___bank_bg_black_copie_tilemap_a   bg_black_copie_tilemap_attr
     0000001D  ___bank_bg_black_tilemap           bg_black_tilemap
     0000001D  ___bank_bg_black_tilemap_attr      bg_black_tilemap_attr
     0000001D  ___bank_bg_castle_town_map2_tile   bg_castle_town_map2_tileset
     0000001D  ___bank_bg_dogchecksavedata_copi   bg_dogchecksavedata_copie_ti
     0000001D  ___bank_bg_dogchecksavedata_copi   bg_dogchecksavedata_copie_ti
     0000001D  ___bank_bg_krislegend_tilemap      bg_krislegend_tilemap
     0000001D  ___bank_bg_legend1d_tilemap        bg_legend1d_tilemap
     0000001D  ___bank_bg_legend1d_tilemap_attr   bg_legend1d_tilemap_attr
     0000001D  ___bank_bg_legend3_tilemap         bg_legend3_tilemap
     0000001D  ___bank_bg_legend4_tilemap         bg_legend4_tilemap
     0000001D  ___bank_bg_ralseilegend_tilemap    bg_ralseilegend_tilemap
     0000001D  ___bank_bg_ralseilegend_tilemap_   bg_ralseilegend_tilemap_attr
     0000001D  ___bank_bg_susielegend_tilemap     bg_susielegend_tilemap
     0000001D  ___bank_bg_susielegend_tilemap_a   bg_susielegend_tilemap_attr
     0000001D  ___bank_bg_thetle_tilemap          bg_thetle_tilemap
     0000001D  ___bank_bg_thetle_tilemap_attr     bg_thetle_tilemap_attr
     0000001D  ___bank_scene_0_init               scene_0_init
     0000001D  ___bank_scene_10_collisions        scene_10_collisions
     0000001D  ___bank_scene_13_collisions        scene_13_collisions
     0000001D  ___bank_scene_15_collisions        scene_15_collisions
     0000001D  ___bank_scene_16_collisions        scene_16_collisions
     0000001D  ___bank_scene_17_collisions        scene_17_collisions
     0000001D  ___bank_scene_18_collisions        scene_18_collisions
     0000001D  ___bank_scene_19_collisions        scene_19_collisions
     0000001D  ___bank_scene_20_collisions        scene_20_collisions
     0000001D  ___bank_scene_22_collisions        scene_22_collisions
     0000001D  ___bank_scene_27_collisions        scene_27_collisions
     0000001D  ___bank_scene_31_collisions        scene_31_collisions
     0000001D  ___bank_scene_35_triggers          scene_35_triggers
     0000001D  ___bank_scene_44_init              scene_44_init
     0000001D  ___bank_scene_48_init              scene_48_init
     0000001D  ___bank_scene_5_collisions         scene_5_collisions
     0000001D  ___bank_scene_66_collisions        scene_66_collisions
     0000001D  ___bank_scene_6_collisions         scene_6_collisions
     0000001D  ___bank_scene_logo_collisions      scene_logo_collisions
     0000001D  ___bank_sprite_dust_piles_tilese   sprite_dust_piles_tileset
     0000001D  ___bank_sprite_kris_lightworld_t   sprite_kris_lightworld_tiles
     0000001D  ___bank_sprite_ralsei_tileset      sprite_ralsei_tileset
     0000001D  ___bank_sprite_susie_tileset       sprite_susie_tileset
     0000001D  ___bank_trigger_37_interact        trigger_37_interact
ASxxxx Linker V03.00/V05.40 + sdld,  page 12.
Hexadecimal  [32-Bits]

Area                                    Addr        Size        Decimal Bytes (Attributes)
--------------------------------        ----        ----        ------- ----- ------------
.  .ABS.                            00000000    00000000 =           0. bytes (ABS,CON)

      Value  Global                              Global Defined In Module
      -----  --------------------------------   ------------------------
     0000001E  ___bank_VM_MATH                    vm_math
     0000001E  ___bank_VM_MUSIC                   vm_music
     0000001E  ___bank_VM_RTC                     vm_rtc
     0000001E  ___bank_actor_21_interact          actor_21_interact
     0000001E  ___bank_actor_23_interact          actor_23_interact
     0000001E  ___bank_actor_56_interact          actor_56_interact
     0000001E  ___bank_actor_57_interact          actor_57_interact
     0000001E  ___bank_actor_70_interact          actor_70_interact
     0000001E  ___bank_bg_chamberkriso2_tilemap   bg_chamberkriso2_tilemap
     0000001E  ___bank_bg_chamberkriso2_tilemap   bg_chamberkriso2_tilemap_att
     0000001E  ___bank_bg_legend6d_tilemap        bg_legend6d_tilemap
     0000001E  ___bank_bg_legend6d_tilemap_attr   bg_legend6d_tilemap_attr
     0000001E  ___bank_bg_name_input_background   bg_name_input_background_til
     0000001E  ___bank_bg_name_input_background   bg_name_input_background_til
     0000001E  ___bank_bg_new_piskel_43__tilema   bg_new_piskel_43__tilemap
     0000001E  ___bank_bg_new_piskel_43__tilema   bg_new_piskel_43__tilemap_at
     0000001E  ___bank_bg_the_castle_copie_tile   bg_the_castle_copie_tilemap
     0000001E  ___bank_bg_the_castle_copie_tile   bg_the_castle_copie_tilemap_
     0000001E  ___bank_bg_toilet2_tilemap         bg_toilet2_tilemap
     0000001E  ___bank_bg_toilet2_tilemap_attr    bg_toilet2_tilemap_attr
     0000001E  ___bank_bg_toilet_tilemap          bg_toilet_tilemap
     0000001E  ___bank_bg_toilet_tilemap_attr     bg_toilet_tilemap_attr
     0000001E  ___bank_palette_1                  palette_1
     0000001E  ___bank_scene_1_init               scene_1_init
     0000001E  ___bank_scene_2_collisions         scene_2_collisions
     0000001E  ___bank_scene_30_init              scene_30_init
     0000001E  ___bank_scene_35_collisions        scene_35_collisions
     0000001E  ___bank_scene_36_collisions        scene_36_collisions
     0000001E  ___bank_scene_38_collisions        scene_38_collisions
     0000001E  ___bank_scene_3_init               scene_3_init
     0000001E  ___bank_scene_41_init              scene_41_init
     0000001E  ___bank_scene_44_actors            scene_44_actors
     0000001E  ___bank_scene_44_collisions        scene_44_collisions
     0000001E  ___bank_scene_45_init              scene_45_init
     0000001E  ___bank_scene_48_collisions        scene_48_collisions
     0000001E  ___bank_scene_4_init               scene_4_init
     0000001E  ___bank_scene_50_collisions        scene_50_collisions
     0000001E  ___bank_scene_52_collisions        scene_52_collisions
     0000001E  ___bank_scene_5_init               scene_5_init
     0000001E  ___bank_scene_60_actors            scene_60_actors
     0000001E  ___bank_scene_68_collisions        scene_68_collisions
     0000001E  ___bank_scene_7_init               scene_7_init
     0000001E  ___bank_scene_8_collisions         scene_8_collisions
     0000001E  ___bank_scene_logo_init            scene_logo_init
     0000001E  ___bank_script_8                   script_8
     0000001E  ___bank_sprite_image_tileset       sprite_image_tileset
     0000001E  ___bank_sprite_krisbattle_tilese   sprite_krisbattle_tileset
     0000001E  ___bank_sprite_toriel              sprite_toriel
     0000001E  ___bank_trigger_11_interact        trigger_11_interact
     0000001E  ___bank_trigger_21_interact        trigger_21_interact
     0000001E  b_erase_flash                      
ASxxxx Linker V03.00/V05.40 + sdld,  page 13.
Hexadecimal  [32-Bits]

Area                                    Addr        Size        Decimal Bytes (Attributes)
--------------------------------        ----        ----        ------- ----- ------------
.  .ABS.                            00000000    00000000 =           0. bytes (ABS,CON)

      Value  Global                              Global Defined In Module
      -----  --------------------------------   ------------------------
     0000001E  b_save_sram_banks                  
     0000001E  b_vm_cos_scale                     vm_math
     0000001E  b_vm_music_mute                    vm_music
     0000001E  b_vm_music_play                    vm_music
     0000001E  b_vm_music_routine                 vm_music
     0000001E  b_vm_music_setpos                  vm_music
     0000001E  b_vm_music_stop                    vm_music
     0000001E  b_vm_rtc_get                       vm_rtc
     0000001E  b_vm_rtc_latch                     vm_rtc
     0000001E  b_vm_rtc_set                       vm_rtc
     0000001E  b_vm_rtc_start                     vm_rtc
     0000001E  b_vm_sfx_play                      vm_music
     0000001E  b_vm_sin_scale                     vm_math
     0000001E  b_vm_sound_mastervol               vm_music
     0000001F  ___bank_VM_LOAD_SAVE               vm_load_save
     0000001F  ___bank_VM_PROJECTILE              vm_projectiles
     0000001F  ___bank_VM_SCENE                   vm_scene
     0000001F  ___bank_actor_11_interact          actor_11_interact
     0000001F  ___bank_actor_12_interact          actor_12_interact
     0000001F  ___bank_actor_13_interact          actor_13_interact
     0000001F  ___bank_actor_14_interact          actor_14_interact
     0000001F  ___bank_actor_20_interact          actor_20_interact
     0000001F  ___bank_actor_32_interact          actor_32_interact
     0000001F  ___bank_actor_33_interact          actor_33_interact
     0000001F  ___bank_actor_34_interact          actor_34_interact
     0000001F  ___bank_actor_84_interact          actor_84_interact
     0000001F  ___bank_bg_blackdoor_tileset       bg_blackdoor_tileset
     0000001F  ___bank_frame_image                frame_image
     0000001F  ___bank_palette_10                 palette_10
     0000001F  ___bank_palette_11                 palette_11
     0000001F  ___bank_palette_12                 palette_12
     0000001F  ___bank_palette_13                 palette_13
     0000001F  ___bank_palette_14                 palette_14
     0000001F  ___bank_palette_15                 palette_15
     0000001F  ___bank_palette_16                 palette_16
     0000001F  ___bank_palette_17                 palette_17
     0000001F  ___bank_palette_18                 palette_18
     0000001F  ___bank_palette_19                 palette_19
     0000001F  ___bank_palette_2                  palette_2
     0000001F  ___bank_palette_20                 palette_20
     0000001F  ___bank_palette_21                 palette_21
     0000001F  ___bank_palette_22                 palette_22
     0000001F  ___bank_palette_23                 palette_23
     0000001F  ___bank_palette_24                 palette_24
     0000001F  ___bank_palette_25                 palette_25
     0000001F  ___bank_palette_26                 palette_26
     0000001F  ___bank_palette_27                 palette_27
     0000001F  ___bank_palette_28                 palette_28
     0000001F  ___bank_palette_29                 palette_29
     0000001F  ___bank_palette_3                  palette_3
     0000001F  ___bank_palette_30                 palette_30
ASxxxx Linker V03.00/V05.40 + sdld,  page 14.
Hexadecimal  [32-Bits]

Area                                    Addr        Size        Decimal Bytes (Attributes)
--------------------------------        ----        ----        ------- ----- ------------
.  .ABS.                            00000000    00000000 =           0. bytes (ABS,CON)

      Value  Global                              Global Defined In Module
      -----  --------------------------------   ------------------------
     0000001F  ___bank_palette_31                 palette_31
     0000001F  ___bank_palette_32                 palette_32
     0000001F  ___bank_palette_33                 palette_33
     0000001F  ___bank_palette_34                 palette_34
     0000001F  ___bank_palette_35                 palette_35
     0000001F  ___bank_palette_36                 palette_36
     0000001F  ___bank_palette_37                 palette_37
     0000001F  ___bank_palette_38                 palette_38
     0000001F  ___bank_palette_39                 palette_39
     0000001F  ___bank_palette_4                  palette_4
     0000001F  ___bank_palette_40                 palette_40
     0000001F  ___bank_palette_41                 palette_41
     0000001F  ___bank_palette_42                 palette_42
     0000001F  ___bank_palette_43                 palette_43
     0000001F  ___bank_palette_44                 palette_44
     0000001F  ___bank_palette_45                 palette_45
     0000001F  ___bank_palette_46                 palette_46
     0000001F  ___bank_palette_47                 palette_47
     0000001F  ___bank_palette_48                 palette_48
     0000001F  ___bank_palette_49                 palette_49
     0000001F  ___bank_palette_5                  palette_5
     0000001F  ___bank_palette_50                 palette_50
     0000001F  ___bank_palette_51                 palette_51
     0000001F  ___bank_palette_52                 palette_52
     0000001F  ___bank_palette_53                 palette_53
     0000001F  ___bank_scene_10_init              scene_10_init
     0000001F  ___bank_scene_14_actors            scene_14_actors
     0000001F  ___bank_scene_15_init              scene_15_init
     0000001F  ___bank_scene_16_init              scene_16_init
     0000001F  ___bank_scene_17_init              scene_17_init
     0000001F  ___bank_scene_18_init              scene_18_init
     0000001F  ___bank_scene_19_init              scene_19_init
     0000001F  ___bank_scene_20_init              scene_20_init
     0000001F  ___bank_scene_22_init              scene_22_init
     0000001F  ___bank_scene_23_init              scene_23_init
     0000001F  ___bank_scene_27_init              scene_27_init
     0000001F  ___bank_scene_28_actors            scene_28_actors
     0000001F  ___bank_scene_2_actors             scene_2_actors
     0000001F  ___bank_scene_2_init               scene_2_init
     0000001F  ___bank_scene_31_init              scene_31_init
     0000001F  ___bank_scene_34_actors            scene_34_actors
     0000001F  ___bank_scene_36_actors            scene_36_actors
     0000001F  ___bank_scene_37_actors            scene_37_actors
     0000001F  ___bank_scene_38_init              scene_38_init
     0000001F  ___bank_scene_39_init              scene_39_init
     0000001F  ___bank_scene_40_init              scene_40_init
     0000001F  ___bank_scene_41_actors            scene_41_actors
     0000001F  ___bank_scene_46_init              scene_46_init
     0000001F  ___bank_scene_47_init              scene_47_init
     0000001F  ___bank_scene_49_init              scene_49_init
     0000001F  ___bank_scene_50_init              scene_50_init
ASxxxx Linker V03.00/V05.40 + sdld,  page 15.
Hexadecimal  [32-Bits]

Area                                    Addr        Size        Decimal Bytes (Attributes)
--------------------------------        ----        ----        ------- ----- ------------
.  .ABS.                            00000000    00000000 =           0. bytes (ABS,CON)

      Value  Global                              Global Defined In Module
      -----  --------------------------------   ------------------------
     0000001F  ___bank_scene_52_init              scene_52_init
     0000001F  ___bank_scene_56_actors            scene_56_actors
     0000001F  ___bank_scene_61_actors            scene_61_actors
     0000001F  ___bank_scene_63_init              scene_63_init
     0000001F  ___bank_scene_65_actors            scene_65_actors
     0000001F  ___bank_scene_66_init              scene_66_init
     0000001F  ___bank_scene_6_init               scene_6_init
     0000001F  ___bank_scene_8_init               scene_8_init
     0000001F  ___bank_scene_9_init               scene_9_init
     0000001F  ___bank_script_1                   script_1
     0000001F  ___bank_script_3                   script_3
     0000001F  ___bank_script_4                   script_4
     0000001F  ___bank_script_input_3             script_input_3
     0000001F  ___bank_sprite_aplhys              sprite_aplhys
     0000001F  ___bank_sprite_aplhys_tileset      sprite_aplhys_tileset
     0000001F  ___bank_sprite_can_t_spare_tiles   sprite_can_t_spare_tileset
     0000001F  ___bank_sprite_cursor2             sprite_cursor2
     0000001F  ___bank_sprite_dust_piles          sprite_dust_piles
     0000001F  ___bank_sprite_hax_tileset         sprite_hax_tileset
     0000001F  ___bank_sprite_image               sprite_image
     0000001F  ___bank_sprite_kris_lightworld     sprite_kris_lightworld
     0000001F  ___bank_sprite_krisbattle          sprite_krisbattle
     0000001F  ___bank_sprite_krisbt2o_tileset    sprite_krisbt2o_tileset
     0000001F  ___bank_sprite_lancer              sprite_lancer
     0000001F  ___bank_sprite_lancer_tileset      sprite_lancer_tileset
     0000001F  ___bank_sprite_lowercases          sprite_lowercases
     0000001F  ___bank_sprite_new_piskel_3_       sprite_new_piskel_3_
     0000001F  ___bank_sprite_new_piskel_3__til   sprite_new_piskel_3__tileset
     0000001F  ___bank_sprite_new_piskel_tilese   sprite_new_piskel_tileset
     0000001F  ___bank_sprite_noellee             sprite_noellee
     0000001F  ___bank_sprite_noellee_tileset     sprite_noellee_tileset
     0000001F  ___bank_sprite_piaf_tileset        sprite_piaf_tileset
     0000001F  ___bank_sprite_ralsei              sprite_ralsei
     0000001F  ___bank_sprite_ralseibt_tileset    sprite_ralseibt_tileset
     0000001F  ___bank_sprite_saveae              sprite_saveae
     0000001F  ___bank_sprite_spare_tileset       sprite_spare_tileset
     0000001F  ___bank_sprite_susie               sprite_susie
     0000001F  ___bank_sprite_susiebto2           sprite_susiebto2
     0000001F  ___bank_sprite_susiebto2_tileset   sprite_susiebto2_tileset
     0000001F  ___bank_sprite_sword2o_tileset     sprite_sword2o_tileset
     0000001F  ___bank_tileset_default_frame      tileset_default_frame
     0000001F  ___bank_trigger_12_interact        trigger_12_interact
     0000001F  ___bank_trigger_14_interact        trigger_14_interact
     0000001F  ___bank_trigger_16_interact        trigger_16_interact
     0000001F  ___bank_trigger_39_interact        trigger_39_interact
     0000001F  ___bank_trigger_40_interact        trigger_40_interact
     0000001F  ___bank_trigger_41_interact        trigger_41_interact
     0000001F  ___bank_trigger_43_interact        trigger_43_interact
     0000001F  b_events_init                      events
     0000001F  b_itoa_fmt                         vm_ui_a
     0000001F  b_music_events_poll                music_manager
ASxxxx Linker V03.00/V05.40 + sdld,  page 16.
Hexadecimal  [32-Bits]

Area                                    Addr        Size        Decimal Bytes (Attributes)
--------------------------------        ----        ----        ------- ----- ------------
.  .ABS.                            00000000    00000000 =           0. bytes (ABS,CON)

      Value  Global                              Global Defined In Module
      -----  --------------------------------   ------------------------
     0000001F  b_music_init_driver                music_manager
     0000001F  b_music_init_events                music_manager
     0000001F  b_restore_sram                     flasher
     0000001F  b_restore_sram_bank                flasher
     0000001F  b_save_sram                        flasher
     0000001F  b_timers_init                      events
     0000001F  b_vm_projectile_launch             vm_projectiles
     0000001F  b_vm_projectile_load_type          vm_projectiles
     0000001F  b_vm_save_clear                    vm_load_save
     0000001F  b_vm_save_peek                     vm_load_save
     0000001F  b_vm_scene_pop                     vm_scene
     0000001F  b_vm_scene_pop_all                 vm_scene
     0000001F  b_vm_scene_push                    vm_scene
     0000001F  b_vm_scene_stack_reset             vm_scene
     00000020  ___bank_actor_10_interact          actor_10_interact
     00000020  ___bank_actor_15_interact          actor_15_interact
     00000020  ___bank_actor_16_interact          actor_16_interact
     00000020  ___bank_actor_52_interact          actor_52_interact
     00000020  ___bank_actor_58_interact          actor_58_interact
     00000020  ___bank_actor_9_interact           actor_9_interact
     00000020  ___bank_bg_3                       bg_3
     00000020  ___bank_bg_4                       bg_4
     00000020  ___bank_bg_5                       bg_5
     00000020  ___bank_bg_6                       bg_6
     00000020  ___bank_bg_6_1_                    bg_6_1_
     00000020  ___bank_bg_6_1__tileset            bg_6_1__tileset
     00000020  ___bank_bg_7                       bg_7
     00000020  ___bank_bg_8                       bg_8
     00000020  ___bank_bg_9                       bg_9
     00000020  ___bank_bg_9_1_                    bg_9_1_
     00000020  ___bank_bg_9_1__tileset            bg_9_1__tileset
     00000020  ___bank_bg_b0027_copie             bg_b0027_copie
     00000020  ___bank_bg_black                   bg_black
     00000020  ___bank_bg_black_copie             bg_black_copie
     00000020  ___bank_bg_black_tileset           bg_black_tileset
     00000020  ___bank_bg_blackdoor               bg_blackdoor
     00000020  ___bank_bg_castle_town             bg_castle_town
     00000020  ___bank_bg_castle_town_map2        bg_castle_town_map2
     00000020  ___bank_bg_chamberkriso2           bg_chamberkriso2
     00000020  ___bank_bg_city1                   bg_city1
     00000020  ___bank_bg_city2                   bg_city2
     00000020  ___bank_bg_dogchecksavedata        bg_dogchecksavedata
     00000020  ___bank_bg_dogchecksavedata_copi   bg_dogchecksavedata_copie
     00000020  ___bank_bg_dogchecksavedata_copi   bg_dogchecksavedata_copie_0
     00000020  ___bank_bg_exterior                bg_exterior
     00000020  ___bank_bg_fountaincastle          bg_fountaincastle
     00000020  ___bank_bg_gameover                bg_gameover
     00000020  ___bank_bg_kris_s                  bg_kris_s
     00000020  ___bank_bg_kris_ss                 bg_kris_ss
     00000020  ___bank_bg_krislegend              bg_krislegend
     00000020  ___bank_bg_legend1d                bg_legend1d
ASxxxx Linker V03.00/V05.40 + sdld,  page 17.
Hexadecimal  [32-Bits]

Area                                    Addr        Size        Decimal Bytes (Attributes)
--------------------------------        ----        ----        ------- ----- ------------
.  .ABS.                            00000000    00000000 =           0. bytes (ABS,CON)

      Value  Global                              Global Defined In Module
      -----  --------------------------------   ------------------------
     00000020  ___bank_bg_legend2                 bg_legend2
     00000020  ___bank_bg_legend3                 bg_legend3
     00000020  ___bank_bg_legend4                 bg_legend4
     00000020  ___bank_bg_legend5d                bg_legend5d
     00000020  ___bank_bg_legend6d                bg_legend6d
     00000020  ___bank_bg_legend7f                bg_legend7f
     00000020  ___bank_bg_legendsealfountain      bg_legendsealfountain
     00000020  ___bank_bg_name_input_background   bg_name_input_background
     00000020  ___bank_bg_new_piskel_43_          bg_new_piskel_43_
     00000020  ___bank_bg_quelesttonnom           bg_quelesttonnom
     00000020  ___bank_bg_quelesttonnom_copie     bg_quelesttonnom_copie
     00000020  ___bank_bg_ralseilegend            bg_ralseilegend
     00000020  ___bank_bg_room                    bg_room
     00000020  ___bank_bg_schoolcorridor1         bg_schoolcorridor1
     00000020  ___bank_bg_schoolext               bg_schoolext
     00000020  ___bank_bg_schoolint               bg_schoolint
     00000020  ___bank_bg_secoundfountain         bg_secoundfountain
     00000020  ___bank_bg_susielegend             bg_susielegend
     00000020  ___bank_bg_the_castle_copie        bg_the_castle_copie
     00000020  ___bank_bg_thetle                  bg_thetle
     00000020  ___bank_bg_title                   bg_title
     00000020  ___bank_bg_toilet                  bg_toilet
     00000020  ___bank_bg_toilet2                 bg_toilet2
     00000020  ___bank_bg_untitled                bg_untitled
     00000020  ___bank_bg_worldddd                bg_worldddd
     00000020  ___bank_bg_worldddddark            bg_worldddddark
     00000020  ___bank_cursor_image               cursor_image
     00000020  ___bank_emote_shock                emote_shock
     00000020  ___bank_palette_54                 palette_54
     00000020  ___bank_palette_55                 palette_55
     00000020  ___bank_palette_56                 palette_56
     00000020  ___bank_palette_57                 palette_57
     00000020  ___bank_palette_58                 palette_58
     00000020  ___bank_palette_59                 palette_59
     00000020  ___bank_palette_6                  palette_6
     00000020  ___bank_palette_60                 palette_60
     00000020  ___bank_palette_61                 palette_61
     00000020  ___bank_palette_62                 palette_62
     00000020  ___bank_palette_63                 palette_63
     00000020  ___bank_palette_7                  palette_7
     00000020  ___bank_palette_8                  palette_8
     00000020  ___bank_palette_9                  palette_9
     00000020  ___bank_scene_0                    scene_0
     00000020  ___bank_scene_1                    scene_1
     00000020  ___bank_scene_10                   scene_10
     00000020  ___bank_scene_11                   scene_11
     00000020  ___bank_scene_13                   scene_13
     00000020  ___bank_scene_14                   scene_14
     00000020  ___bank_scene_14_triggers          scene_14_triggers
     00000020  ___bank_scene_15                   scene_15
     00000020  ___bank_scene_16                   scene_16
ASxxxx Linker V03.00/V05.40 + sdld,  page 18.
Hexadecimal  [32-Bits]

Area                                    Addr        Size        Decimal Bytes (Attributes)
--------------------------------        ----        ----        ------- ----- ------------
.  .ABS.                            00000000    00000000 =           0. bytes (ABS,CON)

      Value  Global                              Global Defined In Module
      -----  --------------------------------   ------------------------
     00000020  ___bank_scene_17                   scene_17
     00000020  ___bank_scene_18                   scene_18
     00000020  ___bank_scene_19                   scene_19
     00000020  ___bank_scene_2                    scene_2
     00000020  ___bank_scene_20                   scene_20
     00000020  ___bank_scene_21                   scene_21
     00000020  ___bank_scene_21_actors            scene_21_actors
     00000020  ___bank_scene_21_init              scene_21_init
     00000020  ___bank_scene_21_triggers          scene_21_triggers
     00000020  ___bank_scene_22                   scene_22
     00000020  ___bank_scene_23                   scene_23
     00000020  ___bank_scene_24                   scene_24
     00000020  ___bank_scene_25                   scene_25
     00000020  ___bank_scene_25_actors            scene_25_actors
     00000020  ___bank_scene_25_init              scene_25_init
     00000020  ___bank_scene_25_triggers          scene_25_triggers
     00000020  ___bank_scene_26                   scene_26
     00000020  ___bank_scene_27                   scene_27
     00000020  ___bank_scene_28                   scene_28
     00000020  ___bank_scene_28_sprites           scene_28_sprites
     00000020  ___bank_scene_29                   scene_29
     00000020  ___bank_scene_29_sprites           scene_29_sprites
     00000020  ___bank_scene_3                    scene_3
     00000020  ___bank_scene_30                   scene_30
     00000020  ___bank_scene_31                   scene_31
     00000020  ___bank_scene_32                   scene_32
     00000020  ___bank_scene_32_init              scene_32_init
     00000020  ___bank_scene_32_triggers          scene_32_triggers
     00000020  ___bank_scene_33                   scene_33
     00000020  ___bank_scene_33_init              scene_33_init
     00000020  ___bank_scene_33_triggers          scene_33_triggers
     00000020  ___bank_scene_34                   scene_34
     00000020  ___bank_scene_34_init              scene_34_init
     00000020  ___bank_scene_34_triggers          scene_34_triggers
     00000020  ___bank_scene_35                   scene_35
     00000020  ___bank_scene_35_actors            scene_35_actors
     00000020  ___bank_scene_35_init              scene_35_init
     00000020  ___bank_scene_36                   scene_36
     00000020  ___bank_scene_36_init              scene_36_init
     00000020  ___bank_scene_36_triggers          scene_36_triggers
     00000020  ___bank_scene_37                   scene_37
     00000020  ___bank_scene_37_sprites           scene_37_sprites
     00000020  ___bank_scene_38                   scene_38
     00000020  ___bank_scene_39                   scene_39
     00000020  ___bank_scene_4                    scene_4
     00000020  ___bank_scene_40                   scene_40
     00000020  ___bank_scene_41                   scene_41
     00000020  ___bank_scene_41_sprites           scene_41_sprites
     00000020  ___bank_scene_42                   scene_42
     00000020  ___bank_scene_44                   scene_44
     00000020  ___bank_scene_44_triggers          scene_44_triggers
ASxxxx Linker V03.00/V05.40 + sdld,  page 19.
Hexadecimal  [32-Bits]

Area                                    Addr        Size        Decimal Bytes (Attributes)
--------------------------------        ----        ----        ------- ----- ------------
.  .ABS.                            00000000    00000000 =           0. bytes (ABS,CON)

      Value  Global                              Global Defined In Module
      -----  --------------------------------   ------------------------
     00000020  ___bank_scene_45                   scene_45
     00000020  ___bank_scene_45_sprites           scene_45_sprites
     00000020  ___bank_scene_45_triggers          scene_45_triggers
     00000020  ___bank_scene_46                   scene_46
     00000020  ___bank_scene_46_actors            scene_46_actors
     00000020  ___bank_scene_47                   scene_47
     00000020  ___bank_scene_47_actors            scene_47_actors
     00000020  ___bank_scene_47_sprites           scene_47_sprites
     00000020  ___bank_scene_47_triggers          scene_47_triggers
     00000020  ___bank_scene_48                   scene_48
     00000020  ___bank_scene_48_actors            scene_48_actors
     00000020  ___bank_scene_48_sprites           scene_48_sprites
     00000020  ___bank_scene_49                   scene_49
     00000020  ___bank_scene_5                    scene_5
     00000020  ___bank_scene_50                   scene_50
     00000020  ___bank_scene_51                   scene_51
     00000020  ___bank_scene_51_actors            scene_51_actors
     00000020  ___bank_scene_51_sprites           scene_51_sprites
     00000020  ___bank_scene_52                   scene_52
     00000020  ___bank_scene_52_sprites           scene_52_sprites
     00000020  ___bank_scene_54                   scene_54
     00000020  ___bank_scene_54_init              scene_54_init
     00000020  ___bank_scene_54_triggers          scene_54_triggers
     00000020  ___bank_scene_55                   scene_55
     00000020  ___bank_scene_55_actors            scene_55_actors
     00000020  ___bank_scene_55_init              scene_55_init
     00000020  ___bank_scene_55_sprites           scene_55_sprites
     00000020  ___bank_scene_55_triggers          scene_55_triggers
     00000020  ___bank_scene_56                   scene_56
     00000020  ___bank_scene_56_sprites           scene_56_sprites
     00000020  ___bank_scene_56_triggers          scene_56_triggers
     00000020  ___bank_scene_57                   scene_57
     00000020  ___bank_scene_57_init              scene_57_init
     00000020  ___bank_scene_57_triggers          scene_57_triggers
     00000020  ___bank_scene_58                   scene_58
     00000020  ___bank_scene_58_init              scene_58_init
     00000020  ___bank_scene_59                   scene_59
     00000020  ___bank_scene_59_actors            scene_59_actors
     00000020  ___bank_scene_59_init              scene_59_init
     00000020  ___bank_scene_59_sprites           scene_59_sprites
     00000020  ___bank_scene_59_triggers          scene_59_triggers
     00000020  ___bank_scene_6                    scene_6
     00000020  ___bank_scene_60                   scene_60
     00000020  ___bank_scene_60_init              scene_60_init
     00000020  ___bank_scene_60_sprites           scene_60_sprites
     00000020  ___bank_scene_60_triggers          scene_60_triggers
     00000020  ___bank_scene_61                   scene_61
     00000020  ___bank_scene_61_init              scene_61_init
     00000020  ___bank_scene_61_sprites           scene_61_sprites
     00000020  ___bank_scene_61_triggers          scene_61_triggers
     00000020  ___bank_scene_62                   scene_62
ASxxxx Linker V03.00/V05.40 + sdld,  page 20.
Hexadecimal  [32-Bits]

Area                                    Addr        Size        Decimal Bytes (Attributes)
--------------------------------        ----        ----        ------- ----- ------------
.  .ABS.                            00000000    00000000 =           0. bytes (ABS,CON)

      Value  Global                              Global Defined In Module
      -----  --------------------------------   ------------------------
     00000020  ___bank_scene_62_init              scene_62_init
     00000020  ___bank_scene_63                   scene_63
     00000020  ___bank_scene_63_actors            scene_63_actors
     00000020  ___bank_scene_63_sprites           scene_63_sprites
     00000020  ___bank_scene_63_triggers          scene_63_triggers
     00000020  ___bank_scene_64                   scene_64
     00000020  ___bank_scene_64_init              scene_64_init
     00000020  ___bank_scene_64_triggers          scene_64_triggers
     00000020  ___bank_scene_65                   scene_65
     00000020  ___bank_scene_65_sprites           scene_65_sprites
     00000020  ___bank_scene_65_triggers          scene_65_triggers
     00000020  ___bank_scene_66                   scene_66
     00000020  ___bank_scene_66_actors            scene_66_actors
     00000020  ___bank_scene_66_sprites           scene_66_sprites
     00000020  ___bank_scene_66_triggers          scene_66_triggers
     00000020  ___bank_scene_67                   scene_67
     00000020  ___bank_scene_67_init              scene_67_init
     00000020  ___bank_scene_67_triggers          scene_67_triggers
     00000020  ___bank_scene_68                   scene_68
     00000020  ___bank_scene_68_actors            scene_68_actors
     00000020  ___bank_scene_68_init              scene_68_init
     00000020  ___bank_scene_68_sprites           scene_68_sprites
     00000020  ___bank_scene_68_triggers          scene_68_triggers
     00000020  ___bank_scene_7                    scene_7
     00000020  ___bank_scene_8                    scene_8
     00000020  ___bank_scene_9                    scene_9
     00000020  ___bank_scene_logo                 scene_logo
     00000020  ___bank_script_0                   script_0
     00000020  ___bank_script_11                  script_11
     00000020  ___bank_script_19                  script_19
     00000020  ___bank_script_6                   script_6
     00000020  ___bank_script_input               script_input
     00000020  ___bank_script_input_0             script_input_0
     00000020  ___bank_script_input_1             script_input_1
     00000020  ___bank_script_input_2             script_input_2
     00000020  ___bank_script_input_4             script_input_4
     00000020  ___bank_script_input_5             script_input_5
     00000020  ___bank_script_input_6             script_input_6
     00000020  ___bank_sound_legacy_0             sound_legacy_0
     00000020  ___bank_sound_legacy_0_0           sound_legacy_0_0
     00000020  ___bank_sound_legacy_0_1           sound_legacy_0_1
     00000020  ___bank_sound_legacy_0_2           sound_legacy_0_2
     00000020  ___bank_sprite_can_t_spare         sprite_can_t_spare
     00000020  ___bank_sprite_cursor              sprite_cursor
     00000020  ___bank_sprite_cursor2_tileset     sprite_cursor2_tileset
     00000020  ___bank_sprite_cursor_tileset      sprite_cursor_tileset
     00000020  ___bank_sprite_cursortest          sprite_cursortest
     00000020  ___bank_sprite_cursortest_tilese   sprite_cursortest_tileset
     00000020  ___bank_sprite_hax                 sprite_hax
     00000020  ___bank_sprite_krisbt2o            sprite_krisbt2o
     00000020  ___bank_sprite_lacer_shadow        sprite_lacer_shadow
ASxxxx Linker V03.00/V05.40 + sdld,  page 21.
Hexadecimal  [32-Bits]

Area                                    Addr        Size        Decimal Bytes (Attributes)
--------------------------------        ----        ----        ------- ----- ------------
.  .ABS.                            00000000    00000000 =           0. bytes (ABS,CON)

      Value  Global                              Global Defined In Module
      -----  --------------------------------   ------------------------
     00000020  ___bank_sprite_lightshard          sprite_lightshard
     00000020  ___bank_sprite_lightshard_tilese   sprite_lightshard_tileset
     00000020  ___bank_sprite_new_piskel          sprite_new_piskel
     00000020  ___bank_sprite_piaf                sprite_piaf
     00000020  ___bank_sprite_ralseibt            sprite_ralseibt
     00000020  ___bank_sprite_ralsss              sprite_ralsss
     00000020  ___bank_sprite_ralsss_tileset      sprite_ralsss_tileset
     00000020  ___bank_sprite_room2               sprite_room2
     00000020  ___bank_sprite_saveae_tileset      sprite_saveae_tileset
     00000020  ___bank_sprite_spare               sprite_spare
     00000020  ___bank_sprite_sword2o             sprite_sword2o
     00000020  ___bank_spritesheet_none           spritesheet_none
     00000020  ___bank_trigger_0_interact         trigger_0_interact
     00000020  ___bank_trigger_10_interact        trigger_10_interact
     00000020  ___bank_trigger_15_interact        trigger_15_interact
     00000020  ___bank_trigger_17_interact        trigger_17_interact
     00000020  ___bank_trigger_18_interact        trigger_18_interact
     00000020  ___bank_trigger_19_interact        trigger_19_interact
     00000020  ___bank_trigger_1_interact         trigger_1_interact
     00000020  ___bank_trigger_20_interact        trigger_20_interact
     00000020  ___bank_trigger_22_interact        trigger_22_interact
     00000020  ___bank_trigger_23_interact        trigger_23_interact
     00000020  ___bank_trigger_24_interact        trigger_24_interact
     00000020  ___bank_trigger_25_interact        trigger_25_interact
     00000020  ___bank_trigger_27_interact        trigger_27_interact
     00000020  ___bank_trigger_28_interact        trigger_28_interact
     00000020  ___bank_trigger_29_interact        trigger_29_interact
     00000020  ___bank_trigger_2_interact         trigger_2_interact
     00000020  ___bank_trigger_30_interact        trigger_30_interact
     00000020  ___bank_trigger_31_interact        trigger_31_interact
     00000020  ___bank_trigger_32_interact        trigger_32_interact
     00000020  ___bank_trigger_33_interact        trigger_33_interact
     00000020  ___bank_trigger_34_interact        trigger_34_interact
     00000020  ___bank_trigger_35_interact        trigger_35_interact
     00000020  ___bank_trigger_36_interact        trigger_36_interact
     00000020  ___bank_trigger_38_interact        trigger_38_interact
     00000020  ___bank_trigger_3_interact         trigger_3_interact
     00000020  ___bank_trigger_42_interact        trigger_42_interact
     00000020  ___bank_trigger_4_interact         trigger_4_interact
     00000020  ___bank_trigger_5_interact         trigger_5_interact
     00000020  ___bank_trigger_6_interact         trigger_6_interact
     00000020  ___bank_trigger_7_interact         trigger_7_interact
     00000020  ___bank_trigger_8_interact         trigger_8_interact
     00000020  ___bank_trigger_9_interact         trigger_9_interact
     00000020  b_SIO_init                         sio
     00000020  b_camera_init                      camera
     00000020  b_input_init                       input
     00000020  b_logo_init                        logo
     00000020  b_logo_update                      logo
     00000020  b_parallax_init                    parallax
     00000020  b_scroll_rect                      
ASxxxx Linker V03.00/V05.40 + sdld,  page 22.
Hexadecimal  [32-Bits]

Area                                    Addr        Size        Decimal Bytes (Attributes)
--------------------------------        ----        ----        ------- ----- ------------
.  .ABS.                            00000000    00000000 =           0. bytes (ABS,CON)

      Value  Global                              Global Defined In Module
      -----  --------------------------------   ------------------------
     00000027  l__GSINIT                       
     00000030  l__HEADER7                      
     0000003C  __start_save                    
     00000060  l__HEADER4                      
     000000AB  l__HEADER11                     
     000001CB  l__CRASH_SCRATCH2               
     00000200  s__CODE                         
     00000ECE  l__CODE                         
     000010CE  s__HOME                         
     00001971  l__DATA                         
     00002000  _rROMB0                            
     00002B07  l__CODE_32                      
     00002D53  l__HOME                         
     00003000  _rROMB1                            
     00003E21  s__BASE                         
     00003E21  s__CODE_0                       
     00003E21  s__INITIALIZER                  
     00003E21  s__LIT                          
     00003E3A  s__GSINIT                       
     00003E61  s__GSFINAL                      
     00003FFE  l__CODE_10                      
     00003FFE  l__CODE_11                      
     00003FFE  l__CODE_14                      
     00003FFE  l__CODE_15                      
     00003FFE  l__CODE_23                      
     00003FFE  l__CODE_27                      
     00003FFE  l__CODE_3                       
     00003FFE  l__CODE_30                      
     00003FFE  l__CODE_31                      
     00003FFF  l__CODE_1                       
     00003FFF  l__CODE_16                      
     00003FFF  l__CODE_2                       
     00003FFF  l__CODE_20                      
     00003FFF  l__CODE_25                      
     00003FFF  l__CODE_9                       
     00004000  _RTC_SELECT_REG                    vm_rtc
     00004000  _rRAMB                             
     00004000  l__CODE_12                      
     00004000  l__CODE_13                      
     00004000  l__CODE_17                      
     00004000  l__CODE_18                      
     00004000  l__CODE_19                      
     00004000  l__CODE_21                      
     00004000  l__CODE_22                      
     00004000  l__CODE_24                      
     00004000  l__CODE_26                      
     00004000  l__CODE_28                      
     00004000  l__CODE_29                      
     00004000  l__CODE_4                       
     00004000  l__CODE_5                       
     00004000  l__CODE_6                       
ASxxxx Linker V03.00/V05.40 + sdld,  page 23.
Hexadecimal  [32-Bits]

Area                                    Addr        Size        Decimal Bytes (Attributes)
--------------------------------        ----        ----        ------- ----- ------------
.  .ABS.                            00000000    00000000 =           0. bytes (ABS,CON)

      Value  Global                              Global Defined In Module
      -----  --------------------------------   ------------------------
     00004000  l__CODE_7                       
     00004000  l__CODE_8                       
     00006000  _RTC_LATCH_REG                     vm_rtc
     00008000  __VRAM                             
     00008000  __VRAM8000                         
     00008800  __VRAM8800                         
     00009000  __VRAM9000                         
     00009800  __SCRN0                            
     00009C00  __SCRN1                            
     0000A000  _RTC_VALUE_REG                     vm_rtc
     0000A000  __SRAM                             
     0000C000  __RAM                              
     0000C000  _shadow_OAM                     
     0000C0A0  s__DATA                         
     0000D000  __RAMBANK                          
     0000DA11  s__BSS                          
     0000DA11  s__INITIALIZED                  
     0000DA2A  s__HEAP                         
     0000DA2A  s__HEAP_END                     
     0000DF00  .STACK                          
     0000DF00  _shadow_OAM2                       absolute
     0000DFA0  _BkgPalette                        absolute
     0000DFE0  _vwf_tile_data                     absolute
     0000FE00  __OAMRAM                           
     0000FF00  _P1_REG                            
     0000FF00  __IO                               
     0000FF01  _SB_REG                            
     0000FF02  _SC_REG                            
     0000FF04  _DIV_REG                           
     0000FF05  _TIMA_REG                          
     0000FF06  _TMA_REG                           
     0000FF07  _TAC_REG                           
     0000FF0F  _IF_REG                            
     0000FF10  _NR10_REG                          
     0000FF11  _NR11_REG                          
     0000FF12  _NR12_REG                          
     0000FF13  _NR13_REG                          
     0000FF14  _NR14_REG                          
     0000FF16  _NR21_REG                          
     0000FF17  _NR22_REG                          
     0000FF18  _NR23_REG                          
     0000FF19  _NR24_REG                          
     0000FF1A  _NR30_REG                          
     0000FF1B  _NR31_REG                          
     0000FF1C  _NR32_REG                          
     0000FF1D  _NR33_REG                          
     0000FF1E  _NR34_REG                          
     0000FF20  _NR41_REG                          
     0000FF21  _NR42_REG                          
     0000FF22  _NR43_REG                          
     0000FF23  _NR44_REG                          
ASxxxx Linker V03.00/V05.40 + sdld,  page 24.
Hexadecimal  [32-Bits]

Area                                    Addr        Size        Decimal Bytes (Attributes)
--------------------------------        ----        ----        ------- ----- ------------
.  .ABS.                            00000000    00000000 =           0. bytes (ABS,CON)

      Value  Global                              Global Defined In Module
      -----  --------------------------------   ------------------------
     0000FF24  _NR50_REG                          
     0000FF25  _NR51_REG                          
     0000FF26  _NR52_REG                          
     0000FF30  _AUD3WAVE                          
     0000FF30  _PCM_SAMPLE                        
     0000FF30  __AUD3WAVERAM                      
     0000FF40  _LCDC_REG                          
     0000FF41  _STAT_REG                          
     0000FF42  _SCY_REG                           
     0000FF43  _SCX_REG                           
     0000FF44  _LY_REG                            
     0000FF45  _LYC_REG                           
     0000FF46  _DMA_REG                           
     0000FF47  _BGP_REG                           
     0000FF48  _OBP0_REG                          
     0000FF49  _OBP1_REG                          
     0000FF4A  _WY_REG                            
     0000FF4B  _WX_REG                            
     0000FF4D  _KEY1_REG                          
     0000FF4F  _VBK_REG                           
     0000FF51  _HDMA1_REG                         
     0000FF52  _HDMA2_REG                         
     0000FF53  _HDMA3_REG                         
     0000FF54  _HDMA4_REG                         
     0000FF55  _HDMA5_REG                         
     0000FF56  _RP_REG                            
     0000FF68  _BCPS_REG                          
     0000FF69  _BCPD_REG                          
     0000FF6A  _OCPS_REG                          
     0000FF6B  _OCPD_REG                          
     0000FF70  _SVBK_REG                          
     0000FF76  _PCM12_REG                         
     0000FF77  _PCM34_REG                         
     0000FF80  .refresh_OAM                    
     0000FF80  __HRAM                             
     0000FFFF  _IE_REG                            
     00014000  s__CODE_1                       
     00024000  s__CODE_2                       
     00034000  s__CODE_3                       
     00044000  s__CODE_4                       
     00054000  s__CODE_5                       
     00064000  s__CODE_6                       
     00074000  s__CODE_7                       
     00084000  s__CODE_8                       
     00094000  s__CODE_9                       
     000A4000  s__CODE_10                      
     000B4000  s__CODE_11                      
     000C4000  s__CODE_12                      
     000D4000  s__CODE_13                      
     000E4000  s__CODE_14                      
     000F4000  s__CODE_15                      
ASxxxx Linker V03.00/V05.40 + sdld,  page 25.
Hexadecimal  [32-Bits]

Area                                    Addr        Size        Decimal Bytes (Attributes)
--------------------------------        ----        ----        ------- ----- ------------
.  .ABS.                            00000000    00000000 =           0. bytes (ABS,CON)

      Value  Global                              Global Defined In Module
      -----  --------------------------------   ------------------------
     00104000  s__CODE_16                      
     00114000  s__CODE_17                      
     00124000  s__CODE_18                      
     00134000  s__CODE_19                      
     00144000  s__CODE_20                      
     00154000  s__CODE_21                      
     00164000  s__CODE_22                      
     00174000  s__CODE_23                      
     00184000  s__CODE_24                      
     00194000  s__CODE_25                      
     001A4000  s__CODE_26                      
     001B4000  s__CODE_27                      
     001C4000  s__CODE_28                      
     001D4000  s__CODE_29                      
     001E4000  s__CODE_30                      
     001F4000  s__CODE_31                      
     00204000  s__CODE_32                      

ASxxxx Linker V03.00/V05.40 + sdld,  page 26.
Hexadecimal  [32-Bits]

Area                                    Addr        Size        Decimal Bytes (Attributes)
--------------------------------        ----        ----        ------- ----- ------------
_CODE                               00000200    00000ECE =        3790. bytes (REL,CON)

      Value  Global                              Global Defined In Module
      -----  --------------------------------   ------------------------
     00000200  ___HandleCrash                     
     0000020A  _SIO_send_byte                     
     0000021D  _SIO_receive                       
     0000022E  _GetWinAddr                        
     00000236  _GetBkgAddr                        
     00000244  _state_init                        
     00000249  _state_update                      
     0000026B  _ui_time_masks                     
     00000273  _ui_print_shift_char               
     000002F6  _ui_draw_frame_row                 
     000002FF  .ui_draw_frame_row                 
     00000328  _script_cmds                       vm_instructions
     00000560  _save_signature                    game_signature
     00000564  _start_scene_x                     
     00000566  _start_scene_y                     
     00000568  _start_scene_dir                   
     00000569  _start_scene                       
     0000056C  _start_player_move_speed           
     0000056D  _start_player_anim_tick            
     0000056E  _ui_fonts                          
     00000580  _core_reset_hook                   main
     00000588  _main                              main
     00000590  _state_start_fns                   
     00000599  _state_update_fns                  
     000005A2  _hUGE_init                         hUGEDriver_obj
     000005A4  hUGE_init                          hUGEDriver_obj
     000005FA  _hUGE_mute_channel                 hUGEDriver_obj
     000005FC  hUGE_mute_channel                  hUGEDriver_obj
     0000084A  _hUGE_set_position                 hUGEDriver_obj
     0000084C  hUGE_set_position                  hUGEDriver_obj
     00000A11  _hUGE_dosound                      hUGEDriver_obj
     00000A11  hUGE_dosound                       hUGEDriver_obj
     00000D3D  _get_vram_byte                     
     00000D45  _get_win_tile_xy                   
     00000D4D  _get_bkg_tile_xy                   
     00000D74  _set_sprite_palette                CGB
     00000D79  _set_bkg_palette                   CGB
     00000D7C  .set_palette                       CGB
     00000D9B  _set_sprite_palette_entry          CGB
     00000DA0  _set_bkg_palette_entry             CGB
     00000DA3  .set_palette_entry                 CGB
     00000DBF  _hide_sprites_range                Metasprites
     00000DEE  __mulsuchar                        mul
     00000DF1  __muluschar                        mul
     00000DFA  __mulschar                         mul
     00000E02  __mulint                           mul
     00000E21  __muluchar                         mul
     00000E33  _set_vram_byte                     
     00000E3C  _set_win_tile_xy                   
     00000E45  _set_bkg_tile_xy                   
ASxxxx Linker V03.00/V05.40 + sdld,  page 27.
Hexadecimal  [32-Bits]

Area                                    Addr        Size        Decimal Bytes (Attributes)
--------------------------------        ----        ----        ------- ----- ------------
_CODE                               00000200    00000ECE =        3790. bytes (REL,CON)

      Value  Global                              Global Defined In Module
      -----  --------------------------------   ------------------------
     00000E74  .sgb_check                         
     00000E74  _sgb_check                         
     00000EBC  _sgb_transfer                      
     00000EC1  .sgb_transfer                      
     00000F02  .copy_vram                         
     00000F08  _get_data                          
     00000F08  _set_data                          
     00000F08  _vmemcpy                           
     00000F56  ___move_metasprite                 Metasprites
     00000F93  ___memcpy                          
     00000F93  _memcpy                            
     00000FC5  _cpu_slow                          CGB
     00000FE0  _cpu_fast                          CGB
     00000FE7  __divsuchar                        divmod
     00000FED  __modsuchar                        divmod
     00000FF6  __divuschar                        divmod
     00000FFF  __moduschar                        divmod
     0000100B  __divschar                         divmod
     00001010  __modschar                         divmod
     00001017  __divsint                          divmod
     00001020  __modsint                          divmod
     0000102C  __divuchar                         divmod
     00001031  __moduchar                         divmod
     00001038  __divuint                          divmod
     00001041  __moduint                          divmod
     0000104D  .div8                              divmod
     0000104D  .mod8                              divmod
     00001055  .div16                             divmod
     00001055  .mod16                             divmod
     0000108B  .divu8                             divmod
     0000108B  .modu8                             divmod
     0000108E  .divu16                            divmod
     0000108E  .modu16                            divmod

ASxxxx Linker V03.00/V05.40 + sdld,  page 28.
Hexadecimal  [32-Bits]

Area                                    Addr        Size        Decimal Bytes (Attributes)
--------------------------------        ----        ----        ------- ----- ------------
_HEADER0                            00000000    00000001 =           1. bytes (ABS,CON)

      Value  Global                              Global Defined In Module
      -----  --------------------------------   ------------------------
     00000020  .call_hl                           Runtime

ASxxxx Linker V03.00/V05.40 + sdld,  page 29.
Hexadecimal  [32-Bits]

Area                                    Addr        Size        Decimal Bytes (Attributes)
--------------------------------        ----        ----        ------- ----- ------------
_HEADER1                            00000000    00000005 =           5. bytes (ABS,CON)

      Value  Global                              Global Defined In Module
      -----  --------------------------------   ------------------------
     00000028  .MemsetSmall                       Runtime

ASxxxx Linker V03.00/V05.40 + sdld,  page 30.
Hexadecimal  [32-Bits]

Area                                    Addr        Size        Decimal Bytes (Attributes)
--------------------------------        ----        ----        ------- ----- ------------
_HEADER2                            00000000    00000007 =           7. bytes (ABS,CON)

      Value  Global                              Global Defined In Module
      -----  --------------------------------   ------------------------
     00000030  .MemcpySmall                       Runtime

ASxxxx Linker V03.00/V05.40 + sdld,  page 31.
Hexadecimal  [32-Bits]

Area                                    Addr        Size        Decimal Bytes (Attributes)
--------------------------------        ----        ----        ------- ----- ------------
_HEADER3                            00000000    00000008 =           8. bytes (ABS,CON)

      Value  Global                              Global Defined In Module
      -----  --------------------------------   ------------------------
ASxxxx Linker V03.00/V05.40 + sdld,  page 32.
Hexadecimal  [32-Bits]

Area                                    Addr        Size        Decimal Bytes (Attributes)
--------------------------------        ----        ----        ------- ----- ------------
_HEADER4                            00000000    00000060 =          96. bytes (ABS,CON)

      Value  Global                              Global Defined In Module
      -----  --------------------------------   ------------------------
     00000080  .int                               Runtime
     0000008F  _wait_int_handler                  Runtime
     0000009C  __standard_VBL_handler             Runtime
     000000AB  _refresh_OAM                       Runtime
     000000CC  _set_interrupts                    Runtime

ASxxxx Linker V03.00/V05.40 + sdld,  page 33.
Hexadecimal  [32-Bits]

Area                                    Addr        Size        Decimal Bytes (Attributes)
--------------------------------        ----        ----        ------- ----- ------------
_HEADER5                            00000000    00000001 =           1. bytes (ABS,CON)

      Value  Global                              Global Defined In Module
      -----  --------------------------------   ------------------------
ASxxxx Linker V03.00/V05.40 + sdld,  page 34.
Hexadecimal  [32-Bits]

Area                                    Addr        Size        Decimal Bytes (Attributes)
--------------------------------        ----        ----        ------- ----- ------------
_HEADER6                            00000000    00000002 =           2. bytes (ABS,CON)

      Value  Global                              Global Defined In Module
      -----  --------------------------------   ------------------------
ASxxxx Linker V03.00/V05.40 + sdld,  page 35.
Hexadecimal  [32-Bits]

Area                                    Addr        Size        Decimal Bytes (Attributes)
--------------------------------        ----        ----        ------- ----- ------------
_HEADER7                            00000000    00000030 =          48. bytes (ABS,CON)

      Value  Global                              Global Defined In Module
      -----  --------------------------------   ------------------------
ASxxxx Linker V03.00/V05.40 + sdld,  page 36.
Hexadecimal  [32-Bits]

Area                                    Addr        Size        Decimal Bytes (Attributes)
--------------------------------        ----        ----        ------- ----- ------------
_HEADER8                            00000000    00000006 =           6. bytes (ABS,CON)

      Value  Global                              Global Defined In Module
      -----  --------------------------------   ------------------------
ASxxxx Linker V03.00/V05.40 + sdld,  page 37.
Hexadecimal  [32-Bits]

Area                                    Addr        Size        Decimal Bytes (Attributes)
--------------------------------        ----        ----        ------- ----- ------------
_HEADER9                            00000000    00000003 =           3. bytes (ABS,CON)

      Value  Global                              Global Defined In Module
      -----  --------------------------------   ------------------------
ASxxxx Linker V03.00/V05.40 + sdld,  page 38.
Hexadecimal  [32-Bits]

Area                                    Addr        Size        Decimal Bytes (Attributes)
--------------------------------        ----        ----        ------- ----- ------------
_HEADERa                            00000000    00000001 =           1. bytes (ABS,CON)

      Value  Global                              Global Defined In Module
      -----  --------------------------------   ------------------------
ASxxxx Linker V03.00/V05.40 + sdld,  page 39.
Hexadecimal  [32-Bits]

Area                                    Addr        Size        Decimal Bytes (Attributes)
--------------------------------        ----        ----        ------- ----- ------------
_HEADERb                            00000000    00000001 =           1. bytes (ABS,CON)

      Value  Global                              Global Defined In Module
      -----  --------------------------------   ------------------------
ASxxxx Linker V03.00/V05.40 + sdld,  page 40.
Hexadecimal  [32-Bits]

Area                                    Addr        Size        Decimal Bytes (Attributes)
--------------------------------        ----        ----        ------- ----- ------------
_HEADERc                            00000000    00000001 =           1. bytes (ABS,CON)

      Value  Global                              Global Defined In Module
      -----  --------------------------------   ------------------------
ASxxxx Linker V03.00/V05.40 + sdld,  page 41.
Hexadecimal  [32-Bits]

Area                                    Addr        Size        Decimal Bytes (Attributes)
--------------------------------        ----        ----        ------- ----- ------------
_HEADERd                            00000000    00000002 =           2. bytes (ABS,CON)

      Value  Global                              Global Defined In Module
      -----  --------------------------------   ------------------------
ASxxxx Linker V03.00/V05.40 + sdld,  page 42.
Hexadecimal  [32-Bits]

Area                                    Addr        Size        Decimal Bytes (Attributes)
--------------------------------        ----        ----        ------- ----- ------------
_HEADERe                            00000000    00000001 =           1. bytes (ABS,CON)

      Value  Global                              Global Defined In Module
      -----  --------------------------------   ------------------------
ASxxxx Linker V03.00/V05.40 + sdld,  page 43.
Hexadecimal  [32-Bits]

Area                                    Addr        Size        Decimal Bytes (Attributes)
--------------------------------        ----        ----        ------- ----- ------------
_HEADERf                            00000000    00000001 =           1. bytes (ABS,CON)

      Value  Global                              Global Defined In Module
      -----  --------------------------------   ------------------------
ASxxxx Linker V03.00/V05.40 + sdld,  page 44.
Hexadecimal  [32-Bits]

Area                                    Addr        Size        Decimal Bytes (Attributes)
--------------------------------        ----        ----        ------- ----- ------------
_HEADER10                           00000000    00000002 =           2. bytes (ABS,CON)

      Value  Global                              Global Defined In Module
      -----  --------------------------------   ------------------------
ASxxxx Linker V03.00/V05.40 + sdld,  page 45.
Hexadecimal  [32-Bits]

Area                                    Addr        Size        Decimal Bytes (Attributes)
--------------------------------        ----        ----        ------- ----- ------------
_HEADER11                           00000000    000000AB =         171. bytes (ABS,CON)

      Value  Global                              Global Defined In Module
      -----  --------------------------------   ------------------------
     00000150  .reset                             Runtime
     00000150  _reset                             Runtime
     00000157  .code_start                        Runtime
     000001B9  _exit                              Runtime
     000001BD  .wait_vbl_done                     Runtime
     000001BD  _vsync                             Runtime
     000001BD  _wait_vbl_done                     Runtime
     000001CD  .remove_VBL                        Runtime
     000001CD  _remove_VBL                        Runtime
     000001D0  .remove_int                        Runtime
     000001ED  .add_VBL                           Runtime
     000001ED  _add_VBL                           Runtime
     000001F0  .add_int                           Runtime

ASxxxx Linker V03.00/V05.40 + sdld,  page 46.
Hexadecimal  [32-Bits]

Area                                    Addr        Size        Decimal Bytes (Attributes)
--------------------------------        ----        ----        ------- ----- ------------
_HOME                               000010CE    00002D53 =       11603. bytes (REL,CON)

      Value  Global                              Global Defined In Module
      -----  --------------------------------   ------------------------
     000010CE  .memset_simple                     Runtime
     000010D7  .memcpy_simple                     Runtime
     000010F4  .display_off                       Runtime
     000010F4  _display_off                       Runtime
     0000110C  _actors_update                     actor
     00001572  _SetBankedBkgData                  bankdata
     0000158E  _SetBankedSpriteData               bankdata
     000015AA  _SetBankedBkgTiles                 bankdata
     000015C6  _SetBankedWinTiles                 bankdata
     000015E2  _ReadBankedFarPtr                  bankdata
     00001604  _ReadBankedUWORD                   bankdata
     0000161E  _MemcpyBanked                      bankdata
     00001640  _MemcpyVRAMBanked                  bankdata
     0000166F  _IndexOfFarPtr                     bankdata
     000016F4  _camera_update                     camera
     00001827  _load_animations                   data_manager
     00001880  _events_update                     events
     00001953  _timers_update                     events
     000019DC  _input_update                      input
     000019FF  .sio_ISR                           
     00001A59  .timer_ISR                         
     00001A6E  _simple_LCD_isr                    interrupts
     00001AED  _fullscreen_LCD_isr                interrupts
     00001B19  _VBL_isr                           interrupts
     00001B63  _isqrt                             math
     00001BC0  _sine_wave                         math
     00001CC0  _dir_lookup                        math
     00001CC8  _dir_angle_lookup                  math
     00001CCC  _hUGETrackerRoutine                music_manager
     00001CF3  _music_events_update               music_manager
     00001D75  _music_play_isr                    music_manager
     00001E16  _parallax_LCD_isr                  parallax
     00001E53  _projectiles_update                projectiles
     000022D4  _projectiles_render                projectiles
     00002429  _scroll_load_pending_row           scroll
     000024AF  _scroll_load_row                   scroll
     00002524  _scroll_load_col                   scroll
     0000258D  _scroll_load_pending_col           scroll
     00002615  _set_bkg_submap                    
     00002658  _set_xy_win_submap                 
     00002685  .set_xy_win_submap                 
     0000268E  .set_xy_bkg_submap                 
     0000269D  .set_xy_submap                     
     000026E9  _sfx_play_isr                      sfx_player
     000027C2  _on_SIO_receive                    sio
     00002803  _SIO_update                        sio
     0000286A  _ui_update                         ui
     000029A2  _vm_sgb_transfer                   vm_sgb
     000029EF  _vm_load_text                      vm_ui
     00002C45  _vm_switch                         vm
ASxxxx Linker V03.00/V05.40 + sdld,  page 47.
Hexadecimal  [32-Bits]

Area                                    Addr        Size        Decimal Bytes (Attributes)
--------------------------------        ----        ----        ------- ----- ------------
_HOME                               000010CE    00002D53 =       11603. bytes (REL,CON)

      Value  Global                              Global Defined In Module
      -----  --------------------------------   ------------------------
     00002D76  _vm_beginthread                    vm
     00002E9A  _vm_rpn                            vm
     000038B2  _vm_get_far                        vm
     00003920  _vm_call_native                    vm
     00003933  _VM_STEP                           vm
     0000399D  _script_runner_update              vm
     00003B02  _fill_win_rect                     
     00003B14  _rand                              
     00003B14  _randw                             
     00003B3F  _initrand                          
     00003B41  .initrand                          
     00003B4A  _get_bkg_data                      
     00003B4A  _get_win_data                      
     00003B97  _get_sprite_data                   
     00003BCA  _abs                               abs
     00003BD7  _set_win_tiles                     
     00003BEB  _set_tile_data                     
     00003BF0  _set_bkg_data                      
     00003BF0  _set_win_data                      
     00003BF8  _set_sprite_data                   
     00003C28  _reverse                           reverse
     00003C5C  ___call__banked                    far_ptr
     00003C79  _to_far_ptr                        far_ptr
     00003CAF  .add_LCD                           
     00003CAF  _add_LCD                           
     00003CB5  .remove_LCD                        
     00003CB5  _remove_LCD                        
     00003CBB  .fill_rect_wtt                     
     00003CC4  .fill_rect_btt                     
     00003D11  _fill_bkg_rect                     
     00003D23  .padup                             
     00003D23  _waitpadup                         
     00003D33  .jpad                              
     00003D33  _joypad                            
     00003D5B  _waitpad                           
     00003D5C  .wait_pad                          
     00003D63  ___sdcc_call_hl                    call_hl
     00003D64  _memset                            memset
     00003D97  .set_xy_wtt                        SetTileMap
     00003DA0  .set_xy_btt                        SetTileMap
     00003DAF  .set_xy_tt                         SetTileMap
     00003DF3  ___sdcc_bcall_ehl                  
     00003E0D  _set_bkg_tiles                     
ASxxxx Linker V03.00/V05.40 + sdld,  page 48.
Hexadecimal  [32-Bits]

Area                                    Addr        Size        Decimal Bytes (Attributes)
--------------------------------        ----        ----        ------- ----- ------------
_INITIALIZER                        00003E21    00000019 =          25. bytes (REL,CON)

      Value  Global                              Global Defined In Module
      -----  --------------------------------   ------------------------
ASxxxx Linker V03.00/V05.40 + sdld,  page 49.
Hexadecimal  [32-Bits]

Area                                    Addr        Size        Decimal Bytes (Attributes)
--------------------------------        ----        ----        ------- ----- ------------
_GSINIT                             00003E3A    00000027 =          39. bytes (REL,CON)

      Value  Global                              Global Defined In Module
      -----  --------------------------------   ------------------------
     00003E3A  gsinit                             Runtime

ASxxxx Linker V03.00/V05.40 + sdld,  page 50.
Hexadecimal  [32-Bits]

Area                                    Addr        Size        Decimal Bytes (Attributes)
--------------------------------        ----        ----        ------- ----- ------------
_GSFINAL                            00003E61    00000001 =           1. bytes (REL,CON)

      Value  Global                              Global Defined In Module
      -----  --------------------------------   ------------------------
ASxxxx Linker V03.00/V05.40 + sdld,  page 51.
Hexadecimal  [32-Bits]

Area                                    Addr        Size        Decimal Bytes (Attributes)
--------------------------------        ----        ----        ------- ----- ------------
_DATA                               0000C0A0    00001971 =        6513. bytes (REL,CON)

      Value  Global                              Global Defined In Module
      -----  --------------------------------   ------------------------
     0000C0A0  __cpu                              Runtime
     0000C0A1  __is_GBA                           Runtime
     0000C0A2  .mode                              Runtime
     0000C0A3  .sys_time                          Runtime
     0000C0A3  _sys_time                          Runtime
     0000C0A5  .int_0x40                          Runtime
     0000C0B1  _actors                            actor
     0000C4F5  _actors_active_head                actor
     0000C4F7  _actors_active_tail                actor
     0000C4F9  _actors_inactive_head              actor
     0000C4FB  _screen_x                          actor
     0000C4FC  _screen_y                          actor
     0000C4FD  _invalid                           actor
     0000C4FF  _player_moving                     actor
     0000C500  _player_iframes                    actor
     0000C501  _player_collision_actor            actor
     0000C503  _emote_actor                       actor
     0000C505  _emote_timer                       actor
     0000C506  _allocated_sprite_tiles            actor
     0000C507  _allocated_hardware_sprites        actor
     0000C514  _camera_x                          camera
     0000C516  _camera_y                          camera
     0000C518  _camera_offset_x                   camera
     0000C519  _camera_offset_y                   camera
     0000C51A  _camera_deadzone_x                 camera
     0000C51B  _camera_deadzone_y                 camera
     0000C51C  _camera_settings                   camera
     0000C520  _current_scene                     data_manager
     0000C523  _image_bank                        data_manager
     0000C524  _image_ptr                         data_manager
     0000C526  _image_attr_bank                   data_manager
     0000C527  _image_attr_ptr                    data_manager
     0000C529  _collision_bank                    data_manager
     0000C52A  _collision_ptr                     data_manager
     0000C52C  _image_tile_width                  data_manager
     0000C52D  _image_tile_height                 data_manager
     0000C52E  _image_width                       data_manager
     0000C530  _image_height                      data_manager
     0000C532  _sprites_len                       data_manager
     0000C533  _actors_len                        data_manager
     0000C534  _projectiles_len                   data_manager
     0000C535  _player_sprite_len                 data_manager
     0000C536  _scene_type                        data_manager
     0000C537  _scene_LCD_type                    data_manager
     0000C538  _scene_stack                       data_manager
     0000C578  _scene_stack_ptr                   data_manager
     0000C57A  _scene_sprites_base_tiles          data_manager
     0000C5BA  _input_events                      events
     0000C5E2  _input_slots                       events
     0000C5EA  _timer_events                      events
ASxxxx Linker V03.00/V05.40 + sdld,  page 52.
Hexadecimal  [32-Bits]

Area                                    Addr        Size        Decimal Bytes (Attributes)
--------------------------------        ----        ----        ------- ----- ------------
_DATA                               0000C0A0    00001971 =        6513. bytes (REL,CON)

      Value  Global                              Global Defined In Module
      -----  --------------------------------   ------------------------
     0000C5FE  _timer_values                      events
     0000C606  _fade_running                      fade_manager
     0000C607  _fade_frames_per_step              fade_manager
     0000C608  _fade_timer                        fade_manager
     0000C610  _joypads                           input
     0000C615  _frame_joy                         input
     0000C616  _last_joy                          input
     0000C617  _recent_joy                        input
     0000C618  _SIO_status                        
     0000C619  _link_byte_sent                    
     0000C61A  _link_next_mode                    
     0000C61B  _save_blob_size                    load_save
     0000C61D  _routine_queue                     music_manager
     0000C621  _routine_queue_head                music_manager
     0000C622  _routine_queue_tail                music_manager
     0000C623  _music_events                      music_manager
     0000C637  _music_current_track_bank          music_manager
     0000C638  _music_mute_mask                   music_manager
     0000C639  _music_effective_mute              music_manager
     0000C63A  _music_next_track                  music_manager
     0000C63C  _music_current_track               music_manager
     0000C63E  _music_play_isr_counter            music_manager
     0000C63F  _music_play_isr_pause              music_manager
     0000C640  _music_global_mute_mask            music_manager
     0000C641  _music_sfx_priority                music_manager
     0000C642  _DMG_palette                       palette
     0000C645  _SprPalette                        palette
     0000C685  _parallax_rows                     parallax
     0000C697  _parallax_row                      parallax
     0000C699  _projectiles                       projectiles
     0000C752  _projectile_defs                   projectiles
     0000C7C5  _projectiles_active_head           projectiles
     0000C7C7  _projectiles_inactive_head         projectiles
     0000C7CE  _scroll_x                          scroll
     0000C7D0  _scroll_y                          scroll
     0000C7D2  _draw_scroll_x                     scroll
     0000C7D4  _draw_scroll_y                     scroll
     0000C7D6  _scroll_x_max                      scroll
     0000C7D8  _scroll_y_max                      scroll
     0000C7DA  _scroll_offset_x                   scroll
     0000C7DB  _scroll_offset_y                   scroll
     0000C7DC  _pending_h_x                       scroll
     0000C7DD  _pending_h_y                       scroll
     0000C7DE  _pending_h_i                       scroll
     0000C7DF  _pending_w_x                       scroll
     0000C7E0  _pending_w_y                       scroll
     0000C7E1  _pending_w_i                       scroll
     0000C7E2  _current_row                       scroll
     0000C7E4  _new_row                           scroll
     0000C7E6  _current_col                       scroll
     0000C7E8  _new_col                           scroll
ASxxxx Linker V03.00/V05.40 + sdld,  page 53.
Hexadecimal  [32-Bits]

Area                                    Addr        Size        Decimal Bytes (Attributes)
--------------------------------        ----        ----        ------- ----- ------------
_DATA                               0000C0A0    00001971 =        6513. bytes (REL,CON)

      Value  Global                              Global Defined In Module
      -----  --------------------------------   ------------------------
     0000C7EA  .image_tile_width                  
     0000C7EB  _sfx_play_bank                     sfx_player
     0000C7EC  _sfx_play_sample                   sfx_player
     0000C7EE  _sfx_frame_skip                    sfx_player
     0000C7EF  _link_operation_mode               sio
     0000C7F0  _link_packet                       sio
     0000C810  _link_packet_len                   sio
     0000C811  _link_packet_ptr                   sio
     0000C813  _link_packet_received              sio
     0000C814  _link_packet_snd_len               sio
     0000C815  _link_packet_snd_ptr               sio
     0000C817  _link_packet_sent                  sio
     0000C818  __is_CGB                           system
     0000C819  __is_SGB                           system
     0000C81A  __current_ram_bank                 system
     0000C81B  _triggers                          trigger
     0000C913  _last_trigger_tx                   trigger
     0000C914  _last_trigger_ty                   trigger
     0000C915  _last_trigger                      trigger
     0000C916  _win_pos_x                         ui
     0000C917  _win_dest_pos_x                    ui
     0000C918  _win_pos_y                         ui
     0000C919  _win_dest_pos_y                    ui
     0000C91A  _win_speed                         ui
     0000C91B  _text_drawn                        ui
     0000C91C  _current_text_speed                ui
     0000C91D  _text_options                      ui
     0000C91E  _text_in_speed                     ui
     0000C91F  _text_out_speed                    ui
     0000C920  _text_draw_speed                   ui
     0000C921  _text_ff_joypad                    ui
     0000C922  _text_ff                           ui
     0000C923  _text_bkg_fill                     ui
     0000C924  _ui_text_data                      ui
     0000CA2E  _vwf_current_mask                  ui
     0000CA2F  _vwf_current_rotate                ui
     0000CA30  _vwf_inverse_map                   ui
     0000CA31  _vwf_direction                     ui
     0000CA32  _vwf_current_font_desc             ui
     0000CA3A  _vwf_current_font_bank             ui
     0000CA3B  _vwf_current_font_idx              ui
     0000CA3C  _text_render_base_addr             ui
     0000CA3E  _text_scroll_addr                  ui
     0000CA40  _text_scroll_width                 ui
     0000CA41  _text_scroll_height                ui
     0000CA42  _text_scroll_fill                  ui
     0000CA43  _text_sound_mask                   ui
     0000CA44  _text_sound_bank                   ui
     0000CA45  _text_sound_data                   ui
     0000CA47  _overlay_priority                  ui
     0000CA48  _text_palette                      ui
ASxxxx Linker V03.00/V05.40 + sdld,  page 54.
Hexadecimal  [32-Bits]

Area                                    Addr        Size        Decimal Bytes (Attributes)
--------------------------------        ----        ----        ------- ----- ------------
_DATA                               0000C0A0    00001971 =        6513. bytes (REL,CON)

      Value  Global                              Global Defined In Module
      -----  --------------------------------   ------------------------
     0000CA4F  __itoa_fmt_len                     vm_ui_a
     0000CA50  .itoa_fmt_buf                      vm_ui_a
     0000CA53  _CTXS                              vm
     0000CB83  _first_ctx                         vm
     0000CB85  _free_ctxs                         vm
     0000CB87  _old_executing_ctx                 vm
     0000CB89  _executing_ctx                     vm
     0000CB8B  _vm_lock_state                     vm
     0000CB8C  _vm_loaded_state                   vm
     0000CB8D  _vm_exception_code                 vm
     0000CB8E  _vm_exception_params_length        vm
     0000CB8F  _vm_exception_params_bank          vm
     0000CB90  _vm_exception_params_offset        vm
     0000CB94  _script_memory                     vm
     0000D99A  _topdown_grid                      topdown
     0000D99B  ___rand_seed                       
     0000D9B9  _hUGE_current_wave                 hUGEDriver_obj
     0000D9B9  hUGE_current_wave                  hUGEDriver_obj
     0000D9BA  _hUGE_mute_mask                    hUGEDriver_obj
     0000DA01  ___call_banked_addr                far_ptr
     0000DA01  ___call_banked_ptr                 far_ptr
     0000DA03  ___call_banked_bank                far_ptr
     0000DA05  .int_0x48                          
     0000DA0D  ___current_metasprite              Metasprites
     0000DA0F  ___current_base_tile               Metasprites
     0000DA10  ___current_base_prop               Metasprites

ASxxxx Linker V03.00/V05.40 + sdld,  page 55.
Hexadecimal  [32-Bits]

Area                                    Addr        Size        Decimal Bytes (Attributes)
--------------------------------        ----        ----        ------- ----- ------------
_INITIALIZED                        0000DA11    00000019 =          25. bytes (REL,CON)

      Value  Global                              Global Defined In Module
      -----  --------------------------------   ------------------------
     0000DA11  _fade_style                        fade_manager
     0000DA12  _game_time                         game_time
     0000DA13  _PRN_PKT_START                     gbprinter
     0000DA21  _hide_sprites                      interrupts
     0000DA22  _show_actors_on_overlay            interrupts
     0000DA23  _overlay_cut_scanline              interrupts
     0000DA24  __submap_tile_offset               
     0000DA25  _triggers_len                      trigger
     0000DA26  _exchange_state                    vm_sio
     0000DA27  _last_hit_trigger                  pointnclick
     0000DA28  ___render_shadow_OAM               Metasprites
     0000DA29  __map_tile_offset                  SetTileMap
ASxxxx Linker V03.00/V05.40 + sdld,  page 56.
Hexadecimal  [32-Bits]

Area                                    Addr        Size        Decimal Bytes (Attributes)
--------------------------------        ----        ----        ------- ----- ------------
_HRAM12                             00000000    00000003 =           3. bytes (ABS,CON)

      Value  Global                              Global Defined In Module
      -----  --------------------------------   ------------------------
     0000FF90  __current_bank                     Runtime
     0000FF92  __shadow_OAM_base                  Runtime

ASxxxx Linker V03.00/V05.40 + sdld,  page 57.
Hexadecimal  [32-Bits]

Area                                    Addr        Size        Decimal Bytes (Attributes)
--------------------------------        ----        ----        ------- ----- ------------
_CODE_10                            000A4000    00003FFE =       16382. bytes (REL,CON)

      Value  Global                              Global Defined In Module
      -----  --------------------------------   ------------------------
     000A4000  ___func_ACTOR                      actor
     000A4000  _actors_init                       actor
     000A403A  _emote_offsets                     actor
     000A4049  _emote_metasprite                  actor
     000A4055  _player_init                       actor
     000A407B  _deactivate_actor                  actor
     000A41DC  _activate_actor                    actor
     000A431B  _activate_actors_in_row            actor
     000A4412  _activate_actors_in_col            actor
     000A4563  _actor_set_frames                  actor
     000A45B9  _actor_set_frame_offset            actor
     000A45F4  _actor_get_frame_offset            actor
     000A4606  _actor_set_anim_idle               actor
     000A4634  _actor_set_anim_moving             actor
     000A4665  _actor_set_dir                     actor
     000A46CA  _actor_at_tile                     actor
     000A479E  _actor_in_front_of_player          actor
     000A4852  _actor_overlapping_player          actor
     000A4A61  _actor_overlapping_bb              actor
     000A4CDF  _actors_handle_player_collision    actor
     000A4D6B  _check_collision_in_direction      actor
     000A5589  _projectiles_init                  projectiles
     000A55B8  _projectile_launch                 projectiles
     000A59B2  ___func_VM_ACTOR                   vm_actor
     000A59B2  _vm_actor_move_to                  vm_actor
     000A63F8  _vm_actor_move_cancel              vm_actor
     000A642E  _vm_actor_activate                 vm_actor
     000A647F  _vm_actor_deactivate               vm_actor
     000A64D0  _vm_actor_begin_update             vm_actor
     000A6557  _vm_actor_terminate_update         vm_actor
     000A659E  _vm_actor_set_dir                  vm_actor
     000A65E7  _vm_actor_set_anim                 vm_actor
     000A6675  _vm_actor_set_pos                  vm_actor
     000A66EF  _vm_actor_get_pos                  vm_actor
     000A675E  _vm_actor_get_dir                  vm_actor
     000A67D8  _vm_actor_get_angle                vm_actor
     000A6859  _vm_actor_emote                    vm_actor
     000A691D  _vm_actor_set_bounds               vm_actor
     000A697B  _vm_actor_set_spritesheet          vm_actor
     000A6A45  _vm_actor_replace_tile             vm_actor
     000A6AB0  _vm_actor_set_anim_tick            vm_actor
     000A6AEE  _vm_actor_set_move_speed           vm_actor
     000A6B2C  _vm_actor_set_anim_frame           vm_actor
     000A6B70  _vm_actor_get_anim_frame           vm_actor
     000A6BBA  _vm_actor_set_anim_set             vm_actor
     000A6C42  _vm_actor_set_spritesheet_by_ref   vm_actor
     000A6D4F  _vm_actor_set_flags                vm_actor
     000A6DFD  ___func_bg_black_copie_tileset     bg_black_copie_tileset
     000A6DFD  _bg_black_copie_tileset            bg_black_copie_tileset
     000A7FE6  _song_emptytown_Data               song_emptytown_Data
ASxxxx Linker V03.00/V05.40 + sdld,  page 58.
Hexadecimal  [32-Bits]

Area                                    Addr        Size        Decimal Bytes (Attributes)
--------------------------------        ----        ----        ------- ----- ------------
_CODE_10                            000A4000    00003FFE =       16382. bytes (REL,CON)

      Value  Global                              Global Defined In Module
      -----  --------------------------------   ------------------------
     000A7FFB  ___func_scene_21_sprites           scene_21_sprites
     000A7FFB  _scene_21_sprites                  scene_21_sprites

ASxxxx Linker V03.00/V05.40 + sdld,  page 59.
Hexadecimal  [32-Bits]

Area                                    Addr        Size        Decimal Bytes (Attributes)
--------------------------------        ----        ----        ------- ----- ------------
_CODE_20                            00144000    00003FFF =       16383. bytes (REL,CON)

      Value  Global                              Global Defined In Module
      -----  --------------------------------   ------------------------
     00144000  _bootstrap_script                  
     0014400B  _scroll_init                       scroll
     00144035  _scroll_reset                      scroll
     00144055  _scroll_update                     scroll
     0014418C  _scroll_viewport                   scroll
     00144625  _scroll_repaint                    scroll
     00144635  _scroll_render_rows                scroll
     001446CB  _scroll_queue_row                  scroll
     001446ED  _scroll_queue_col                  scroll
     00144738  _trigger_reset                     trigger
     00144748  _trigger_interact                  trigger
     00144787  _trigger_activate_at               trigger
     001447D2  _trigger_at_intersection           trigger
     001448F9  _trigger_activate_at_intersectio   trigger
     00144A3A  _trigger_at_tile                   trigger
     00144ACB  ___func_VM_GAMEBOY                 vm_gameboy
     00144ACB  _vm_set_sprites_visible            vm_gameboy
     00144AE2  _vm_input_wait                     vm_gameboy
     00144B0B  _vm_context_prepare                vm_gameboy
     00144B36  _vm_input_attach                   vm_gameboy
     00144B4C  _vm_input_detach                   vm_gameboy
     00144B60  _vm_input_get                      vm_gameboy
     00144B94  _vm_fade                           vm_gameboy
     00144BC4  _vm_timer_prepare                  vm_gameboy
     00144BEF  _vm_timer_set                      vm_gameboy
     00144C0A  _vm_timer_stop                     vm_gameboy
     00144C1E  _vm_timer_reset                    vm_gameboy
     00144C35  _vm_get_tile_xy                    vm_gameboy
     00144D0B  _vm_replace_tile                   vm_gameboy
     00144DB6  _vm_poll                           vm_gameboy
     00144E88  _vm_set_sprite_mode                vm_gameboy
     00144E9C  _vm_replace_tile_xy                vm_gameboy
     0014507C  _vm_rumble                         vm_gameboy
     0014509C  _vm_load_tileset                   vm_gameboy
     0014516D  ___func_bg_3_tileset               bg_3_tileset
     0014516D  _bg_3_tileset                      bg_3_tileset
     0014580F  ___func_bg_8_tileset               bg_8_tileset
     0014580F  _bg_8_tileset                      bg_8_tileset
     00145E71  ___func_bg_dogchecksavedata_copi   bg_dogchecksavedata_copie_ti
     00145E71  _bg_dogchecksavedata_copie_tiles   bg_dogchecksavedata_copie_ti
     00146513  ___func_bg_legend6d_tileset        bg_legend6d_tileset
     00146513  _bg_legend6d_tileset               bg_legend6d_tileset
     00146C05  ___func_bg_toilet_tileset          bg_toilet_tileset
     00146C05  _bg_toilet_tileset                 bg_toilet_tileset
     00147267  _scene_29_init                     scene_29_init
     0014726A  GBVM$scene_29_init$8389a19e_c234   scene_29_init
     0014726E  GBVM$scene_29_init$a63a9ce7_e534   scene_29_init
     00147273  GBVM$scene_29_init$ab39a9b7_3645   scene_29_init
     00147278  GBVM$scene_29_init$568efb33_0d24   scene_29_init
     0014727D  GBVM$scene_29_init$8e88915e_340b   scene_29_init
ASxxxx Linker V03.00/V05.40 + sdld,  page 60.
Hexadecimal  [32-Bits]

Area                                    Addr        Size        Decimal Bytes (Attributes)
--------------------------------        ----        ----        ------- ----- ------------
_CODE_20                            00144000    00003FFF =       16383. bytes (REL,CON)

      Value  Global                              Global Defined In Module
      -----  --------------------------------   ------------------------
     00147282  GBVM$scene_29_init$fddef711_1958   scene_29_init
     00147287  GBVM$scene_29_init$e7670cf3_e15c   scene_29_init
     0014728E  GBVM$scene_29_init$autofade$cef5   scene_29_init
     00147299  GBVM$scene_29_init$a85ef752_93df   scene_29_init
     001472AB  GBVM$scene_29_init$8ff174f9_8b1c   scene_29_init
     0014732D  GBVM$scene_29_init$13a3ba1b_f681   scene_29_init
     00147336  GBVM$scene_29_init$e8bc69b4_1995   scene_29_init
     00147348  GBVM$scene_29_init$9635b77a_e077   scene_29_init
     0014735A  GBVM$scene_29_init$744e8ae1_989e   scene_29_init
     0014739D  GBVM$scene_29_init$0cef9680_18a8   scene_29_init
     001473F2  GBVM$scene_29_init$44aeb7a0_9cae   scene_29_init
     00147404  GBVM$scene_29_init$0a620ca5_a251   scene_29_init
     00147416  GBVM$scene_29_init$4d303a3f_34a1   scene_29_init
     001474D8  GBVM$scene_29_init$bd7dcda0_aa74   scene_29_init
     001474DD  GBVM$scene_29_init$6515c17d_f67a   scene_29_init
     001474EC  GBVM$scene_29_init$12c6f729_b46e   scene_29_init
     00147566  GBVM$scene_29_init$6efe891e_125d   scene_29_init
     0014756B  GBVM$scene_29_init$c3e6e179_6450   scene_29_init
     00147577  GBVM_END$scene_29_init$0a620ca5_   scene_29_init
     0014757A  GBVM$scene_29_init$c26c0d1d_47a7   scene_29_init
     0014765D  GBVM_END$scene_29_init$44aeb7a0_   scene_29_init
     0014765D  GBVM_END$scene_29_init$9635b77a_   scene_29_init
     00147660  GBVM$scene_29_init$5fec33ee_dfd4   scene_29_init
     00147699  GBVM$scene_29_init$3026e07a_a94e   scene_29_init
     001476AD  GBVM$scene_29_init$3271a359_3516   scene_29_init
     001476AD  GBVM_END$scene_29_init$e8bc69b4_   scene_29_init
     001476C2  GBVM$scene_29_init$ee2359e9_a62c   scene_29_init
     001476CD  GBVM$scene_29_init$b2cd9c50_45ee   scene_29_init
     001476CD  GBVM_END$scene_29_init$3271a359_   scene_29_init
     00147707  GBVM$scene_29_init$b1fc49db_9e43   scene_29_init
     00147719  GBVM$scene_29_init$9618f7e0_10a0   scene_29_init
     00147728  GBVM$scene_29_init$fa94dd69_c901   scene_29_init
     0014775C  GBVM$scene_29_init$fb48a1b8_7da4   scene_29_init
     0014775C  GBVM_END$scene_29_init$b1fc49db_   scene_29_init
     0014776E  GBVM$scene_29_init$61e36eee_e2eb   scene_29_init
     001477B4  GBVM$scene_29_init$4f873919_e476   scene_29_init
     001477C8  GBVM$scene_29_init$aace9abe_ad64   scene_29_init
     001477D4  GBVM$scene_29_init$a7692eb0_b392   scene_29_init
     00147806  GBVM_END$scene_29_init$aace9abe_   scene_29_init
     00147809  GBVM$scene_29_init$35922b8d_5ec3   scene_29_init
     00147843  GBVM$scene_29_init$f1f3a1ea_87b6   scene_29_init
     00147848  GBVM_END$scene_29_init$fb48a1b8_   scene_29_init
     0014784B  GBVM$scene_29_init$e7515b96_9715   scene_29_init
     0014785D  GBVM$scene_29_init$d55972cf_bd27   scene_29_init
     001478C6  GBVM$scene_29_init$adee88d5_8047   scene_29_init
     001478F5  GBVM$scene_29_init$94cd4a60_e84f   scene_29_init
     001478FA  GBVM_END$scene_29_init$13a3ba1b_   scene_29_init
     001478FA  GBVM_END$scene_29_init$e7515b96_   scene_29_init
     001478FD  GBVM$scene_29_init$2a0b4e15_bdf2   scene_29_init
     001478FD  GBVM_END$scene_29_init$a85ef752_   scene_29_init
     00147902  GBVM$scene_29_init$9d5d7e3c_d06e   scene_29_init
ASxxxx Linker V03.00/V05.40 + sdld,  page 61.
Hexadecimal  [32-Bits]

Area                                    Addr        Size        Decimal Bytes (Attributes)
--------------------------------        ----        ----        ------- ----- ------------
_CODE_20                            00144000    00003FFF =       16383. bytes (REL,CON)

      Value  Global                              Global Defined In Module
      -----  --------------------------------   ------------------------
     00147906  GBVM$scene_29_init$d548e3bf_accd   scene_29_init
     00147939  _topdown_init                      topdown
     001479D5  _topdown_update                    topdown

ASxxxx Linker V03.00/V05.40 + sdld,  page 62.
Hexadecimal  [32-Bits]

Area                                    Addr        Size        Decimal Bytes (Attributes)
--------------------------------        ----        ----        ------- ----- ------------
_CODE_32                            00204000    00002B07 =       11015. bytes (REL,CON)

      Value  Global                              Global Defined In Module
      -----  --------------------------------   ------------------------
     00204000  _camera_init                       camera
     00204026  _input_init                        input
     0020404C  _parallax_init                     parallax
     0020406C  _scroll_rect                       
     002040A9  _SIO_init                          sio
     002040D2  _actor_10_interact                 actor_10_interact
     002040D3  GBVM$actor_10_interact$f0972d05_   actor_10_interact
     00204107  _actor_15_interact                 actor_15_interact
     00204108  GBVM$actor_15_interact$69da5f63_   actor_15_interact
     00204140  _actor_16_interact                 actor_16_interact
     00204141  GBVM$actor_16_interact$b1ddd598_   actor_16_interact
     00204179  _actor_52_interact                 actor_52_interact
     0020417A  GBVM$actor_52_interact$2eac5d4f_   actor_52_interact
     002041A3  _actor_58_interact                 actor_58_interact
     002041A4  GBVM$actor_58_interact$ca1a88c9_   actor_58_interact
     002041E0  _actor_9_interact                  actor_9_interact
     002041E1  GBVM$actor_9_interact$ed26ff28_e   actor_9_interact
     00204215  ___func_bg_3                       bg_3
     00204215  _bg_3                              bg_3
     00204223  ___func_bg_4                       bg_4
     00204223  _bg_4                              bg_4
     00204231  ___func_bg_5                       bg_5
     00204231  _bg_5                              bg_5
     0020423F  ___func_bg_6_1__tileset            bg_6_1__tileset
     0020423F  _bg_6_1__tileset                   bg_6_1__tileset
     00204271  ___func_bg_6_1_                    bg_6_1_
     00204271  _bg_6_1_                           bg_6_1_
     0020427F  ___func_bg_6                       bg_6
     0020427F  _bg_6                              bg_6
     0020428D  ___func_bg_7                       bg_7
     0020428D  _bg_7                              bg_7
     0020429B  ___func_bg_8                       bg_8
     0020429B  _bg_8                              bg_8
     002042A9  ___func_bg_9_1__tileset            bg_9_1__tileset
     002042A9  _bg_9_1__tileset                   bg_9_1__tileset
     002042DB  ___func_bg_9_1_                    bg_9_1_
     002042DB  _bg_9_1_                           bg_9_1_
     002042E9  ___func_bg_9                       bg_9
     002042E9  _bg_9                              bg_9
     002042F7  ___func_bg_b0027_copie             bg_b0027_copie
     002042F7  _bg_b0027_copie                    bg_b0027_copie
     00204305  ___func_bg_black_copie             bg_black_copie
     00204305  _bg_black_copie                    bg_black_copie
     00204313  ___func_bg_black_tileset           bg_black_tileset
     00204313  _bg_black_tileset                  bg_black_tileset
     00204325  ___func_bg_black                   bg_black
     00204325  _bg_black                          bg_black
     00204333  ___func_bg_blackdoor               bg_blackdoor
     00204333  _bg_blackdoor                      bg_blackdoor
     00204341  ___func_bg_castle_town_map2        bg_castle_town_map2
ASxxxx Linker V03.00/V05.40 + sdld,  page 63.
Hexadecimal  [32-Bits]

Area                                    Addr        Size        Decimal Bytes (Attributes)
--------------------------------        ----        ----        ------- ----- ------------
_CODE_32                            00204000    00002B07 =       11015. bytes (REL,CON)

      Value  Global                              Global Defined In Module
      -----  --------------------------------   ------------------------
     00204341  _bg_castle_town_map2               bg_castle_town_map2
     0020434F  ___func_bg_castle_town             bg_castle_town
     0020434F  _bg_castle_town                    bg_castle_town
     0020435D  ___func_bg_chamberkriso2           bg_chamberkriso2
     0020435D  _bg_chamberkriso2                  bg_chamberkriso2
     0020436B  ___func_bg_city1                   bg_city1
     0020436B  _bg_city1                          bg_city1
     00204379  ___func_bg_city2                   bg_city2
     00204379  _bg_city2                          bg_city2
     00204387  ___func_bg_dogchecksavedata_copi   bg_dogchecksavedata_copie_0
     00204387  _bg_dogchecksavedata_copie_0       bg_dogchecksavedata_copie_0
     00204395  ___func_bg_dogchecksavedata_copi   bg_dogchecksavedata_copie
     00204395  _bg_dogchecksavedata_copie         bg_dogchecksavedata_copie
     002043A3  ___func_bg_dogchecksavedata        bg_dogchecksavedata
     002043A3  _bg_dogchecksavedata               bg_dogchecksavedata
     002043B1  ___func_bg_exterior                bg_exterior
     002043B1  _bg_exterior                       bg_exterior
     002043BF  ___func_bg_fountaincastle          bg_fountaincastle
     002043BF  _bg_fountaincastle                 bg_fountaincastle
     002043CD  ___func_bg_gameover                bg_gameover
     002043CD  _bg_gameover                       bg_gameover
     002043DB  ___func_bg_kris_s                  bg_kris_s
     002043DB  _bg_kris_s                         bg_kris_s
     002043E9  ___func_bg_kris_ss                 bg_kris_ss
     002043E9  _bg_kris_ss                        bg_kris_ss
     002043F7  ___func_bg_krislegend              bg_krislegend
     002043F7  _bg_krislegend                     bg_krislegend
     00204405  ___func_bg_legend1d                bg_legend1d
     00204405  _bg_legend1d                       bg_legend1d
     00204413  ___func_bg_legend2                 bg_legend2
     00204413  _bg_legend2                        bg_legend2
     00204421  ___func_bg_legend3                 bg_legend3
     00204421  _bg_legend3                        bg_legend3
     0020442F  ___func_bg_legend4                 bg_legend4
     0020442F  _bg_legend4                        bg_legend4
     0020443D  ___func_bg_legend5d                bg_legend5d
     0020443D  _bg_legend5d                       bg_legend5d
     0020444B  ___func_bg_legend6d                bg_legend6d
     0020444B  _bg_legend6d                       bg_legend6d
     00204459  ___func_bg_legend7f                bg_legend7f
     00204459  _bg_legend7f                       bg_legend7f
     00204467  ___func_bg_legendsealfountain      bg_legendsealfountain
     00204467  _bg_legendsealfountain             bg_legendsealfountain
     00204475  ___func_bg_name_input_background   bg_name_input_background
     00204475  _bg_name_input_background          bg_name_input_background
     00204483  ___func_bg_new_piskel_43_          bg_new_piskel_43_
     00204483  _bg_new_piskel_43_                 bg_new_piskel_43_
     00204491  ___func_bg_quelesttonnom_copie     bg_quelesttonnom_copie
     00204491  _bg_quelesttonnom_copie            bg_quelesttonnom_copie
     0020449F  ___func_bg_quelesttonnom           bg_quelesttonnom
     0020449F  _bg_quelesttonnom                  bg_quelesttonnom
ASxxxx Linker V03.00/V05.40 + sdld,  page 64.
Hexadecimal  [32-Bits]

Area                                    Addr        Size        Decimal Bytes (Attributes)
--------------------------------        ----        ----        ------- ----- ------------
_CODE_32                            00204000    00002B07 =       11015. bytes (REL,CON)

      Value  Global                              Global Defined In Module
      -----  --------------------------------   ------------------------
     002044AD  ___func_bg_ralseilegend            bg_ralseilegend
     002044AD  _bg_ralseilegend                   bg_ralseilegend
     002044BB  ___func_bg_room                    bg_room
     002044BB  _bg_room                           bg_room
     002044C9  ___func_bg_schoolcorridor1         bg_schoolcorridor1
     002044C9  _bg_schoolcorridor1                bg_schoolcorridor1
     002044D7  ___func_bg_schoolext               bg_schoolext
     002044D7  _bg_schoolext                      bg_schoolext
     002044E5  ___func_bg_schoolint               bg_schoolint
     002044E5  _bg_schoolint                      bg_schoolint
     002044F3  ___func_bg_secoundfountain         bg_secoundfountain
     002044F3  _bg_secoundfountain                bg_secoundfountain
     00204501  ___func_bg_susielegend             bg_susielegend
     00204501  _bg_susielegend                    bg_susielegend
     0020450F  ___func_bg_the_castle_copie        bg_the_castle_copie
     0020450F  _bg_the_castle_copie               bg_the_castle_copie
     0020451D  ___func_bg_thetle                  bg_thetle
     0020451D  _bg_thetle                         bg_thetle
     0020452B  ___func_bg_title                   bg_title
     0020452B  _bg_title                          bg_title
     00204539  ___func_bg_toilet                  bg_toilet
     00204539  _bg_toilet                         bg_toilet
     00204547  ___func_bg_toilet2                 bg_toilet2
     00204547  _bg_toilet2                        bg_toilet2
     00204555  ___func_bg_untitled                bg_untitled
     00204555  _bg_untitled                       bg_untitled
     00204563  ___func_bg_worldddd                bg_worldddd
     00204563  _bg_worldddd                       bg_worldddd
     00204571  ___func_bg_worldddddark            bg_worldddddark
     00204571  _bg_worldddddark                   bg_worldddddark
     0020457F  ___func_cursor_image               cursor_image
     0020457F  _cursor_image                      cursor_image
     0020458F  ___func_emote_shock                emote_shock
     0020458F  _emote_shock                       emote_shock
     002045CF  ___func_palette_54                 palette_54
     002045CF  _palette_54                        palette_54
     00204612  ___func_palette_55                 palette_55
     00204612  _palette_55                        palette_55
     00204655  ___func_palette_56                 palette_56
     00204655  _palette_56                        palette_56
     00204698  ___func_palette_57                 palette_57
     00204698  _palette_57                        palette_57
     002046DB  ___func_palette_58                 palette_58
     002046DB  _palette_58                        palette_58
     0020471E  ___func_palette_59                 palette_59
     0020471E  _palette_59                        palette_59
     00204761  ___func_palette_6                  palette_6
     00204761  _palette_6                         palette_6
     002047A4  ___func_palette_60                 palette_60
     002047A4  _palette_60                        palette_60
     002047E7  ___func_palette_61                 palette_61
ASxxxx Linker V03.00/V05.40 + sdld,  page 65.
Hexadecimal  [32-Bits]

Area                                    Addr        Size        Decimal Bytes (Attributes)
--------------------------------        ----        ----        ------- ----- ------------
_CODE_32                            00204000    00002B07 =       11015. bytes (REL,CON)

      Value  Global                              Global Defined In Module
      -----  --------------------------------   ------------------------
     002047E7  _palette_61                        palette_61
     0020482A  ___func_palette_62                 palette_62
     0020482A  _palette_62                        palette_62
     0020486D  ___func_palette_63                 palette_63
     0020486D  _palette_63                        palette_63
     002048B0  ___func_palette_7                  palette_7
     002048B0  _palette_7                         palette_7
     002048F3  ___func_palette_8                  palette_8
     002048F3  _palette_8                         palette_8
     00204936  ___func_palette_9                  palette_9
     00204936  _palette_9                         palette_9
     00204979  ___func_scene_0                    scene_0
     00204979  _scene_0                           scene_0
     002049B4  ___func_scene_1                    scene_1
     002049B4  _scene_1                           scene_1
     002049EF  ___func_scene_10                   scene_10
     002049EF  _scene_10                          scene_10
     00204A2A  ___func_scene_11                   scene_11
     00204A2A  _scene_11                          scene_11
     00204A65  ___func_scene_13                   scene_13
     00204A65  _scene_13                          scene_13
     00204AA0  ___func_scene_14_triggers          scene_14_triggers
     00204AA0  _scene_14_triggers                 scene_14_triggers
     00204AB8  ___func_scene_14                   scene_14
     00204AB8  _scene_14                          scene_14
     00204AF3  ___func_scene_15                   scene_15
     00204AF3  _scene_15                          scene_15
     00204B2E  ___func_scene_16                   scene_16
     00204B2E  _scene_16                          scene_16
     00204B69  ___func_scene_17                   scene_17
     00204B69  _scene_17                          scene_17
     00204BA4  ___func_scene_18                   scene_18
     00204BA4  _scene_18                          scene_18
     00204BDF  ___func_scene_19                   scene_19
     00204BDF  _scene_19                          scene_19
     00204C1A  ___func_scene_2                    scene_2
     00204C1A  _scene_2                           scene_2
     00204C55  ___func_scene_20                   scene_20
     00204C55  _scene_20                          scene_20
     00204C90  ___func_scene_21_actors            scene_21_actors
     00204C90  _scene_21_actors                   scene_21_actors
     00204CC4  _scene_21_init                     scene_21_init
     00204CC5  GBVM$scene_21_init$autofade$342f   scene_21_init
     00204CD1  ___func_scene_21_triggers          scene_21_triggers
     00204CD1  _scene_21_triggers                 scene_21_triggers
     00204CE9  ___func_scene_21                   scene_21
     00204CE9  _scene_21                          scene_21
     00204D24  ___func_scene_22                   scene_22
     00204D24  _scene_22                          scene_22
     00204D5F  ___func_scene_23                   scene_23
     00204D5F  _scene_23                          scene_23
ASxxxx Linker V03.00/V05.40 + sdld,  page 66.
Hexadecimal  [32-Bits]

Area                                    Addr        Size        Decimal Bytes (Attributes)
--------------------------------        ----        ----        ------- ----- ------------
_CODE_32                            00204000    00002B07 =       11015. bytes (REL,CON)

      Value  Global                              Global Defined In Module
      -----  --------------------------------   ------------------------
     00204D9A  ___func_scene_24                   scene_24
     00204D9A  _scene_24                          scene_24
     00204DD5  ___func_scene_25_actors            scene_25_actors
     00204DD5  _scene_25_actors                   scene_25_actors
     00204E09  _scene_25_init                     scene_25_init
     00204E0A  GBVM$scene_25_init$autofade$62fd   scene_25_init
     00204E16  ___func_scene_25_triggers          scene_25_triggers
     00204E16  _scene_25_triggers                 scene_25_triggers
     00204E2E  ___func_scene_25                   scene_25
     00204E2E  _scene_25                          scene_25
     00204E69  ___func_scene_26                   scene_26
     00204E69  _scene_26                          scene_26
     00204EA4  ___func_scene_27                   scene_27
     00204EA4  _scene_27                          scene_27
     00204EDF  ___func_scene_28_sprites           scene_28_sprites
     00204EDF  _scene_28_sprites                  scene_28_sprites
     00204EE5  ___func_scene_28                   scene_28
     00204EE5  _scene_28                          scene_28
     00204F20  ___func_scene_29_sprites           scene_29_sprites
     00204F20  _scene_29_sprites                  scene_29_sprites
     00204F2F  ___func_scene_29                   scene_29
     00204F2F  _scene_29                          scene_29
     00204F6A  ___func_scene_3                    scene_3
     00204F6A  _scene_3                           scene_3
     00204FA5  ___func_scene_30                   scene_30
     00204FA5  _scene_30                          scene_30
     00204FE0  ___func_scene_31                   scene_31
     00204FE0  _scene_31                          scene_31
     0020501B  _scene_32_init                     scene_32_init
     0020501E  GBVM$scene_32_init$82c2693a_4498   scene_32_init
     00205027  GBVM$scene_32_init$autofade$5258   scene_32_init
     00205033  ___func_scene_32_triggers          scene_32_triggers
     00205033  _scene_32_triggers                 scene_32_triggers
     00205043  ___func_scene_32                   scene_32
     00205043  _scene_32                          scene_32
     0020507E  _scene_33_init                     scene_33_init
     0020507F  GBVM$scene_33_init$autofade$97ad   scene_33_init
     0020508B  ___func_scene_33_triggers          scene_33_triggers
     0020508B  _scene_33_triggers                 scene_33_triggers
     002050A3  ___func_scene_33                   scene_33
     002050A3  _scene_33                          scene_33
     002050DE  _scene_34_init                     scene_34_init
     002050DF  GBVM$scene_34_init$autofade$6df7   scene_34_init
     002050EB  ___func_scene_34_triggers          scene_34_triggers
     002050EB  _scene_34_triggers                 scene_34_triggers
     002050FB  ___func_scene_34                   scene_34
     002050FB  _scene_34                          scene_34
     00205136  ___func_scene_35_actors            scene_35_actors
     00205136  _scene_35_actors                   scene_35_actors
     0020516A  _scene_35_init                     scene_35_init
     0020516B  GBVM$scene_35_init$autofade$e0f6   scene_35_init
ASxxxx Linker V03.00/V05.40 + sdld,  page 67.
Hexadecimal  [32-Bits]

Area                                    Addr        Size        Decimal Bytes (Attributes)
--------------------------------        ----        ----        ------- ----- ------------
_CODE_32                            00204000    00002B07 =       11015. bytes (REL,CON)

      Value  Global                              Global Defined In Module
      -----  --------------------------------   ------------------------
     00205177  ___func_scene_35                   scene_35
     00205177  _scene_35                          scene_35
     002051B2  _scene_36_init                     scene_36_init
     002051B3  GBVM$scene_36_init$autofade$31d1   scene_36_init
     002051BF  ___func_scene_36_triggers          scene_36_triggers
     002051BF  _scene_36_triggers                 scene_36_triggers
     002051CF  ___func_scene_36                   scene_36
     002051CF  _scene_36                          scene_36
     0020520A  ___func_scene_37_sprites           scene_37_sprites
     0020520A  _scene_37_sprites                  scene_37_sprites
     00205210  ___func_scene_37                   scene_37
     00205210  _scene_37                          scene_37
     0020524B  ___func_scene_38                   scene_38
     0020524B  _scene_38                          scene_38
     00205286  ___func_scene_39                   scene_39
     00205286  _scene_39                          scene_39
     002052C1  ___func_scene_4                    scene_4
     002052C1  _scene_4                           scene_4
     002052FC  ___func_scene_40                   scene_40
     002052FC  _scene_40                          scene_40
     00205337  ___func_scene_41_sprites           scene_41_sprites
     00205337  _scene_41_sprites                  scene_41_sprites
     0020533D  ___func_scene_41                   scene_41
     0020533D  _scene_41                          scene_41
     00205378  ___func_scene_42                   scene_42
     00205378  _scene_42                          scene_42
     002053B3  ___func_scene_44_triggers          scene_44_triggers
     002053B3  _scene_44_triggers                 scene_44_triggers
     002053BB  ___func_scene_44                   scene_44
     002053BB  _scene_44                          scene_44
     002053F6  ___func_scene_45_sprites           scene_45_sprites
     002053F6  _scene_45_sprites                  scene_45_sprites
     00205408  ___func_scene_45_triggers          scene_45_triggers
     00205408  _scene_45_triggers                 scene_45_triggers
     00205410  ___func_scene_45                   scene_45
     00205410  _scene_45                          scene_45
     0020544B  ___func_scene_46_actors            scene_46_actors
     0020544B  _scene_46_actors                   scene_46_actors
     0020547F  ___func_scene_46                   scene_46
     0020547F  _scene_46                          scene_46
     002054BA  ___func_scene_47_actors            scene_47_actors
     002054BA  _scene_47_actors                   scene_47_actors
     002054EE  ___func_scene_47_sprites           scene_47_sprites
     002054EE  _scene_47_sprites                  scene_47_sprites
     002054F1  ___func_scene_47_triggers          scene_47_triggers
     002054F1  _scene_47_triggers                 scene_47_triggers
     002054F9  ___func_scene_47                   scene_47
     002054F9  _scene_47                          scene_47
     00205534  ___func_scene_48_actors            scene_48_actors
     00205534  _scene_48_actors                   scene_48_actors
     00205568  ___func_scene_48_sprites           scene_48_sprites
ASxxxx Linker V03.00/V05.40 + sdld,  page 68.
Hexadecimal  [32-Bits]

Area                                    Addr        Size        Decimal Bytes (Attributes)
--------------------------------        ----        ----        ------- ----- ------------
_CODE_32                            00204000    00002B07 =       11015. bytes (REL,CON)

      Value  Global                              Global Defined In Module
      -----  --------------------------------   ------------------------
     00205568  _scene_48_sprites                  scene_48_sprites
     0020556B  ___func_scene_48                   scene_48
     0020556B  _scene_48                          scene_48
     002055A6  ___func_scene_49                   scene_49
     002055A6  _scene_49                          scene_49
     002055E1  ___func_scene_5                    scene_5
     002055E1  _scene_5                           scene_5
     0020561C  ___func_scene_50                   scene_50
     0020561C  _scene_50                          scene_50
     00205657  ___func_scene_51_actors            scene_51_actors
     00205657  _scene_51_actors                   scene_51_actors
     0020568B  ___func_scene_51_sprites           scene_51_sprites
     0020568B  _scene_51_sprites                  scene_51_sprites
     0020568E  ___func_scene_51                   scene_51
     0020568E  _scene_51                          scene_51
     002056C9  ___func_scene_52_sprites           scene_52_sprites
     002056C9  _scene_52_sprites                  scene_52_sprites
     002056D8  ___func_scene_52                   scene_52
     002056D8  _scene_52                          scene_52
     00205713  _scene_54_init                     scene_54_init
     00205714  GBVM$scene_54_init$autofade$5782   scene_54_init
     00205720  ___func_scene_54_triggers          scene_54_triggers
     00205720  _scene_54_triggers                 scene_54_triggers
     00205728  ___func_scene_54                   scene_54
     00205728  _scene_54                          scene_54
     00205763  ___func_scene_55_actors            scene_55_actors
     00205763  _scene_55_actors                   scene_55_actors
     00205797  _scene_55_init                     scene_55_init
     00205798  GBVM$scene_55_init$autofade$70ef   scene_55_init
     002057A4  ___func_scene_55_sprites           scene_55_sprites
     002057A4  _scene_55_sprites                  scene_55_sprites
     002057A7  ___func_scene_55_triggers          scene_55_triggers
     002057A7  _scene_55_triggers                 scene_55_triggers
     002057B7  ___func_scene_55                   scene_55
     002057B7  _scene_55                          scene_55
     002057F2  ___func_scene_56_sprites           scene_56_sprites
     002057F2  _scene_56_sprites                  scene_56_sprites
     002057FB  ___func_scene_56_triggers          scene_56_triggers
     002057FB  _scene_56_triggers                 scene_56_triggers
     00205803  ___func_scene_56                   scene_56
     00205803  _scene_56                          scene_56
     0020583E  _scene_57_init                     scene_57_init
     0020583F  GBVM$scene_57_init$autofade$4621   scene_57_init
     0020584B  ___func_scene_57_triggers          scene_57_triggers
     0020584B  _scene_57_triggers                 scene_57_triggers
     0020585B  ___func_scene_57                   scene_57
     0020585B  _scene_57                          scene_57
     00205896  _scene_58_init                     scene_58_init
     00205897  GBVM$scene_58_init$autofade$bc9e   scene_58_init
     002058A3  ___func_scene_58                   scene_58
     002058A3  _scene_58                          scene_58
ASxxxx Linker V03.00/V05.40 + sdld,  page 69.
Hexadecimal  [32-Bits]

Area                                    Addr        Size        Decimal Bytes (Attributes)
--------------------------------        ----        ----        ------- ----- ------------
_CODE_32                            00204000    00002B07 =       11015. bytes (REL,CON)

      Value  Global                              Global Defined In Module
      -----  --------------------------------   ------------------------
     002058DE  ___func_scene_59_actors            scene_59_actors
     002058DE  _scene_59_actors                   scene_59_actors
     00205912  _scene_59_init                     scene_59_init
     00205913  GBVM$scene_59_init$autofade$6dfa   scene_59_init
     0020591F  ___func_scene_59_sprites           scene_59_sprites
     0020591F  _scene_59_sprites                  scene_59_sprites
     00205922  ___func_scene_59_triggers          scene_59_triggers
     00205922  _scene_59_triggers                 scene_59_triggers
     0020592A  ___func_scene_59                   scene_59
     0020592A  _scene_59                          scene_59
     00205965  ___func_scene_6                    scene_6
     00205965  _scene_6                           scene_6
     002059A0  _scene_60_init                     scene_60_init
     002059A3  GBVM$scene_60_init$18c47ed7_ea60   scene_60_init
     002059AD  GBVM$scene_60_init$autofade$275b   scene_60_init
     002059B9  ___func_scene_60_sprites           scene_60_sprites
     002059B9  _scene_60_sprites                  scene_60_sprites
     002059BC  ___func_scene_60_triggers          scene_60_triggers
     002059BC  _scene_60_triggers                 scene_60_triggers
     002059CC  ___func_scene_60                   scene_60
     002059CC  _scene_60                          scene_60
     00205A07  _scene_61_init                     scene_61_init
     00205A08  GBVM$scene_61_init$autofade$215c   scene_61_init
     00205A14  ___func_scene_61_sprites           scene_61_sprites
     00205A14  _scene_61_sprites                  scene_61_sprites
     00205A1A  ___func_scene_61_triggers          scene_61_triggers
     00205A1A  _scene_61_triggers                 scene_61_triggers
     00205A32  ___func_scene_61                   scene_61
     00205A32  _scene_61                          scene_61
     00205A6D  _scene_62_init                     scene_62_init
     00205A6E  GBVM$scene_62_init$autofade$f776   scene_62_init
     00205A7A  ___func_scene_62                   scene_62
     00205A7A  _scene_62                          scene_62
     00205AB5  ___func_scene_63_actors            scene_63_actors
     00205AB5  _scene_63_actors                   scene_63_actors
     00205AE9  ___func_scene_63_sprites           scene_63_sprites
     00205AE9  _scene_63_sprites                  scene_63_sprites
     00205AEC  ___func_scene_63_triggers          scene_63_triggers
     00205AEC  _scene_63_triggers                 scene_63_triggers
     00205AF4  ___func_scene_63                   scene_63
     00205AF4  _scene_63                          scene_63
     00205B2F  _scene_64_init                     scene_64_init
     00205B30  GBVM$scene_64_init$autofade$d69b   scene_64_init
     00205B3C  ___func_scene_64_triggers          scene_64_triggers
     00205B3C  _scene_64_triggers                 scene_64_triggers
     00205B4C  ___func_scene_64                   scene_64
     00205B4C  _scene_64                          scene_64
     00205B87  ___func_scene_65_sprites           scene_65_sprites
     00205B87  _scene_65_sprites                  scene_65_sprites
     00205B8D  ___func_scene_65_triggers          scene_65_triggers
     00205B8D  _scene_65_triggers                 scene_65_triggers
ASxxxx Linker V03.00/V05.40 + sdld,  page 70.
Hexadecimal  [32-Bits]

Area                                    Addr        Size        Decimal Bytes (Attributes)
--------------------------------        ----        ----        ------- ----- ------------
_CODE_32                            00204000    00002B07 =       11015. bytes (REL,CON)

      Value  Global                              Global Defined In Module
      -----  --------------------------------   ------------------------
     00205B95  ___func_scene_65                   scene_65
     00205B95  _scene_65                          scene_65
     00205BD0  ___func_scene_66_actors            scene_66_actors
     00205BD0  _scene_66_actors                   scene_66_actors
     00205C04  ___func_scene_66_sprites           scene_66_sprites
     00205C04  _scene_66_sprites                  scene_66_sprites
     00205C07  ___func_scene_66_triggers          scene_66_triggers
     00205C07  _scene_66_triggers                 scene_66_triggers
     00205C17  ___func_scene_66                   scene_66
     00205C17  _scene_66                          scene_66
     00205C52  _scene_67_init                     scene_67_init
     00205C53  GBVM$scene_67_init$autofade$81f6   scene_67_init
     00205C5F  ___func_scene_67_triggers          scene_67_triggers
     00205C5F  _scene_67_triggers                 scene_67_triggers
     00205C6F  ___func_scene_67                   scene_67
     00205C6F  _scene_67                          scene_67
     00205CAA  ___func_scene_68_actors            scene_68_actors
     00205CAA  _scene_68_actors                   scene_68_actors
     00205CDE  _scene_68_init                     scene_68_init
     00205CDF  GBVM$scene_68_init$autofade$3348   scene_68_init
     00205CEB  ___func_scene_68_sprites           scene_68_sprites
     00205CEB  _scene_68_sprites                  scene_68_sprites
     00205CEE  ___func_scene_68_triggers          scene_68_triggers
     00205CEE  _scene_68_triggers                 scene_68_triggers
     00205CFE  ___func_scene_68                   scene_68
     00205CFE  _scene_68                          scene_68
     00205D39  ___func_scene_7                    scene_7
     00205D39  _scene_7                           scene_7
     00205D74  ___func_scene_8                    scene_8
     00205D74  _scene_8                           scene_8
     00205DAF  ___func_scene_9                    scene_9
     00205DAF  _scene_9                           scene_9
     00205DEA  ___func_scene_logo                 scene_logo
     00205DEA  _scene_logo                        scene_logo
     00205E25  GBVM$script_0$263d85aa_9238_4204   script_0
     00205E25  _script_0                          script_0
     00205E34  GBVM$script_0$6cc30d0a_a0b6_4afc   script_0
     00205E35  GBVM$script_0$7366ac93_c291_4d1c   script_0
     00205E35  GBVM_END$script_0$263d85aa_9238_   script_0
     00205E40  GBVM$script_0$77270e45_3428_46ba   script_0
     00205E4A  GBVM$script_0$e27aced5_d996_4d0a   script_0
     00205E57  _script_11                         script_11
     00205E59  GBVM$script_11$43790695_e360_4d7   script_11
     00205E63  GBVM$script_11$06594a96_af0e_49d   script_11
     00205E71  GBVM$script_19$3dec4571_1fcc_4c4   script_19
     00205E71  _script_19                         script_19
     00205E80  GBVM_END$script_19$3dec4571_1fcc   script_19
     00205E82  _script_6                          script_6
     00205E84  GBVM$script_6$4663bcfe_630d_4830   script_6
     00205E8E  GBVM$script_6$ea4d9ef7_11c0_4d47   script_6
     00205E9C  GBVM$script_input_0$6501f9e4_a54   script_input_0
ASxxxx Linker V03.00/V05.40 + sdld,  page 71.
Hexadecimal  [32-Bits]

Area                                    Addr        Size        Decimal Bytes (Attributes)
--------------------------------        ----        ----        ------- ----- ------------
_CODE_32                            00204000    00002B07 =       11015. bytes (REL,CON)

      Value  Global                              Global Defined In Module
      -----  --------------------------------   ------------------------
     00205E9C  _script_input_0                    script_input_0
     00205EA5  GBVM$script_input_0$27a96422_ae4   script_input_0
     00205EB3  GBVM$script_input_0$e09f301a_5e2   script_input_0
     00205EB8  GBVM$script_input_0$72973355_bc1   script_input_0
     00205EB8  GBVM_END$script_input_0$6501f9e4   script_input_0
     00205EC9  GBVM$script_input_1$2197379e_36f   script_input_1
     00205EC9  _script_input_1                    script_input_1
     00205ED2  GBVM$script_input_1$d76f82aa_a4b   script_input_1
     00205EE0  GBVM$script_input_1$b2d4e427_20c   script_input_1
     00205EE5  GBVM$script_input_1$733cedd4_b40   script_input_1
     00205EE5  GBVM_END$script_input_1$2197379e   script_input_1
     00205EF6  GBVM$script_input_2$07ecdd0a_060   script_input_2
     00205EF6  _script_input_2                    script_input_2
     00205F01  GBVM$script_input_2$9c048d29_705   script_input_2
     00205F0D  GBVM$script_input_2$5fef599c_728   script_input_2
     00205F1E  GBVM$script_input_4$672963c1_925   script_input_4
     00205F1E  _script_input_4                    script_input_4
     00205F2B  GBVM$script_input_4$acec66f8_222   script_input_4
     00205F35  GBVM$script_input_4$9f842e30_792   script_input_4
     00205F41  GBVM$script_input_4$f3acd0f3_5c0   script_input_4
     00205F4B  GBVM_END$script_input_4$9f842e30   script_input_4
     00205F4C  GBVM$script_input_5$b81e3a5e_964   script_input_5
     00205F4C  _script_input_5                    script_input_5
     00205F54  GBVM$script_input_6$0b419890_08c   script_input_6
     00205F54  _script_input_6                    script_input_6
     00205F5D  GBVM$script_input_6$ecdfae81_b2c   script_input_6
     00205F6A  GBVM$script_input_6$23139a34_d8a   script_input_6
     00205F74  GBVM_END$script_input_6$0b419890   script_input_6
     00205F75  GBVM$script_input$e338dcd8_b3c6_   script_input
     00205F75  _script_input                      script_input
     00205F80  GBVM$script_input$5c05511d_abb8_   script_input
     00205F8C  GBVM$script_input$4b1e10f6_0671_   script_input
     00205F9D  ___func_sound_legacy_0_0           sound_legacy_0_0
     00205F9D  _sound_legacy_0_0                  sound_legacy_0_0
     00205FB0  ___func_sound_legacy_0_1           sound_legacy_0_1
     00205FB0  _sound_legacy_0_1                  sound_legacy_0_1
     00205FD9  ___func_sound_legacy_0_2           sound_legacy_0_2
     00205FD9  _sound_legacy_0_2                  sound_legacy_0_2
     00205FE6  ___func_sound_legacy_0             sound_legacy_0
     00205FE6  _sound_legacy_0                    sound_legacy_0
     00205FF9  ___func_sprite_can_t_spare         sprite_can_t_spare
     00205FF9  _sprite_can_t_spare_metasprite_0   sprite_can_t_spare
     00206011  _sprite_can_t_spare_metasprites    sprite_can_t_spare
     00206013  _sprite_can_t_spare_animations     sprite_can_t_spare
     00206023  _sprite_can_t_spare_animations_l   sprite_can_t_spare
     00206025  _sprite_can_t_spare                sprite_can_t_spare
     00206038  ___func_sprite_cursor_tileset      sprite_cursor_tileset
     00206038  _sprite_cursor_tileset             sprite_cursor_tileset
     0020605A  ___func_sprite_cursor              sprite_cursor
     0020605A  _sprite_cursor_metasprite_0        sprite_cursor
     00206062  _sprite_cursor_metasprite_1        sprite_cursor
ASxxxx Linker V03.00/V05.40 + sdld,  page 72.
Hexadecimal  [32-Bits]

Area                                    Addr        Size        Decimal Bytes (Attributes)
--------------------------------        ----        ----        ------- ----- ------------
_CODE_32                            00204000    00002B07 =       11015. bytes (REL,CON)

      Value  Global                              Global Defined In Module
      -----  --------------------------------   ------------------------
     0020606A  _sprite_cursor_metasprites         sprite_cursor
     0020606E  _sprite_cursor_animations          sprite_cursor
     0020607E  _sprite_cursor_animations_lookup   sprite_cursor
     00206080  _sprite_cursor                     sprite_cursor
     00206093  ___func_sprite_cursor2_tileset     sprite_cursor2_tileset
     00206093  _sprite_cursor2_tileset            sprite_cursor2_tileset
     002060B5  ___func_sprite_cursortest_tilese   sprite_cursortest_tileset
     002060B5  _sprite_cursortest_tileset         sprite_cursortest_tileset
     002060D7  ___func_sprite_cursortest          sprite_cursortest
     002060D7  _sprite_cursortest_metasprite_0    sprite_cursortest
     002060DF  _sprite_cursortest_metasprites     sprite_cursortest
     002060E1  _sprite_cursortest_animations      sprite_cursortest
     002060F1  _sprite_cursortest_animations_lo   sprite_cursortest
     002060F3  _sprite_cursortest                 sprite_cursortest
     00206106  ___func_sprite_hax                 sprite_hax
     00206106  _sprite_hax_metasprite_0           sprite_hax
     0020611A  _sprite_hax_metasprites            sprite_hax
     0020611C  _sprite_hax_animations             sprite_hax
     0020612C  _sprite_hax_animations_lookup      sprite_hax
     0020612E  _sprite_hax                        sprite_hax
     00206141  ___func_sprite_krisbt2o            sprite_krisbt2o
     00206141  _sprite_krisbt2o_metasprite_0      sprite_krisbt2o
     00206155  _sprite_krisbt2o_metasprites       sprite_krisbt2o
     00206157  _sprite_krisbt2o_animations        sprite_krisbt2o
     00206167  _sprite_krisbt2o_animations_look   sprite_krisbt2o
     00206169  _sprite_krisbt2o                   sprite_krisbt2o
     0020617C  ___func_sprite_lacer_shadow        sprite_lacer_shadow
     0020617C  _sprite_lacer_shadow_metasprite_   sprite_lacer_shadow
     00206188  _sprite_lacer_shadow_metasprites   sprite_lacer_shadow
     0020618A  _sprite_lacer_shadow_animations    sprite_lacer_shadow
     0020619A  _sprite_lacer_shadow_animations_   sprite_lacer_shadow
     0020619C  _sprite_lacer_shadow               sprite_lacer_shadow
     002061AF  ___func_sprite_lightshard_tilese   sprite_lightshard_tileset
     002061AF  _sprite_lightshard_tileset         sprite_lightshard_tileset
     002061F1  ___func_sprite_lightshard          sprite_lightshard
     002061F1  _sprite_lightshard_metasprite_0    sprite_lightshard
     002061F9  _sprite_lightshard_metasprite_1    sprite_lightshard
     00206201  _sprite_lightshard_metasprites     sprite_lightshard
     00206205  _sprite_lightshard_animations      sprite_lightshard
     00206215  _sprite_lightshard_animations_lo   sprite_lightshard
     00206217  _sprite_lightshard                 sprite_lightshard
     0020622A  ___func_sprite_new_piskel          sprite_new_piskel
     0020622A  _sprite_new_piskel_metasprite_0    sprite_new_piskel
     00206236  _sprite_new_piskel_metasprite_1    sprite_new_piskel
     00206242  _sprite_new_piskel_metasprites     sprite_new_piskel
     00206246  _sprite_new_piskel_animations      sprite_new_piskel
     00206256  _sprite_new_piskel_animations_lo   sprite_new_piskel
     00206258  _sprite_new_piskel                 sprite_new_piskel
     0020626B  ___func_sprite_piaf                sprite_piaf
     0020626B  _sprite_piaf_metasprite_0          sprite_piaf
     00206287  _sprite_piaf_metasprites           sprite_piaf
ASxxxx Linker V03.00/V05.40 + sdld,  page 73.
Hexadecimal  [32-Bits]

Area                                    Addr        Size        Decimal Bytes (Attributes)
--------------------------------        ----        ----        ------- ----- ------------
_CODE_32                            00204000    00002B07 =       11015. bytes (REL,CON)

      Value  Global                              Global Defined In Module
      -----  --------------------------------   ------------------------
     00206289  _sprite_piaf_animations            sprite_piaf
     00206299  _sprite_piaf_animations_lookup     sprite_piaf
     0020629B  _sprite_piaf                       sprite_piaf
     002062AE  ___func_sprite_ralseibt            sprite_ralseibt
     002062AE  _sprite_ralseibt_metasprite_0      sprite_ralseibt
     002062CA  _sprite_ralseibt_metasprites       sprite_ralseibt
     002062CC  _sprite_ralseibt_animations        sprite_ralseibt
     002062DC  _sprite_ralseibt_animations_look   sprite_ralseibt
     002062DE  _sprite_ralseibt                   sprite_ralseibt
     002062F1  ___func_sprite_ralsss_tileset      sprite_ralsss_tileset
     002062F1  _sprite_ralsss_tileset             sprite_ralsss_tileset
     00206333  ___func_sprite_ralsss              sprite_ralsss
     00206333  _sprite_ralsss_metasprite_0        sprite_ralsss
     0020633F  _sprite_ralsss_metasprites         sprite_ralsss
     00206341  _sprite_ralsss_animations          sprite_ralsss
     00206351  _sprite_ralsss_animations_lookup   sprite_ralsss
     00206353  _sprite_ralsss                     sprite_ralsss
     00206366  ___func_sprite_room2               sprite_room2
     00206366  _sprite_room2                      sprite_room2
     00206374  ___func_sprite_saveae_tileset      sprite_saveae_tileset
     00206374  _sprite_saveae_tileset             sprite_saveae_tileset
     002063B6  ___func_sprite_spare               sprite_spare
     002063B6  _sprite_spare_metasprite_0         sprite_spare
     002063CE  _sprite_spare_metasprites          sprite_spare
     002063D0  _sprite_spare_animations           sprite_spare
     002063E0  _sprite_spare_animations_lookup    sprite_spare
     002063E2  _sprite_spare                      sprite_spare
     002063F5  ___func_sprite_sword2o             sprite_sword2o
     002063F5  _sprite_sword2o_metasprite_0       sprite_sword2o
     00206409  _sprite_sword2o_metasprites        sprite_sword2o
     0020640B  _sprite_sword2o_animations         sprite_sword2o
     0020641B  _sprite_sword2o_animations_looku   sprite_sword2o
     0020641D  _sprite_sword2o                    sprite_sword2o
     00206430  _spritesheet_none_metasprite       spritesheet_none
     00206434  _spritesheet_none_metasprites      spritesheet_none
     00206436  _spritesheet_none                  spritesheet_none
     00206449  _trigger_0_interact                trigger_0_interact
     0020644C  GBVM$trigger_0_interact$e3129eb4   trigger_0_interact
     0020647F  _trigger_1_interact                trigger_1_interact
     00206482  GBVM$trigger_1_interact$25d7be62   trigger_1_interact
     002064B5  _trigger_10_interact               trigger_10_interact
     002064B8  GBVM$trigger_10_interact$bf8df5e   trigger_10_interact
     002064EB  _trigger_15_interact               trigger_15_interact
     002064EC  GBVM$trigger_15_interact$fcea300   trigger_15_interact
     00206527  _trigger_17_interact               trigger_17_interact
     0020652A  GBVM$trigger_17_interact$ace066a   trigger_17_interact
     0020655D  _trigger_18_interact               trigger_18_interact
     00206560  GBVM$trigger_18_interact$27edca1   trigger_18_interact
     00206593  _trigger_19_interact               trigger_19_interact
     00206596  GBVM$trigger_19_interact$216eac7   trigger_19_interact
     002065C9  _trigger_2_interact                trigger_2_interact
ASxxxx Linker V03.00/V05.40 + sdld,  page 74.
Hexadecimal  [32-Bits]

Area                                    Addr        Size        Decimal Bytes (Attributes)
--------------------------------        ----        ----        ------- ----- ------------
_CODE_32                            00204000    00002B07 =       11015. bytes (REL,CON)

      Value  Global                              Global Defined In Module
      -----  --------------------------------   ------------------------
     002065CC  GBVM$trigger_2_interact$4eb724d8   trigger_2_interact
     002065FF  _trigger_20_interact               trigger_20_interact
     00206602  GBVM$trigger_20_interact$889ff37   trigger_20_interact
     00206635  _trigger_22_interact               trigger_22_interact
     00206638  GBVM$trigger_22_interact$d5c9bf8   trigger_22_interact
     0020666A  GBVM$trigger_22_interact$4c91378   trigger_22_interact
     00206670  _trigger_23_interact               trigger_23_interact
     00206673  GBVM$trigger_23_interact$e800a44   trigger_23_interact
     002066A6  _trigger_24_interact               trigger_24_interact
     002066A9  GBVM$trigger_24_interact$ebb636c   trigger_24_interact
     002066DC  _trigger_25_interact               trigger_25_interact
     002066DF  GBVM$trigger_25_interact$1b135d8   trigger_25_interact
     00206712  _trigger_27_interact               trigger_27_interact
     00206715  GBVM$trigger_27_interact$9ae5098   trigger_27_interact
     00206748  _trigger_28_interact               trigger_28_interact
     0020674B  GBVM$trigger_28_interact$5b36a6b   trigger_28_interact
     0020677E  _trigger_29_interact               trigger_29_interact
     00206781  GBVM$trigger_29_interact$7500754   trigger_29_interact
     002067B4  _trigger_3_interact                trigger_3_interact
     002067B7  GBVM$trigger_3_interact$cd1bcae7   trigger_3_interact
     002067EA  _trigger_30_interact               trigger_30_interact
     002067ED  GBVM$trigger_30_interact$1753297   trigger_30_interact
     00206820  _trigger_31_interact               trigger_31_interact
     00206823  GBVM$trigger_31_interact$ffd46d3   trigger_31_interact
     00206856  _trigger_32_interact               trigger_32_interact
     00206859  GBVM$trigger_32_interact$273e9df   trigger_32_interact
     0020688C  _trigger_33_interact               trigger_33_interact
     0020688F  GBVM$trigger_33_interact$7d07baf   trigger_33_interact
     002068B3  _trigger_34_interact               trigger_34_interact
     002068B6  GBVM$trigger_34_interact$5844bf1   trigger_34_interact
     002068E9  _trigger_35_interact               trigger_35_interact
     002068EC  GBVM$trigger_35_interact$2f90f2f   trigger_35_interact
     00206910  _trigger_36_interact               trigger_36_interact
     00206913  GBVM$trigger_36_interact$4452488   trigger_36_interact
     00206946  _trigger_38_interact               trigger_38_interact
     00206949  GBVM$trigger_38_interact$b88800c   trigger_38_interact
     0020697C  _trigger_4_interact                trigger_4_interact
     0020697F  GBVM$trigger_4_interact$218eeac5   trigger_4_interact
     002069B2  _trigger_42_interact               trigger_42_interact
     002069B5  GBVM$trigger_42_interact$8ae5ec5   trigger_42_interact
     002069E8  _trigger_5_interact                trigger_5_interact
     002069EB  GBVM$trigger_5_interact$ad30075e   trigger_5_interact
     00206A1E  _trigger_6_interact                trigger_6_interact
     00206A21  GBVM$trigger_6_interact$0c442bb7   trigger_6_interact
     00206A54  _trigger_7_interact                trigger_7_interact
     00206A57  GBVM$trigger_7_interact$aec7bd81   trigger_7_interact
     00206A8A  _trigger_8_interact                trigger_8_interact
     00206A8D  GBVM$trigger_8_interact$18a414ee   trigger_8_interact
     00206AC0  _trigger_9_interact                trigger_9_interact
     00206AC3  GBVM$trigger_9_interact$6d8108a9   trigger_9_interact
     00206AF6  _logo_init                         logo
ASxxxx Linker V03.00/V05.40 + sdld,  page 75.
Hexadecimal  [32-Bits]

Area                                    Addr        Size        Decimal Bytes (Attributes)
--------------------------------        ----        ----        ------- ----- ------------
_CODE_32                            00204000    00002B07 =       11015. bytes (REL,CON)

      Value  Global                              Global Defined In Module
      -----  --------------------------------   ------------------------
     00206B06  _logo_update                       logo
ASxxxx Linker V03.00/V05.40 + sdld,  page 76.
Hexadecimal  [32-Bits]

Area                                    Addr        Size        Decimal Bytes (Attributes)
--------------------------------        ----        ----        ------- ----- ------------
_CODE_24                            00184000    00004000 =       16384. bytes (REL,CON)

      Value  Global                              Global Defined In Module
      -----  --------------------------------   ------------------------
     00184000  _core_reset                        core
     00184075  _process_VM                        core
     001842F3  _core_run                          core
     001843CF  ___func_bg_2_tilemap_attr          bg_2_tilemap_attr
     001843CF  _bg_2_tilemap_attr                 bg_2_tilemap_attr
     001847CF  ___func_bg_2_tilemap               bg_2_tilemap
     001847CF  _bg_2_tilemap                      bg_2_tilemap
     00184BCF  ___func_bg_2_tileset               bg_2_tileset
     00184BCF  _bg_2_tileset                      bg_2_tileset
     00184FB1  ___func_bg_castle_town_map2_tile   bg_castle_town_map2_tilemap_
     00184FB1  _bg_castle_town_map2_tilemap_att   bg_castle_town_map2_tilemap_
     001853A1  ___func_bg_castle_town_map2_tile   bg_castle_town_map2_tilemap
     001853A1  _bg_castle_town_map2_tilemap       bg_castle_town_map2_tilemap
     00185791  ___func_bg_legendsealfountain_ti   bg_legendsealfountain_tilema
     00185791  _bg_legendsealfountain_tilemap_a   bg_legendsealfountain_tilema
     001859A2  ___func_bg_untitled_tilemap_attr   bg_untitled_tilemap_attr
     001859A2  _bg_untitled_tilemap_attr          bg_untitled_tilemap_attr
     00185DA2  ___func_bg_untitled_tilemap        bg_untitled_tilemap
     00185DA2  _bg_untitled_tilemap               bg_untitled_tilemap
     001861A2  ___func_scene_32_collisions        scene_32_collisions
     001861A2  _scene_32_collisions               scene_32_collisions
     0018666A  ___func_scene_54_collisions        scene_54_collisions
     0018666A  _scene_54_collisions               scene_54_collisions
     00186A6A  ___func_scene_55_collisions        scene_55_collisions
     00186A6A  _scene_55_collisions               scene_55_collisions
     00186E6A  ___func_scene_64_collisions        scene_64_collisions
     00186E6A  _scene_64_collisions               scene_64_collisions
     0018725A  _script_engine_init                
     0018726E  ___func_sprite_lowercases_tilese   sprite_lowercases_tileset
     0018726E  _sprite_lowercases_tileset         sprite_lowercases_tileset
     00187670  ___func_sprite_room2_tilemap_att   sprite_room2_tilemap_attr
     00187670  _sprite_room2_tilemap_attr         sprite_room2_tilemap_attr
     00187B38  ___func_sprite_room2_tilemap       sprite_room2_tilemap
     00187B38  _sprite_room2_tilemap              sprite_room2_tilemap

ASxxxx Linker V03.00/V05.40 + sdld,  page 77.
Hexadecimal  [32-Bits]

Area                                    Addr        Size        Decimal Bytes (Attributes)
--------------------------------        ----        ----        ------- ----- ------------
_CRASH_HEADER0                      00000000    00000005 =           5. bytes (ABS,CON)

      Value  Global                              Global Defined In Module
      -----  --------------------------------   ------------------------
ASxxxx Linker V03.00/V05.40 + sdld,  page 78.
Hexadecimal  [32-Bits]

Area                                    Addr        Size        Decimal Bytes (Attributes)
--------------------------------        ----        ----        ------- ----- ------------
_CRASH_HEADER1                      00000000    00000004 =           4. bytes (ABS,CON)

      Value  Global                              Global Defined In Module
      -----  --------------------------------   ------------------------
ASxxxx Linker V03.00/V05.40 + sdld,  page 79.
Hexadecimal  [32-Bits]

Area                                    Addr        Size        Decimal Bytes (Attributes)
--------------------------------        ----        ----        ------- ----- ------------
_CODE_25                            00194000    00003FFF =       16383. bytes (REL,CON)

      Value  Global                              Global Defined In Module
      -----  --------------------------------   ------------------------
     00194000  ___HandleCrash_banked              
     00194368  _data_init                         load_save
     001943B3  _save_points                       load_save
     00194413  _data_slot_address                 load_save
     0019448B  _data_save                         load_save
     0019454C  _data_load                         load_save
     00194660  _data_clear                        load_save
     0019468D  _data_peek                         load_save
     0019472E  _atan2                             math_atan2
     001948C7  _atan2_table                       math_atan2
     00194A2F  ___func_VM_CAMERA                  vm_camera
     00194A2F  _vm_camera_move_to                 vm_camera
     00194C82  _vm_camera_set_pos                 vm_camera
     00194CC9  _camera_shake_frames               vm_camera
     00194DF8  ___func_VM_SIO                     vm_sio
     00194DF8  _vm_sio_set_mode                   vm_sio
     00194E0A  _vm_sio_exchange                   vm_sio
     001950EC  _actor_31_interact                 actor_31_interact
     001950ED  GBVM$actor_31_interact$9d21cc14_   actor_31_interact
     001951E1  ___func_bg_10_tileset              bg_10_tileset
     001951E1  _bg_10_tileset                     bg_10_tileset
     001955A3  ___func_bg_b0027_copie_tilemap_a   bg_b0027_copie_tilemap_attr
     001955A3  _bg_b0027_copie_tilemap_attr       bg_b0027_copie_tilemap_attr
     00195897  ___func_bg_b0027_copie_tilemap     bg_b0027_copie_tilemap
     00195897  _bg_b0027_copie_tilemap            bg_b0027_copie_tilemap
     00195B8B  ___func_bg_b0027_copie_tileset     bg_b0027_copie_tileset
     00195B8B  _bg_b0027_copie_tileset            bg_b0027_copie_tileset
     00195ECD  ___func_bg_gameover_tilemap_attr   bg_gameover_tilemap_attr
     00195ECD  _bg_gameover_tilemap_attr          bg_gameover_tilemap_attr
     001961C1  ___func_bg_gameover_tilemap        bg_gameover_tilemap
     001961C1  _bg_gameover_tilemap               bg_gameover_tilemap
     001964B5  ___func_bg_legend2_tilemap_attr    bg_legend2_tilemap_attr
     001964B5  _bg_legend2_tilemap_attr           bg_legend2_tilemap_attr
     00196830  ___func_bg_legend2_tilemap         bg_legend2_tilemap
     00196830  _bg_legend2_tilemap                bg_legend2_tilemap
     00196BAB  ___func_bg_name_input_background   bg_name_input_background_til
     00196BAB  _bg_name_input_background_tilese   bg_name_input_background_til
     00196EAD  ___func_bg_title_tileset           bg_title_tileset
     00196EAD  _bg_title_tileset                  bg_title_tileset
     001971EF  ___func_bg_untitled_tileset        bg_untitled_tileset
     001971EF  _bg_untitled_tileset               bg_untitled_tileset
     00197591  ___func_scene_2_sprites            scene_2_sprites
     00197591  _scene_2_sprites                   scene_2_sprites
     00197597  ___func_scene_4_collisions         scene_4_collisions
     00197597  _scene_4_collisions                scene_4_collisions
     00197912  _script_7                          script_7
     00197914  GBVM$script_7$76f21f71_a716_4c1e   script_7
     00197929  GBVM$script_7$5059f6c5_5cd0_4bc0   script_7
     0019795F  GBVM$script_7$404b6832_b042_4135   script_7
     0019795F  GBVM$script_7$8a18e7fc_c3fb_4d5f   script_7
ASxxxx Linker V03.00/V05.40 + sdld,  page 80.
Hexadecimal  [32-Bits]

Area                                    Addr        Size        Decimal Bytes (Attributes)
--------------------------------        ----        ----        ------- ----- ------------
_CODE_25                            00194000    00003FFF =       16383. bytes (REL,CON)

      Value  Global                              Global Defined In Module
      -----  --------------------------------   ------------------------
     0019795F  GBVM_END$script_7$76f21f71_a716_   script_7
     00197971  GBVM$script_7$d424c134_4f6c_41ae   script_7
     001979B3  GBVM$script_7$0180abf6_c240_463d   script_7
     001979BD  GBVM$script_7$d4c395a7_4df4_4d92   script_7
     00197A09  GBVM$script_7$ee46a42c_135b_49f8   script_7
     00197A90  GBVM$script_7$1a42d28b_a77e_4df9   script_7
     00197AA2  GBVM$script_7$d05fcee8_f786_4129   script_7
     00197AB4  GBVM$script_7$e4d75236_f184_4563   script_7
     00197AC9  GBVM$script_7$6c814e0b_cb0e_4b57   script_7
     00197ADE  GBVM$script_7$629d5bf5_63a1_416b   script_7
     00197ADE  GBVM_END$script_7$6c814e0b_cb0e_   script_7
     00197AF3  GBVM$script_7$7b0cd2de_c8e8_4cb7   script_7
     00197B2E  GBVM$script_7$0a4950e8_ccc4_4cec   script_7
     00197B33  GBVM$script_7$cede5e0f_5abc_4946   script_7
     00197B3A  GBVM_END$script_7$629d5bf5_63a1_   script_7
     00197B3A  GBVM_END$script_7$e4d75236_f184_   script_7
     00197B3D  GBVM$script_7$c32cfeaf_5cd5_4997   script_7
     00197B52  GBVM$script_7$2d0b2722_6b06_42f1   script_7
     00197BB9  GBVM$script_7$88dd52c2_6837_48bf   script_7
     00197BC5  GBVM$script_7$c97fb53f_b818_48dc   script_7
     00197BCA  GBVM$script_7$ab9e4cdd_a2c4_4dce   script_7
     00197BD4  GBVM_END$script_7$88dd52c2_6837_   script_7
     00197BD4  GBVM_END$script_7$c32cfeaf_5cd5_   script_7
     00197BD4  GBVM_END$script_7$d05fcee8_f786_   script_7
     00197BD7  GBVM$script_7$32a454dc_c141_49bf   script_7
     00197BE3  GBVM$script_7$1c49cadd_579c_44f4   script_7
     00197BE8  GBVM$script_7$c8960abe_d46d_4227   script_7
     00197BF2  GBVM$script_7$f031a5ca_b83d_4454   script_7
     00197C5D  GBVM$script_7$4203afdb_bf14_4cb6   script_7
     00197C69  GBVM$script_7$3ac7bdf1_50bd_40d7   script_7
     00197C6E  GBVM$script_7$258b8d85_beb9_47b3   script_7
     00197C78  GBVM_END$script_7$1a42d28b_a77e_   script_7
     00197C78  GBVM_END$script_7$32a454dc_c141_   script_7
     00197C78  GBVM_END$script_7$404b6832_b042_   script_7
     00197C78  GBVM_END$script_7$4203afdb_bf14_   script_7
     00197C7B  GBVM_END$script_7$8a18e7fc_c3fb_   script_7
     00197C7F  _pointnclick_init                  pointnclick
     00197CB8  _pointnclick_update                pointnclick

ASxxxx Linker V03.00/V05.40 + sdld,  page 81.
Hexadecimal  [32-Bits]

Area                                    Addr        Size        Decimal Bytes (Attributes)
--------------------------------        ----        ----        ------- ----- ------------
_CRASH_SCRATCH2                     00000000    000001CB =         459. bytes (ABS,CON)

      Value  Global                              Global Defined In Module
      -----  --------------------------------   ------------------------
ASxxxx Linker V03.00/V05.40 + sdld,  page 82.
Hexadecimal  [32-Bits]

Area                                    Addr        Size        Decimal Bytes (Attributes)
--------------------------------        ----        ----        ------- ----- ------------
_CODE_17                            00114000    00004000 =       16384. bytes (REL,CON)

      Value  Global                              Global Defined In Module
      -----  --------------------------------   ------------------------
     00114000  _load_init                         data_manager
     00114013  _spritesheet_none_far              data_manager
     00114016  _load_bkg_tileset                  data_manager
     001140F3  _load_background                   data_manager
     001141B9  _load_sprite                       data_manager
     0011428F  _load_bounds                       data_manager
     001142AC  _do_load_palette                   data_manager
     00114331  _load_scene                        data_manager
     00114997  _load_player                       data_manager
     001149E0  _load_emote                        data_manager
     001149F9  ___func_bg_9_1__tilemap            bg_9_1__tilemap
     001149F9  _bg_9_1__tilemap                   bg_9_1__tilemap
     001154F1  ___func_bg_gameover_tileset        bg_gameover_tileset
     001154F1  _bg_gameover_tileset               bg_gameover_tileset
     00115FA3  ___func_bg_schoolext_tileset       bg_schoolext_tileset
     00115FA3  _bg_schoolext_tileset              bg_schoolext_tileset
     001174CC  _song_song_templateffrzref_Data    song_song_templateffrzref_Da
     001174E1  ___func_scene_62_collisions        scene_62_collisions
     001174E1  _scene_62_collisions               scene_62_collisions
     00117FD9  _trigger_26_interact               trigger_26_interact
     00117FDC  GBVM$trigger_26_interact$17b25ea   trigger_26_interact
ASxxxx Linker V03.00/V05.40 + sdld,  page 83.
Hexadecimal  [32-Bits]

Area                                    Addr        Size        Decimal Bytes (Attributes)
--------------------------------        ----        ----        ------- ----- ------------
_CODE_31                            001F4000    00003FFE =       16382. bytes (REL,CON)

      Value  Global                              Global Defined In Module
      -----  --------------------------------   ------------------------
     001F4000  _events_init                       events
     001F4040  _timers_init                       events
     001F4080  _restore_sram_bank                 flasher
     001F40B6  _restore_sram                      flasher
     001F40CC  _save_sram                         flasher
     001F40F8  _music_init_driver                 music_manager
     001F4154  _music_init_events                 music_manager
     001F4190  _music_events_poll                 music_manager
     001F41B8  _music_pause                       music_manager
     001F41DA  ___func_VM_LOAD_SAVE               vm_load_save
     001F41DA  _vm_save_clear                     vm_load_save
     001F41E9  _vm_save_peek                      vm_load_save
     001F426B  ___func_VM_PROJECTILE              vm_projectiles
     001F426B  _vm_projectile_launch              vm_projectiles
     001F42AC  _vm_projectile_load_type           vm_projectiles
     001F433E  ___func_VM_SCENE                   vm_scene
     001F433E  _vm_scene_push                     vm_scene
     001F43B4  _vm_scene_pop                      vm_scene
     001F43C2  _vm_scene_pop_all                  vm_scene
     001F43CD  _vm_scene_stack_reset              vm_scene
     001F43D6  _itoa_fmt                          vm_ui_a
     001F440A  .utoa_fmt                          vm_ui_a
     001F44B4  _actor_11_interact                 actor_11_interact
     001F44B5  GBVM$actor_11_interact$744db674_   actor_11_interact
     001F4515  _actor_12_interact                 actor_12_interact
     001F4516  GBVM$actor_12_interact$b351b5a9_   actor_12_interact
     001F459F  _actor_13_interact                 actor_13_interact
     001F45A0  GBVM$actor_13_interact$be93cacd_   actor_13_interact
     001F4629  _actor_14_interact                 actor_14_interact
     001F462A  GBVM$actor_14_interact$1469b162_   actor_14_interact
     001F46B3  _actor_20_interact                 actor_20_interact
     001F46B4  GBVM$actor_20_interact$54e10deb_   actor_20_interact
     001F4740  _actor_32_interact                 actor_32_interact
     001F4741  GBVM$actor_32_interact$bba2fdf4_   actor_32_interact
     001F47FC  _actor_33_interact                 actor_33_interact
     001F47FD  GBVM$actor_33_interact$f1ed644a_   actor_33_interact
     001F4851  _actor_34_interact                 actor_34_interact
     001F4852  GBVM$actor_34_interact$065d03f3_   actor_34_interact
     001F48A6  _actor_84_interact                 actor_84_interact
     001F48A7  GBVM$actor_84_interact$74c55148_   actor_84_interact
     001F4986  ___func_bg_blackdoor_tileset       bg_blackdoor_tileset
     001F4986  _bg_blackdoor_tileset              bg_blackdoor_tileset
     001F4A58  ___func_frame_image                frame_image
     001F4A58  _frame_image                       frame_image
     001F4AE8  ___func_palette_10                 palette_10
     001F4AE8  _palette_10                        palette_10
     001F4B2B  ___func_palette_11                 palette_11
     001F4B2B  _palette_11                        palette_11
     001F4B6E  ___func_palette_12                 palette_12
     001F4B6E  _palette_12                        palette_12
ASxxxx Linker V03.00/V05.40 + sdld,  page 84.
Hexadecimal  [32-Bits]

Area                                    Addr        Size        Decimal Bytes (Attributes)
--------------------------------        ----        ----        ------- ----- ------------
_CODE_31                            001F4000    00003FFE =       16382. bytes (REL,CON)

      Value  Global                              Global Defined In Module
      -----  --------------------------------   ------------------------
     001F4BB1  ___func_palette_13                 palette_13
     001F4BB1  _palette_13                        palette_13
     001F4BF4  ___func_palette_14                 palette_14
     001F4BF4  _palette_14                        palette_14
     001F4C37  ___func_palette_15                 palette_15
     001F4C37  _palette_15                        palette_15
     001F4C7A  ___func_palette_16                 palette_16
     001F4C7A  _palette_16                        palette_16
     001F4CBD  ___func_palette_17                 palette_17
     001F4CBD  _palette_17                        palette_17
     001F4D00  ___func_palette_18                 palette_18
     001F4D00  _palette_18                        palette_18
     001F4D43  ___func_palette_19                 palette_19
     001F4D43  _palette_19                        palette_19
     001F4D86  ___func_palette_2                  palette_2
     001F4D86  _palette_2                         palette_2
     001F4DC9  ___func_palette_20                 palette_20
     001F4DC9  _palette_20                        palette_20
     001F4E0C  ___func_palette_21                 palette_21
     001F4E0C  _palette_21                        palette_21
     001F4E4F  ___func_palette_22                 palette_22
     001F4E4F  _palette_22                        palette_22
     001F4E92  ___func_palette_23                 palette_23
     001F4E92  _palette_23                        palette_23
     001F4ED5  ___func_palette_24                 palette_24
     001F4ED5  _palette_24                        palette_24
     001F4F18  ___func_palette_25                 palette_25
     001F4F18  _palette_25                        palette_25
     001F4F5B  ___func_palette_26                 palette_26
     001F4F5B  _palette_26                        palette_26
     001F4F9E  ___func_palette_27                 palette_27
     001F4F9E  _palette_27                        palette_27
     001F4FE1  ___func_palette_28                 palette_28
     001F4FE1  _palette_28                        palette_28
     001F5024  ___func_palette_29                 palette_29
     001F5024  _palette_29                        palette_29
     001F5067  ___func_palette_3                  palette_3
     001F5067  _palette_3                         palette_3
     001F50AA  ___func_palette_30                 palette_30
     001F50AA  _palette_30                        palette_30
     001F50ED  ___func_palette_31                 palette_31
     001F50ED  _palette_31                        palette_31
     001F5130  ___func_palette_32                 palette_32
     001F5130  _palette_32                        palette_32
     001F5173  ___func_palette_33                 palette_33
     001F5173  _palette_33                        palette_33
     001F51B6  ___func_palette_34                 palette_34
     001F51B6  _palette_34                        palette_34
     001F51F9  ___func_palette_35                 palette_35
     001F51F9  _palette_35                        palette_35
     001F523C  ___func_palette_36                 palette_36
ASxxxx Linker V03.00/V05.40 + sdld,  page 85.
Hexadecimal  [32-Bits]

Area                                    Addr        Size        Decimal Bytes (Attributes)
--------------------------------        ----        ----        ------- ----- ------------
_CODE_31                            001F4000    00003FFE =       16382. bytes (REL,CON)

      Value  Global                              Global Defined In Module
      -----  --------------------------------   ------------------------
     001F523C  _palette_36                        palette_36
     001F527F  ___func_palette_37                 palette_37
     001F527F  _palette_37                        palette_37
     001F52C2  ___func_palette_38                 palette_38
     001F52C2  _palette_38                        palette_38
     001F5305  ___func_palette_39                 palette_39
     001F5305  _palette_39                        palette_39
     001F5348  ___func_palette_4                  palette_4
     001F5348  _palette_4                         palette_4
     001F538B  ___func_palette_40                 palette_40
     001F538B  _palette_40                        palette_40
     001F53CE  ___func_palette_41                 palette_41
     001F53CE  _palette_41                        palette_41
     001F5411  ___func_palette_42                 palette_42
     001F5411  _palette_42                        palette_42
     001F5454  ___func_palette_43                 palette_43
     001F5454  _palette_43                        palette_43
     001F5497  ___func_palette_44                 palette_44
     001F5497  _palette_44                        palette_44
     001F54DA  ___func_palette_45                 palette_45
     001F54DA  _palette_45                        palette_45
     001F551D  ___func_palette_46                 palette_46
     001F551D  _palette_46                        palette_46
     001F5560  ___func_palette_47                 palette_47
     001F5560  _palette_47                        palette_47
     001F55A3  ___func_palette_48                 palette_48
     001F55A3  _palette_48                        palette_48
     001F55E6  ___func_palette_49                 palette_49
     001F55E6  _palette_49                        palette_49
     001F5629  ___func_palette_5                  palette_5
     001F5629  _palette_5                         palette_5
     001F566C  ___func_palette_50                 palette_50
     001F566C  _palette_50                        palette_50
     001F56AF  ___func_palette_51                 palette_51
     001F56AF  _palette_51                        palette_51
     001F56F2  ___func_palette_52                 palette_52
     001F56F2  _palette_52                        palette_52
     001F5735  ___func_palette_53                 palette_53
     001F5735  _palette_53                        palette_53
     001F5778  _scene_10_init                     scene_10_init
     001F577B  GBVM$scene_10_init$a9a441af_4d22   scene_10_init
     001F577C  GBVM$scene_10_init$autofade$4356   scene_10_init
     001F5787  GBVM$scene_10_init$4bbd3da8_26a2   scene_10_init
     001F5793  GBVM$scene_10_init$77565121_8c59   scene_10_init
     001F57A5  GBVM$scene_10_init$9e48ff35_50c0   scene_10_init
     001F57D0  GBVM$scene_10_init$f14bb7b9_f5e7   scene_10_init
     001F5802  GBVM_END$scene_10_init$77565121_   scene_10_init
     001F5803  ___func_scene_14_actors            scene_14_actors
     001F5803  _scene_14_actors                   scene_14_actors
     001F586B  _scene_15_init                     scene_15_init
     001F586E  GBVM$scene_15_init$c9cae430_475a   scene_15_init
ASxxxx Linker V03.00/V05.40 + sdld,  page 86.
Hexadecimal  [32-Bits]

Area                                    Addr        Size        Decimal Bytes (Attributes)
--------------------------------        ----        ----        ------- ----- ------------
_CODE_31                            001F4000    00003FFE =       16382. bytes (REL,CON)

      Value  Global                              Global Defined In Module
      -----  --------------------------------   ------------------------
     001F5876  GBVM$scene_15_init$4bc11c87_3835   scene_15_init
     001F587B  GBVM$scene_15_init$e1bac545_7882   scene_15_init
     001F58D0  GBVM$scene_15_init$autofade$34e9   scene_15_init
     001F58DB  GBVM$scene_15_init$70576979_dd27   scene_15_init
     001F58E7  GBVM$scene_15_init$5680929d_e6e7   scene_15_init
     001F591A  _scene_16_init                     scene_16_init
     001F591D  GBVM$scene_16_init$83369855_3989   scene_16_init
     001F5955  GBVM$scene_16_init$autofade$3f0b   scene_16_init
     001F5960  GBVM$scene_16_init$8d40a47e_56ad   scene_16_init
     001F596C  GBVM$scene_16_init$b33b4027_2c5a   scene_16_init
     001F599F  _scene_17_init                     scene_17_init
     001F59A2  GBVM$scene_17_init$1f5df6e3_196e   scene_17_init
     001F59DC  GBVM$scene_17_init$autofade$daf6   scene_17_init
     001F59E7  GBVM$scene_17_init$347a831b_180b   scene_17_init
     001F59F3  GBVM$scene_17_init$401699a5_a9d2   scene_17_init
     001F5A26  _scene_18_init                     scene_18_init
     001F5A29  GBVM$scene_18_init$681edb94_eb39   scene_18_init
     001F5A74  GBVM$scene_18_init$autofade$003e   scene_18_init
     001F5A7F  GBVM$scene_18_init$6702f0f8_a2e0   scene_18_init
     001F5A8B  GBVM$scene_18_init$45b9f406_20eb   scene_18_init
     001F5ABE  _scene_19_init                     scene_19_init
     001F5AC1  GBVM$scene_19_init$2c6512b7_822f   scene_19_init
     001F5B16  GBVM$scene_19_init$autofade$edea   scene_19_init
     001F5B21  GBVM$scene_19_init$ab663128_c903   scene_19_init
     001F5B2D  GBVM$scene_19_init$be1e7d79_0d8b   scene_19_init
     001F5B60  ___func_scene_2_actors             scene_2_actors
     001F5B60  _scene_2_actors                    scene_2_actors
     001F5BC8  _scene_2_init                      scene_2_init
     001F5BC9  GBVM$scene_2_init$de6a6d4e_26e8_   scene_2_init
     001F5BCE  GBVM$scene_2_init$c1bc5440_6c21_   scene_2_init
     001F5BD6  GBVM$scene_2_init$bb20a911_1cf6_   scene_2_init
     001F5BD6  GBVM_END$scene_2_init$c1bc5440_6   scene_2_init
     001F5BDE  GBVM$scene_2_init$10c25db1_e174_   scene_2_init
     001F5BDE  GBVM_END$scene_2_init$bb20a911_1   scene_2_init
     001F5BE6  GBVM$scene_2_init$0c2872fb_d2a3_   scene_2_init
     001F5BE6  GBVM_END$scene_2_init$10c25db1_e   scene_2_init
     001F5BEE  GBVM$scene_2_init$c65b8d27_a7f6_   scene_2_init
     001F5BEE  GBVM_END$scene_2_init$0c2872fb_d   scene_2_init
     001F5BF6  GBVM$scene_2_init$8c7583f7_11ab_   scene_2_init
     001F5BF6  GBVM_END$scene_2_init$c65b8d27_a   scene_2_init
     001F5BFE  GBVM$scene_2_init$13558de1_5cfd_   scene_2_init
     001F5BFE  GBVM_END$scene_2_init$8c7583f7_1   scene_2_init
     001F5C06  GBVM$scene_2_init$675288b5_c362_   scene_2_init
     001F5C06  GBVM_END$scene_2_init$13558de1_5   scene_2_init
     001F5C0E  GBVM$scene_2_init$f0de0718_a167_   scene_2_init
     001F5C0E  GBVM_END$scene_2_init$675288b5_c   scene_2_init
     001F5C15  GBVM$scene_2_init$autofade$849bf   scene_2_init
     001F5C21  _scene_20_init                     scene_20_init
     001F5C24  GBVM$scene_20_init$1c9ff2a3_4b83   scene_20_init
     001F5C28  GBVM$scene_20_init$autofade$2bce   scene_20_init
     001F5C33  GBVM$scene_20_init$e715ef7b_1be8   scene_20_init
ASxxxx Linker V03.00/V05.40 + sdld,  page 87.
Hexadecimal  [32-Bits]

Area                                    Addr        Size        Decimal Bytes (Attributes)
--------------------------------        ----        ----        ------- ----- ------------
_CODE_31                            001F4000    00003FFE =       16382. bytes (REL,CON)

      Value  Global                              Global Defined In Module
      -----  --------------------------------   ------------------------
     001F5C8B  GBVM$scene_20_init$38f06b58_8fdb   scene_20_init
     001F5CBE  _scene_22_init                     scene_22_init
     001F5CC1  GBVM$scene_22_init$autofade$00c8   scene_22_init
     001F5CCC  GBVM$scene_22_init$cd13c195_2727   scene_22_init
     001F5D52  GBVM$scene_22_init$b87e7b20_e681   scene_22_init
     001F5D57  GBVM$scene_22_init$80bbe356_161c   scene_22_init
     001F5D8A  _scene_23_init                     scene_23_init
     001F5D8D  GBVM$scene_23_init$7141d67b_c4a6   scene_23_init
     001F5D91  GBVM$scene_23_init$autofade$4853   scene_23_init
     001F5D9C  GBVM$scene_23_init$d9cfe1db_de88   scene_23_init
     001F5DF4  GBVM$scene_23_init$52f825d2_c526   scene_23_init
     001F5E27  _scene_27_init                     scene_27_init
     001F5E2A  GBVM$scene_27_init$a64798f5_ee1e   scene_27_init
     001F5E2B  GBVM$scene_27_init$autofade$fdf7   scene_27_init
     001F5E36  GBVM$scene_27_init$6303b426_cf08   scene_27_init
     001F5EE0  GBVM$scene_27_init$fe63d251_c27a   scene_27_init
     001F5F13  ___func_scene_28_actors            scene_28_actors
     001F5F13  _scene_28_actors                   scene_28_actors
     001F5F7B  _scene_31_init                     scene_31_init
     001F5F7E  GBVM$scene_31_init$94b317a5_6bd9   scene_31_init
     001F5F82  GBVM$scene_31_init$autofade$2316   scene_31_init
     001F5F8D  GBVM$scene_31_init$c55decac_6e2e   scene_31_init
     001F5FEA  GBVM$scene_31_init$438ddc72_65d9   scene_31_init
     001F5FF6  GBVM$scene_31_init$98380a64_c1f9   scene_31_init
     001F5FF8  ___func_scene_34_actors            scene_34_actors
     001F5FF8  _scene_34_actors                   scene_34_actors
     001F6094  ___func_scene_36_actors            scene_36_actors
     001F6094  _scene_36_actors                   scene_36_actors
     001F60FC  ___func_scene_37_actors            scene_37_actors
     001F60FC  _scene_37_actors                   scene_37_actors
     001F6198  _scene_38_init                     scene_38_init
     001F619B  GBVM$scene_38_init$autofade$a031   scene_38_init
     001F61A6  GBVM$scene_38_init$281c51ff_d211   scene_38_init
     001F6204  GBVM$scene_38_init$e567bfd1_eb7f   scene_38_init
     001F6237  _scene_39_init                     scene_39_init
     001F623A  GBVM$scene_39_init$autofade$0bb1   scene_39_init
     001F6245  GBVM$scene_39_init$a159c3b0_d504   scene_39_init
     001F6268  GBVM$scene_39_init$0cd75b10_fa66   scene_39_init
     001F628B  GBVM$scene_39_init$6f71e8d8_7052   scene_39_init
     001F62AE  GBVM$scene_39_init$86893119_a4c0   scene_39_init
     001F62E1  _scene_40_init                     scene_40_init
     001F62E4  GBVM$scene_40_init$autofade$b413   scene_40_init
     001F62EF  GBVM$scene_40_init$05338528_52db   scene_40_init
     001F6312  GBVM$scene_40_init$a4d8cc5b_05e4   scene_40_init
     001F6335  GBVM$scene_40_init$7abbdc75_bcaa   scene_40_init
     001F6368  ___func_scene_41_actors            scene_41_actors
     001F6368  _scene_41_actors                   scene_41_actors
     001F63D0  _scene_46_init                     scene_46_init
     001F63D3  GBVM$scene_46_init$autofade$c84f   scene_46_init
     001F63DE  GBVM$scene_46_init$c8130c64_6584   scene_46_init
     001F645C  GBVM$scene_46_init$e1de4881_a73a   scene_46_init
ASxxxx Linker V03.00/V05.40 + sdld,  page 88.
Hexadecimal  [32-Bits]

Area                                    Addr        Size        Decimal Bytes (Attributes)
--------------------------------        ----        ----        ------- ----- ------------
_CODE_31                            001F4000    00003FFE =       16382. bytes (REL,CON)

      Value  Global                              Global Defined In Module
      -----  --------------------------------   ------------------------
     001F647F  GBVM$scene_46_init$3ea2f741_0465   scene_46_init
     001F64B2  _scene_47_init                     scene_47_init
     001F64B5  GBVM$scene_47_init$autofade$5cfd   scene_47_init
     001F64C0  GBVM$scene_47_init$e3a6d1b5_6ed5   scene_47_init
     001F656D  GBVM$scene_47_init$99207324_0d16   scene_47_init
     001F6590  GBVM$scene_47_init$14f178fa_6d82   scene_47_init
     001F6596  _scene_49_init                     scene_49_init
     001F6599  GBVM$scene_49_init$e12a5472_0537   scene_49_init
     001F659D  GBVM$scene_49_init$autofade$d192   scene_49_init
     001F65A8  GBVM$scene_49_init$8841fa46_9a8e   scene_49_init
     001F65B4  GBVM$scene_49_init$34f11cf3_41fa   scene_49_init
     001F65B5  GBVM$scene_49_init$eb690bc0_d8aa   scene_49_init
     001F65DE  _scene_50_init                     scene_50_init
     001F65E1  GBVM$scene_50_init$autofade$7fec   scene_50_init
     001F65EC  GBVM$scene_50_init$64a0c67b_ab37   scene_50_init
     001F65F8  GBVM$scene_50_init$8f5cfda8_61ba   scene_50_init
     001F662B  _scene_52_init                     scene_52_init
     001F662E  GBVM$scene_52_init$autofade$5b1a   scene_52_init
     001F6639  GBVM$scene_52_init$37e78464_7a7f   scene_52_init
     001F668A  GBVM$scene_52_init$a6285c01_3ca9   scene_52_init
     001F668F  GBVM$scene_52_init$310e09d0_e6d6   scene_52_init
     001F6694  GBVM$scene_52_init$5cea6e35_32b6   scene_52_init
     001F6699  GBVM$scene_52_init$59f75726_422e   scene_52_init
     001F669E  GBVM$scene_52_init$d091b765_fb9e   scene_52_init
     001F66A3  GBVM$scene_52_init$9b2c9985_d1cf   scene_52_init
     001F66B8  GBVM$scene_52_init$a0160990_82f5   scene_52_init
     001F66C2  GBVM$scene_52_init$2a21d68b_9b9f   scene_52_init
     001F66CC  GBVM$scene_52_init$4c5f80fa_e20f   scene_52_init
     001F66D6  GBVM$scene_52_init$9c53a803_56fd   scene_52_init
     001F66E0  GBVM$scene_52_init$0154a6b7_31b6   scene_52_init
     001F66E5  GBVM$scene_52_init$4807a4b0_db39   scene_52_init
     001F66EA  GBVM$scene_52_init$ae9e87d0_6ee7   scene_52_init
     001F66EF  GBVM$scene_52_init$c0599c2c_e64e   scene_52_init
     001F66F6  GBVM_END$scene_52_init$9b2c9985_   scene_52_init
     001F66F7  ___func_scene_56_actors            scene_56_actors
     001F66F7  _scene_56_actors                   scene_56_actors
     001F6793  _scene_6_init                      scene_6_init
     001F6796  GBVM$scene_6_init$575087b7_ccf4_   scene_6_init
     001F679E  GBVM$scene_6_init$252be868_ba1c_   scene_6_init
     001F67A3  GBVM$scene_6_init$autofade$3f21c   scene_6_init
     001F67AE  GBVM$scene_6_init$799492a3_ff68_   scene_6_init
     001F67FA  GBVM$scene_6_init$1bbd3371_4157_   scene_6_init
     001F682D  ___func_scene_61_actors            scene_61_actors
     001F682D  _scene_61_actors                   scene_61_actors
     001F6895  _scene_63_init                     scene_63_init
     001F6898  GBVM$scene_63_init$f65041b5_24d8   scene_63_init
     001F68A9  GBVM$scene_63_init$autofade$2d3f   scene_63_init
     001F68B4  GBVM$scene_63_init$e4a23b2f_1233   scene_63_init
     001F68C0  GBVM$scene_63_init$c1849b74_e90c   scene_63_init
     001F68C9  GBVM$scene_63_init$0d1fcabc_1515   scene_63_init
     001F6904  GBVM$scene_63_init$65fa9a13_04d4   scene_63_init
ASxxxx Linker V03.00/V05.40 + sdld,  page 89.
Hexadecimal  [32-Bits]

Area                                    Addr        Size        Decimal Bytes (Attributes)
--------------------------------        ----        ----        ------- ----- ------------
_CODE_31                            001F4000    00003FFE =       16382. bytes (REL,CON)

      Value  Global                              Global Defined In Module
      -----  --------------------------------   ------------------------
     001F6927  GBVM$scene_63_init$61a8460c_d261   scene_63_init
     001F6931  GBVM$scene_63_init$21d04d27_309f   scene_63_init
     001F6954  ___func_scene_65_actors            scene_65_actors
     001F6954  _scene_65_actors                   scene_65_actors
     001F69F0  _scene_66_init                     scene_66_init
     001F69F3  GBVM$scene_66_init$0d53b022_3dc9   scene_66_init
     001F69F7  GBVM$scene_66_init$3c903de8_0cfe   scene_66_init
     001F6A09  GBVM$scene_66_init$23c5b9de_afa7   scene_66_init
     001F6A13  GBVM$scene_66_init$bc29e81b_3e85   scene_66_init
     001F6A20  GBVM$scene_66_init$2bcd104d_2b1a   scene_66_init
     001F6A2A  GBVM$scene_66_init$d934c5d3_9f67   scene_66_init
     001F6A34  GBVM$scene_66_init$autofade$acba   scene_66_init
     001F6A34  GBVM_END$scene_66_init$3c903de8_   scene_66_init
     001F6A40  _scene_8_init                      scene_8_init
     001F6A43  GBVM$scene_8_init$cd4e7884_aafb_   scene_8_init
     001F6A4B  GBVM$scene_8_init$autofade$7f8b5   scene_8_init
     001F6A56  GBVM$scene_8_init$8a8722c7_baff_   scene_8_init
     001F6A97  GBVM$scene_8_init$962f918d_f765_   scene_8_init
     001F6ACA  _scene_9_init                      scene_9_init
     001F6ACD  GBVM$scene_9_init$64461ce2_9c5b_   scene_9_init
     001F6AD5  GBVM$scene_9_init$a8523b1b_cfa3_   scene_9_init
     001F6ADA  GBVM$scene_9_init$autofade$37732   scene_9_init
     001F6AE5  GBVM$scene_9_init$1434dcac_0b7f_   scene_9_init
     001F6B2D  GBVM$scene_9_init$b00ad996_aeb6_   scene_9_init
     001F6B60  _script_1                          script_1
     001F6B62  GBVM$script_1$f46c0325_47ac_412b   script_1
     001F6B73  GBVM$script_1$9f0637a3_d37a_4ea4   script_1
     001F6BAA  GBVM$script_1$4ecf8d47_2c9b_4212   script_1
     001F6BAA  GBVM_END$script_1$f46c0325_47ac_   script_1
     001F6BC4  _script_3                          script_3
     001F6BC6  GBVM$script_3$b9a01837_244d_452a   script_3
     001F6BDB  GBVM$script_3$86fe57df_3a22_424b   script_3
     001F6BE5  GBVM$script_3$6821d47e_9e40_4db5   script_3
     001F6BE5  GBVM_END$script_3$b9a01837_244d_   script_3
     001F6BFA  GBVM$script_3$d1ab077c_f84f_425f   script_3
     001F6C04  GBVM$script_3$83b60740_f032_431c   script_3
     001F6C04  GBVM_END$script_3$6821d47e_9e40_   script_3
     001F6C19  GBVM$script_3$a2af7933_30ce_487b   script_3
     001F6C23  GBVM$script_3$b961c47e_206d_474a   script_3
     001F6C23  GBVM_END$script_3$83b60740_f032_   script_3
     001F6C38  GBVM$script_3$39709654_52da_4c70   script_3
     001F6C42  GBVM$script_3$e72925c2_1f30_4455   script_3
     001F6C42  GBVM_END$script_3$b961c47e_206d_   script_3
     001F6C52  GBVM$script_3$58f4f866_22bf_4063   script_3
     001F6C62  GBVM$script_3$e2e24059_7100_4095   script_3
     001F6C84  _script_4                          script_4
     001F6C86  GBVM$script_4$f9f6f427_f800_46c2   script_4
     001F6CA2  GBVM$script_4$846dd96b_fffe_4338   script_4
     001F6CA6  GBVM$script_4$28842421_7ee7_420c   script_4
     001F6CAE  GBVM$script_4$198e002d_e15c_4407   script_4
     001F6CB6  GBVM$script_4$369e6b06_44ce_4fa0   script_4
ASxxxx Linker V03.00/V05.40 + sdld,  page 90.
Hexadecimal  [32-Bits]

Area                                    Addr        Size        Decimal Bytes (Attributes)
--------------------------------        ----        ----        ------- ----- ------------
_CODE_31                            001F4000    00003FFE =       16382. bytes (REL,CON)

      Value  Global                              Global Defined In Module
      -----  --------------------------------   ------------------------
     001F6CBE  GBVM$script_4$6e6fae7d_3a30_48a8   script_4
     001F6CC6  GBVM$script_4$f91292fd_f57f_4dc6   script_4
     001F6CCE  GBVM$script_4$66a5f53d_1f5d_4450   script_4
     001F6CCE  GBVM_END$script_4$f9f6f427_f800_   script_4
     001F6CE3  GBVM$script_4$25ad8c84_728f_43fc   script_4
     001F6CEF  GBVM$script_4$b9c82aa4_07d3_46aa   script_4
     001F6CEF  GBVM_END$script_4$66a5f53d_1f5d_   script_4
     001F6D1B  GBVM$script_4$75aa6e45_10b4_4fcb   script_4
     001F6D2A  GBVM$script_input_3$094a3257_f15   script_input_3
     001F6D2A  _script_input_3                    script_input_3
     001F6D44  GBVM$script_input_3$304d8f57_ff9   script_input_3
     001F6D5E  GBVM$script_input_3$480d220e_1e7   script_input_3
     001F6D5E  GBVM$script_input_3$df9666a3_5d6   script_input_3
     001F6D72  GBVM$script_input_3$940276d0_14d   script_input_3
     001F6D7E  GBVM$script_input_3$7374f2e3_599   script_input_3
     001F6D8A  GBVM_END$script_input_3$940276d0   script_input_3
     001F6D8D  GBVM$script_input_3$688dcc3a_b88   script_input_3
     001F6D8D  GBVM$script_input_3$863ac886_0f6   script_input_3
     001F6D92  GBVM$script_input_3$9e6eca43_36d   script_input_3
     001F6D92  GBVM_END$script_input_3$304d8f57   script_input_3
     001F6D9F  GBVM$script_input_3$6a6b15f9_182   script_input_3
     001F6D9F  GBVM$script_input_3$f5e8ec9c_a11   script_input_3
     001F6DAC  GBVM$script_input_3$9d040a43_543   script_input_3
     001F6DAC  GBVM_END$script_input_3$094a3257   script_input_3
     001F6DB6  GBVM$script_input_3$25887188_e94   script_input_3
     001F6DB6  GBVM$script_input_3$e9c38a3d_b29   script_input_3
     001F6DC8  GBVM$script_input_3$582a898f_b3f   script_input_3
     001F6DD5  GBVM$script_input_3$7af41759_ad9   script_input_3
     001F6DE1  GBVM$script_input_3$07498e2d_476   script_input_3
     001F6DEB  GBVM_END$script_input_3$7af41759   script_input_3
     001F6DEB  GBVM_END$script_input_3$e9c38a3d   script_input_3
     001F6DEC  ___func_sprite_aplhys_tileset      sprite_aplhys_tileset
     001F6DEC  _sprite_aplhys_tileset             sprite_aplhys_tileset
     001F6EAE  ___func_sprite_aplhys              sprite_aplhys
     001F6EAE  _sprite_aplhys_metasprite_0        sprite_aplhys
     001F6EBA  _sprite_aplhys_metasprite_1        sprite_aplhys
     001F6EC6  _sprite_aplhys_metasprite_2        sprite_aplhys
     001F6ED2  _sprite_aplhys_metasprite_3        sprite_aplhys
     001F6EDE  _sprite_aplhys_metasprite_4        sprite_aplhys
     001F6EE2  _sprite_aplhys_metasprites         sprite_aplhys
     001F6EEC  _sprite_aplhys_animations          sprite_aplhys
     001F6EFC  _sprite_aplhys_animations_lookup   sprite_aplhys
     001F6EFE  _sprite_aplhys                     sprite_aplhys
     001F6F11  ___func_sprite_can_t_spare_tiles   sprite_can_t_spare_tileset
     001F6F11  _sprite_can_t_spare_tileset        sprite_can_t_spare_tileset
     001F6F93  ___func_sprite_cursor2             sprite_cursor2
     001F6F93  _sprite_cursor2_metasprite_0       sprite_cursor2
     001F6F9B  _sprite_cursor2_metasprites        sprite_cursor2
     001F6F9D  _sprite_cursor2_animations         sprite_cursor2
     001F6FAD  _sprite_cursor2_animations_looku   sprite_cursor2
     001F6FAF  _sprite_cursor2                    sprite_cursor2
ASxxxx Linker V03.00/V05.40 + sdld,  page 91.
Hexadecimal  [32-Bits]

Area                                    Addr        Size        Decimal Bytes (Attributes)
--------------------------------        ----        ----        ------- ----- ------------
_CODE_31                            001F4000    00003FFE =       16382. bytes (REL,CON)

      Value  Global                              Global Defined In Module
      -----  --------------------------------   ------------------------
     001F6FC2  ___func_sprite_dust_piles          sprite_dust_piles
     001F6FC2  _sprite_dust_piles_metasprite_0    sprite_dust_piles
     001F6FF6  _sprite_dust_piles_metasprites     sprite_dust_piles
     001F6FF8  _sprite_dust_piles_animations      sprite_dust_piles
     001F7008  _sprite_dust_piles_animations_lo   sprite_dust_piles
     001F700A  _sprite_dust_piles                 sprite_dust_piles
     001F701D  ___func_sprite_hax_tileset         sprite_hax_tileset
     001F701D  _sprite_hax_tileset                sprite_hax_tileset
     001F709F  ___func_sprite_image               sprite_image
     001F709F  _sprite_image_metasprite_0         sprite_image
     001F70AB  _sprite_image_metasprite_1         sprite_image
     001F70B7  _sprite_image_metasprite_2         sprite_image
     001F70C3  _sprite_image_metasprite_3         sprite_image
     001F70CF  _sprite_image_metasprite_4         sprite_image
     001F70DB  _sprite_image_metasprite_5         sprite_image
     001F70E7  _sprite_image_metasprite_6         sprite_image
     001F70F3  _sprite_image_metasprite_7         sprite_image
     001F70FF  _sprite_image_metasprite_8         sprite_image
     001F710B  _sprite_image_metasprites          sprite_image
     001F7123  _sprite_image_animations           sprite_image
     001F7133  _sprite_image_animations_lookup    sprite_image
     001F7135  _sprite_image                      sprite_image
     001F7148  ___func_sprite_kris_lightworld     sprite_kris_lightworld
     001F7148  _sprite_kris_lightworld_metaspri   sprite_kris_lightworld
     001F7154  _sprite_kris_lightworld_metaspri   sprite_kris_lightworld
     001F7160  _sprite_kris_lightworld_metaspri   sprite_kris_lightworld
     001F716C  _sprite_kris_lightworld_metaspri   sprite_kris_lightworld
     001F7178  _sprite_kris_lightworld_metaspri   sprite_kris_lightworld
     001F7184  _sprite_kris_lightworld_metaspri   sprite_kris_lightworld
     001F7190  _sprite_kris_lightworld_metaspri   sprite_kris_lightworld
     001F719C  _sprite_kris_lightworld_metaspri   sprite_kris_lightworld
     001F71A8  _sprite_kris_lightworld_metaspri   sprite_kris_lightworld
     001F71C0  _sprite_kris_lightworld_animatio   sprite_kris_lightworld
     001F71D0  _sprite_kris_lightworld_animatio   sprite_kris_lightworld
     001F71D2  _sprite_kris_lightworld            sprite_kris_lightworld
     001F71E5  ___func_sprite_krisbattle          sprite_krisbattle
     001F71E5  _sprite_krisbattle_metasprite_0    sprite_krisbattle
     001F7209  _sprite_krisbattle_metasprites     sprite_krisbattle
     001F720B  _sprite_krisbattle_animations      sprite_krisbattle
     001F721B  _sprite_krisbattle_animations_lo   sprite_krisbattle
     001F721D  _sprite_krisbattle                 sprite_krisbattle
     001F7230  ___func_sprite_krisbt2o_tileset    sprite_krisbt2o_tileset
     001F7230  _sprite_krisbt2o_tileset           sprite_krisbt2o_tileset
     001F72B2  ___func_sprite_lancer_tileset      sprite_lancer_tileset
     001F72B2  _sprite_lancer_tileset             sprite_lancer_tileset
     001F7394  ___func_sprite_lancer              sprite_lancer
     001F7394  _sprite_lancer_metasprite_0        sprite_lancer
     001F73B4  _sprite_lancer_metasprites         sprite_lancer
     001F73B6  _sprite_lancer_animations          sprite_lancer
     001F73C6  _sprite_lancer_animations_lookup   sprite_lancer
     001F73C8  _sprite_lancer                     sprite_lancer
ASxxxx Linker V03.00/V05.40 + sdld,  page 92.
Hexadecimal  [32-Bits]

Area                                    Addr        Size        Decimal Bytes (Attributes)
--------------------------------        ----        ----        ------- ----- ------------
_CODE_31                            001F4000    00003FFE =       16382. bytes (REL,CON)

      Value  Global                              Global Defined In Module
      -----  --------------------------------   ------------------------
     001F73DB  ___func_sprite_lowercases          sprite_lowercases
     001F73DB  _sprite_lowercases_metasprite_0    sprite_lowercases
     001F745F  _sprite_lowercases_metasprites     sprite_lowercases
     001F7461  _sprite_lowercases_animations      sprite_lowercases
     001F7471  _sprite_lowercases_animations_lo   sprite_lowercases
     001F7473  _sprite_lowercases                 sprite_lowercases
     001F7486  ___func_sprite_new_piskel_3__til   sprite_new_piskel_3__tileset
     001F7486  _sprite_new_piskel_3__tileset      sprite_new_piskel_3__tileset
     001F7568  ___func_sprite_new_piskel_3_       sprite_new_piskel_3_
     001F7568  _sprite_new_piskel_3__metasprite   sprite_new_piskel_3_
     001F7574  _sprite_new_piskel_3__metasprite   sprite_new_piskel_3_
     001F7580  _sprite_new_piskel_3__metasprite   sprite_new_piskel_3_
     001F758C  _sprite_new_piskel_3__metasprite   sprite_new_piskel_3_
     001F7598  _sprite_new_piskel_3__metasprite   sprite_new_piskel_3_
     001F75A0  _sprite_new_piskel_3__animations   sprite_new_piskel_3_
     001F75B0  _sprite_new_piskel_3__animations   sprite_new_piskel_3_
     001F75B2  _sprite_new_piskel_3_              sprite_new_piskel_3_
     001F75C5  ___func_sprite_new_piskel_tilese   sprite_new_piskel_tileset
     001F75C5  _sprite_new_piskel_tileset         sprite_new_piskel_tileset
     001F7647  ___func_sprite_noellee_tileset     sprite_noellee_tileset
     001F7647  _sprite_noellee_tileset            sprite_noellee_tileset
     001F7709  ___func_sprite_noellee             sprite_noellee
     001F7709  _sprite_noellee_metasprite_0       sprite_noellee
     001F7715  _sprite_noellee_metasprite_1       sprite_noellee
     001F7721  _sprite_noellee_metasprite_2       sprite_noellee
     001F772D  _sprite_noellee_metasprite_3       sprite_noellee
     001F7739  _sprite_noellee_metasprites        sprite_noellee
     001F7741  _sprite_noellee_animations         sprite_noellee
     001F7751  _sprite_noellee_animations_looku   sprite_noellee
     001F7753  _sprite_noellee                    sprite_noellee
     001F7766  ___func_sprite_piaf_tileset        sprite_piaf_tileset
     001F7766  _sprite_piaf_tileset               sprite_piaf_tileset
     001F7828  ___func_sprite_ralsei              sprite_ralsei
     001F7828  _sprite_ralsei_metasprite_0        sprite_ralsei
     001F7834  _sprite_ralsei_metasprite_1        sprite_ralsei
     001F7840  _sprite_ralsei_metasprite_2        sprite_ralsei
     001F784C  _sprite_ralsei_metasprite_3        sprite_ralsei
     001F7858  _sprite_ralsei_metasprite_4        sprite_ralsei
     001F7864  _sprite_ralsei_metasprite_5        sprite_ralsei
     001F7870  _sprite_ralsei_metasprite_6        sprite_ralsei
     001F787C  _sprite_ralsei_metasprite_7        sprite_ralsei
     001F7888  _sprite_ralsei_metasprites         sprite_ralsei
     001F78A0  _sprite_ralsei_animations          sprite_ralsei
     001F78B0  _sprite_ralsei_animations_lookup   sprite_ralsei
     001F78B2  _sprite_ralsei                     sprite_ralsei
     001F78C5  ___func_sprite_ralseibt_tileset    sprite_ralseibt_tileset
     001F78C5  _sprite_ralseibt_tileset           sprite_ralseibt_tileset
     001F7987  ___func_sprite_saveae              sprite_saveae
     001F7987  _sprite_saveae_metasprite_0        sprite_saveae
     001F799B  _sprite_saveae_metasprite_1        sprite_saveae
     001F79AF  _sprite_saveae_metasprites         sprite_saveae
ASxxxx Linker V03.00/V05.40 + sdld,  page 93.
Hexadecimal  [32-Bits]

Area                                    Addr        Size        Decimal Bytes (Attributes)
--------------------------------        ----        ----        ------- ----- ------------
_CODE_31                            001F4000    00003FFE =       16382. bytes (REL,CON)

      Value  Global                              Global Defined In Module
      -----  --------------------------------   ------------------------
     001F79B3  _sprite_saveae_animations          sprite_saveae
     001F79C3  _sprite_saveae_animations_lookup   sprite_saveae
     001F79C5  _sprite_saveae                     sprite_saveae
     001F79D8  ___func_sprite_spare_tileset       sprite_spare_tileset
     001F79D8  _sprite_spare_tileset              sprite_spare_tileset
     001F7A5A  ___func_sprite_susie               sprite_susie
     001F7A5A  _sprite_susie_metasprite_0         sprite_susie
     001F7A66  _sprite_susie_metasprite_1         sprite_susie
     001F7A72  _sprite_susie_metasprite_2         sprite_susie
     001F7A7E  _sprite_susie_metasprite_3         sprite_susie
     001F7A8A  _sprite_susie_metasprite_4         sprite_susie
     001F7A96  _sprite_susie_metasprite_5         sprite_susie
     001F7AA2  _sprite_susie_metasprite_6         sprite_susie
     001F7AAE  _sprite_susie_metasprite_7         sprite_susie
     001F7ABA  _sprite_susie_metasprites          sprite_susie
     001F7AD2  _sprite_susie_animations           sprite_susie
     001F7AE2  _sprite_susie_animations_lookup    sprite_susie
     001F7AE4  _sprite_susie                      sprite_susie
     001F7AF7  ___func_sprite_susiebto2_tileset   sprite_susiebto2_tileset
     001F7AF7  _sprite_susiebto2_tileset          sprite_susiebto2_tileset
     001F7BD9  ___func_sprite_susiebto2           sprite_susiebto2
     001F7BD9  _sprite_susiebto2_metasprite_0     sprite_susiebto2
     001F7BF9  _sprite_susiebto2_metasprites      sprite_susiebto2
     001F7BFB  _sprite_susiebto2_animations       sprite_susiebto2
     001F7C0B  _sprite_susiebto2_animations_loo   sprite_susiebto2
     001F7C0D  _sprite_susiebto2                  sprite_susiebto2
     001F7C20  ___func_sprite_sword2o_tileset     sprite_sword2o_tileset
     001F7C20  _sprite_sword2o_tileset            sprite_sword2o_tileset
     001F7CA2  ___func_tileset_default_frame      tileset_default_frame
     001F7CA2  _tileset_default_frame             tileset_default_frame
     001F7D34  _trigger_12_interact               trigger_12_interact
     001F7D37  GBVM$trigger_12_interact$9b0140d   trigger_12_interact
     001F7D40  GBVM$trigger_12_interact$e9b2934   trigger_12_interact
     001F7D73  GBVM$trigger_12_interact$320e661   trigger_12_interact
     001F7DA8  GBVM$trigger_12_interact$ad8d757   trigger_12_interact
     001F7DDF  GBVM_END$trigger_12_interact$9b0   trigger_12_interact
     001F7DE0  _trigger_14_interact               trigger_14_interact
     001F7DE3  GBVM$trigger_14_interact$a4b391d   trigger_14_interact
     001F7DEC  GBVM$trigger_14_interact$9d20068   trigger_14_interact
     001F7E19  GBVM$trigger_14_interact$eca47d5   trigger_14_interact
     001F7E4B  GBVM_END$trigger_14_interact$a4b   trigger_14_interact
     001F7E4C  _trigger_16_interact               trigger_16_interact
     001F7E4F  GBVM$trigger_16_interact$8f41fd8   trigger_16_interact
     001F7E61  GBVM$trigger_16_interact$799f380   trigger_16_interact
     001F7E9F  GBVM$trigger_16_interact$20ef68f   trigger_16_interact
     001F7ED1  GBVM_END$trigger_16_interact$8f4   trigger_16_interact
     001F7ED2  _trigger_39_interact               trigger_39_interact
     001F7ED5  GBVM$trigger_39_interact$0544291   trigger_39_interact
     001F7EEA  GBVM$trigger_39_interact$705365e   trigger_39_interact
     001F7F1C  GBVM_END$trigger_39_interact$054   trigger_39_interact
     001F7F1D  _trigger_40_interact               trigger_40_interact
ASxxxx Linker V03.00/V05.40 + sdld,  page 94.
Hexadecimal  [32-Bits]

Area                                    Addr        Size        Decimal Bytes (Attributes)
--------------------------------        ----        ----        ------- ----- ------------
_CODE_31                            001F4000    00003FFE =       16382. bytes (REL,CON)

      Value  Global                              Global Defined In Module
      -----  --------------------------------   ------------------------
     001F7F20  GBVM$trigger_40_interact$54395c6   trigger_40_interact
     001F7F35  GBVM$trigger_40_interact$36c8e37   trigger_40_interact
     001F7F67  GBVM_END$trigger_40_interact$543   trigger_40_interact
     001F7F68  _trigger_41_interact               trigger_41_interact
     001F7F6B  GBVM$trigger_41_interact$9232c46   trigger_41_interact
     001F7F80  GBVM$trigger_41_interact$f479443   trigger_41_interact
     001F7FB2  GBVM_END$trigger_41_interact$923   trigger_41_interact
     001F7FB3  _trigger_43_interact               trigger_43_interact
     001F7FB6  GBVM$trigger_43_interact$e905335   trigger_43_interact
     001F7FCB  GBVM$trigger_43_interact$42d7c03   trigger_43_interact
     001F7FFD  GBVM_END$trigger_43_interact$e90   trigger_43_interact

ASxxxx Linker V03.00/V05.40 + sdld,  page 95.
Hexadecimal  [32-Bits]

Area                                    Addr        Size        Decimal Bytes (Attributes)
--------------------------------        ----        ----        ------- ----- ------------
_CODE_26                            001A4000    00004000 =       16384. bytes (REL,CON)

      Value  Global                              Global Defined In Module
      -----  --------------------------------   ------------------------
     001A4000  _CGBFadeToWhiteStep                fade_manager
     001A4039  _CGBFadeToBlackStep                fade_manager
     001A4074  _ApplyPaletteChangeColor           fade_manager
     001A40B1  _fade_speeds                       fade_manager
     001A40B8  _DMGFadeToWhiteStep                fade_manager
     001A40D9  _DMGFadeToBlackStep                fade_manager
     001A40FC  _ApplyPaletteChangeDMG             fade_manager
     001A4152  _fade_init                         fade_manager
     001A4173  _fade_in                           fade_manager
     001A41AB  _fade_out                          fade_manager
     001A41E4  _fade_update                       fade_manager
     001A4237  _fade_applypalettechange           fade_manager
     001A4249  _fade_setspeed                     fade_manager
     001A4259  _fade_in_modal                     fade_manager
     001A4273  _fade_out_modal                    fade_manager
     001A428D  _actor_3_interact                  actor_3_interact
     001A4290  GBVM$actor_3_interact$e612b152_6   actor_3_interact
     001A42D1  GBVM$actor_3_interact$7ac29269_9   actor_3_interact
     001A430E  GBVM$actor_3_interact$e49179e0_a   actor_3_interact
     001A4320  GBVM$actor_3_interact$4d80b03e_4   actor_3_interact
     001A4366  GBVM$actor_3_interact$022a5f26_a   actor_3_interact
     001A4378  GBVM$actor_3_interact$76783a0b_b   actor_3_interact
     001A438A  GBVM$actor_3_interact$746d7e63_3   actor_3_interact
     001A43C8  GBVM$actor_3_interact$76649e1f_b   actor_3_interact
     001A43DA  GBVM$actor_3_interact$e4e1a365_8   actor_3_interact
     001A43E9  GBVM$actor_3_interact$49266658_1   actor_3_interact
     001A43FB  GBVM$actor_3_interact$c9ec8dc7_c   actor_3_interact
     001A449A  GBVM_END$actor_3_interact$76783a   actor_3_interact
     001A449D  GBVM$actor_3_interact$c4c61311_b   actor_3_interact
     001A44AF  GBVM$actor_3_interact$80ae5dfd_f   actor_3_interact
     001A4512  GBVM$actor_3_interact$92a77565_6   actor_3_interact
     001A451E  GBVM_END$actor_3_interact$022a5f   actor_3_interact
     001A451E  GBVM_END$actor_3_interact$e49179   actor_3_interact
     001A451F  _actor_78_interact                 actor_78_interact
     001A4522  GBVM$actor_78_interact$33cf3fda_   actor_78_interact
     001A452C  GBVM$actor_78_interact$6dc88f28_   actor_78_interact
     001A4536  GBVM$actor_78_interact$d27e4f08_   actor_78_interact
     001A4541  GBVM$actor_78_interact$178e0998_   actor_78_interact
     001A4695  GBVM$actor_78_interact$7b481bd7_   actor_78_interact
     001A469F  GBVM$actor_78_interact$f3df3c0d_   actor_78_interact
     001A46A8  GBVM$actor_78_interact$915ea0ce_   actor_78_interact
     001A46B4  GBVM$actor_78_interact$faef5f3a_   actor_78_interact
     001A46BD  GBVM$actor_78_interact$75b36495_   actor_78_interact
     001A4788  GBVM$actor_78_interact$b9dd6442_   actor_78_interact
     001A4792  GBVM$actor_78_interact$298ab465_   actor_78_interact
     001A479D  ___func_bg_5_tilemap_attr          bg_5_tilemap_attr
     001A479D  _bg_5_tilemap_attr                 bg_5_tilemap_attr
     001A4A3D  ___func_bg_5_tilemap               bg_5_tilemap
     001A4A3D  _bg_5_tilemap                      bg_5_tilemap
     001A4CDD  ___func_bg_castle_town_tileset     bg_castle_town_tileset
ASxxxx Linker V03.00/V05.40 + sdld,  page 96.
Hexadecimal  [32-Bits]

Area                                    Addr        Size        Decimal Bytes (Attributes)
--------------------------------        ----        ----        ------- ----- ------------
_CODE_26                            001A4000    00004000 =       16384. bytes (REL,CON)

      Value  Global                              Global Defined In Module
      -----  --------------------------------   ------------------------
     001A4CDD  _bg_castle_town_tileset            bg_castle_town_tileset
     001A4FCF  ___func_bg_city2_tilemap_attr      bg_city2_tilemap_attr
     001A4FCF  _bg_city2_tilemap_attr             bg_city2_tilemap_attr
     001A5269  ___func_bg_city2_tilemap           bg_city2_tilemap
     001A5269  _bg_city2_tilemap                  bg_city2_tilemap
     001A5503  ___func_bg_kris_s_tilemap_attr     bg_kris_s_tilemap_attr
     001A5503  _bg_kris_s_tilemap_attr            bg_kris_s_tilemap_attr
     001A57BF  ___func_bg_kris_s_tilemap          bg_kris_s_tilemap
     001A57BF  _bg_kris_s_tilemap                 bg_kris_s_tilemap
     001A5A7B  ___func_bg_kris_ss_tilemap_attr    bg_kris_ss_tilemap_attr
     001A5A7B  _bg_kris_ss_tilemap_attr           bg_kris_ss_tilemap_attr
     001A5CFB  ___func_bg_kris_ss_tilemap         bg_kris_ss_tilemap
     001A5CFB  _bg_kris_ss_tilemap                bg_kris_ss_tilemap
     001A5F7B  ___func_bg_schoolint_tilemap       bg_schoolint_tilemap
     001A5F7B  _bg_schoolint_tilemap              bg_schoolint_tilemap
     001A624B  _scene_13_init                     scene_13_init
     001A624E  GBVM$scene_13_init$autofade$8435   scene_13_init
     001A6259  GBVM$scene_13_init$0e99b984_b438   scene_13_init
     001A648C  GBVM$scene_13_init$56add9c7_9633   scene_13_init
     001A64BF  ___func_scene_28_collisions        scene_28_collisions
     001A64BF  _scene_28_collisions               scene_28_collisions
     001A67B3  ___func_scene_29_collisions        scene_29_collisions
     001A67B3  _scene_29_collisions               scene_29_collisions
     001A6AA7  ___func_scene_30_collisions        scene_30_collisions
     001A6AA7  _scene_30_collisions               scene_30_collisions
     001A6D9B  ___func_scene_33_collisions        scene_33_collisions
     001A6D9B  _scene_33_collisions               scene_33_collisions
     001A7057  ___func_scene_34_collisions        scene_34_collisions
     001A7057  _scene_34_collisions               scene_34_collisions
     001A72D7  ___func_scene_40_collisions        scene_40_collisions
     001A72D7  _scene_40_collisions               scene_40_collisions
     001A7571  ___func_scene_45_collisions        scene_45_collisions
     001A7571  _scene_45_collisions               scene_45_collisions
     001A7841  _scene_51_init                     scene_51_init
     001A7844  GBVM$scene_51_init$425c9d74_e814   scene_51_init
     001A7848  GBVM$scene_51_init$autofade$6189   scene_51_init
     001A7853  GBVM$scene_51_init$8758a83f_d5eb   scene_51_init
     001A78CF  GBVM$scene_51_init$11b2e6c6_ac95   scene_51_init
     001A78DB  GBVM$scene_51_init$810e472d_0c33   scene_51_init
     001A78E4  GBVM$scene_51_init$c1824b37_68df   scene_51_init
     001A794E  GBVM$scene_51_init$7b6dc85c_1986   scene_51_init
     001A7971  GBVM$scene_51_init$be16d751_81f1   scene_51_init
     001A797A  GBVM$scene_51_init$6f598a51_1104   scene_51_init
     001A79DF  GBVM$scene_51_init$3cdeff71_4f61   scene_51_init
     001A79E8  GBVM$scene_51_init$912c21d0_5741   scene_51_init
     001A79F4  GBVM$scene_51_init$803afca2_1e86   scene_51_init
     001A79FD  GBVM$scene_51_init$c871ff02_84a0   scene_51_init
     001A7A42  GBVM$scene_51_init$7d7cc502_1ecd   scene_51_init
     001A7A65  GBVM$scene_51_init$364b4e57_51c0   scene_51_init
     001A7A6F  GBVM$scene_51_init$04098048_491a   scene_51_init
     001A7A92  GBVM$scene_51_init$d0abc0d3_12f1   scene_51_init
ASxxxx Linker V03.00/V05.40 + sdld,  page 97.
Hexadecimal  [32-Bits]

Area                                    Addr        Size        Decimal Bytes (Attributes)
--------------------------------        ----        ----        ------- ----- ------------
_CODE_26                            001A4000    00004000 =       16384. bytes (REL,CON)

      Value  Global                              Global Defined In Module
      -----  --------------------------------   ------------------------
     001A7AC5  ___func_scene_56_collisions        scene_56_collisions
     001A7AC5  _scene_56_collisions               scene_56_collisions
     001A7D65  _scene_56_init                     scene_56_init
     001A7D68  GBVM$scene_56_init$3f868dc3_e4bc   scene_56_init
     001A7D72  GBVM$scene_56_init$autofade$1f3a   scene_56_init
     001A7D7E  ___func_sprite_susiehs_copie_til   sprite_susiehs_copie_tileset
     001A7D7E  _sprite_susiehs_copie_tileset      sprite_susiehs_copie_tileset
ASxxxx Linker V03.00/V05.40 + sdld,  page 98.
Hexadecimal  [32-Bits]

Area                                    Addr        Size        Decimal Bytes (Attributes)
--------------------------------        ----        ----        ------- ----- ------------
_CODE_30                            001E4000    00003FFE =       16382. bytes (REL,CON)

      Value  Global                              Global Defined In Module
      -----  --------------------------------   ------------------------
     001E4068  _save_sram_banks                   
     001E40F0  _erase_flash                       
     001E4106  ___func_VM_MATH                    vm_math
     001E4106  _vm_sin_scale                      vm_math
     001E41A2  _vm_cos_scale                      vm_math
     001E4240  ___func_VM_MUSIC                   vm_music
     001E4240  _vm_music_play                     vm_music
     001E428D  _vm_music_stop                     vm_music
     001E42AF  _vm_music_mute                     vm_music
     001E42ED  _vm_music_routine                  vm_music
     001E4314  _vm_music_setpos                   vm_music
     001E431A  _vm_sound_mastervol                vm_music
     001E4320  _vm_sfx_play                       vm_music
     001E4393  ___func_VM_RTC                     vm_rtc
     001E4393  _vm_rtc_latch                      vm_rtc
     001E439B  _vm_rtc_get                        vm_rtc
     001E4402  _vm_rtc_set                        vm_rtc
     001E4460  _vm_rtc_start                      vm_rtc
     001E4483  _actor_21_interact                 actor_21_interact
     001E4486  GBVM$actor_21_interact$e9439320_   actor_21_interact
     001E448F  GBVM$actor_21_interact$fd40e9f0_   actor_21_interact
     001E452B  GBVM$actor_21_interact$0f82cd06_   actor_21_interact
     001E457D  GBVM$actor_21_interact$407189cc_   actor_21_interact
     001E4586  GBVM$actor_21_interact$2ddea851_   actor_21_interact
     001E45BB  GBVM_END$actor_21_interact$40718   actor_21_interact
     001E45BE  GBVM$actor_21_interact$4edf0db9_   actor_21_interact
     001E45EC  GBVM$actor_21_interact$e8bd0a32_   actor_21_interact
     001E45F1  GBVM_END$actor_21_interact$e9439   actor_21_interact
     001E45F2  _actor_23_interact                 actor_23_interact
     001E45F5  GBVM$actor_23_interact$eff05470_   actor_23_interact
     001E45FE  GBVM$actor_23_interact$d7bd0932_   actor_23_interact
     001E469A  GBVM$actor_23_interact$09a734bc_   actor_23_interact
     001E46EC  GBVM$actor_23_interact$411fe746_   actor_23_interact
     001E46F5  GBVM$actor_23_interact$64d85b7f_   actor_23_interact
     001E472A  GBVM_END$actor_23_interact$411fe   actor_23_interact
     001E472D  GBVM$actor_23_interact$58cc4c01_   actor_23_interact
     001E475B  GBVM$actor_23_interact$77292210_   actor_23_interact
     001E4760  GBVM_END$actor_23_interact$eff05   actor_23_interact
     001E4761  _actor_56_interact                 actor_56_interact
     001E4762  GBVM$actor_56_interact$f84a68ed_   actor_56_interact
     001E4861  _actor_57_interact                 actor_57_interact
     001E4862  GBVM$actor_57_interact$f3128d81_   actor_57_interact
     001E4955  _actor_70_interact                 actor_70_interact
     001E4958  GBVM$actor_70_interact$e847b0bf_   actor_70_interact
     001E496A  GBVM$actor_70_interact$a41453bb_   actor_70_interact
     001E49D0  GBVM$actor_70_interact$a9ae893a_   actor_70_interact
     001E4A0B  GBVM$actor_70_interact$1abe29fd_   actor_70_interact
     001E4A20  GBVM$actor_70_interact$a9da4ac5_   actor_70_interact
     001E4A5A  GBVM$actor_70_interact$fefb219c_   actor_70_interact
     001E4A66  GBVM$actor_70_interact$310eaf90_   actor_70_interact
ASxxxx Linker V03.00/V05.40 + sdld,  page 99.
Hexadecimal  [32-Bits]

Area                                    Addr        Size        Decimal Bytes (Attributes)
--------------------------------        ----        ----        ------- ----- ------------
_CODE_30                            001E4000    00003FFE =       16382. bytes (REL,CON)

      Value  Global                              Global Defined In Module
      -----  --------------------------------   ------------------------
     001E4A70  GBVM$actor_70_interact$963c5acf_   actor_70_interact
     001E4A7A  GBVM_END$actor_70_interact$1abe2   actor_70_interact
     001E4A7D  GBVM_END$actor_70_interact$e847b   actor_70_interact
     001E4A7E  ___func_bg_chamberkriso2_tilemap   bg_chamberkriso2_tilemap_att
     001E4A7E  _bg_chamberkriso2_tilemap_attr     bg_chamberkriso2_tilemap_att
     001E4BE6  ___func_bg_chamberkriso2_tilemap   bg_chamberkriso2_tilemap
     001E4BE6  _bg_chamberkriso2_tilemap          bg_chamberkriso2_tilemap
     001E4D4E  ___func_bg_legend6d_tilemap_attr   bg_legend6d_tilemap_attr
     001E4D4E  _bg_legend6d_tilemap_attr          bg_legend6d_tilemap_attr
     001E4EB6  ___func_bg_legend6d_tilemap        bg_legend6d_tilemap
     001E4EB6  _bg_legend6d_tilemap               bg_legend6d_tilemap
     001E501E  ___func_bg_name_input_background   bg_name_input_background_til
     001E501E  _bg_name_input_background_tilema   bg_name_input_background_til
     001E5186  ___func_bg_name_input_background   bg_name_input_background_til
     001E5186  _bg_name_input_background_tilema   bg_name_input_background_til
     001E52EE  ___func_bg_new_piskel_43__tilema   bg_new_piskel_43__tilemap_at
     001E52EE  _bg_new_piskel_43__tilemap_attr    bg_new_piskel_43__tilemap_at
     001E5456  ___func_bg_new_piskel_43__tilema   bg_new_piskel_43__tilemap
     001E5456  _bg_new_piskel_43__tilemap         bg_new_piskel_43__tilemap
     001E55BE  ___func_bg_the_castle_copie_tile   bg_the_castle_copie_tilemap_
     001E55BE  _bg_the_castle_copie_tilemap_att   bg_the_castle_copie_tilemap_
     001E5726  ___func_bg_the_castle_copie_tile   bg_the_castle_copie_tilemap
     001E5726  _bg_the_castle_copie_tilemap       bg_the_castle_copie_tilemap
     001E588E  ___func_bg_toilet_tilemap_attr     bg_toilet_tilemap_attr
     001E588E  _bg_toilet_tilemap_attr            bg_toilet_tilemap_attr
     001E59F6  ___func_bg_toilet_tilemap          bg_toilet_tilemap
     001E59F6  _bg_toilet_tilemap                 bg_toilet_tilemap
     001E5B5E  ___func_bg_toilet2_tilemap_attr    bg_toilet2_tilemap_attr
     001E5B5E  _bg_toilet2_tilemap_attr           bg_toilet2_tilemap_attr
     001E5CC6  ___func_bg_toilet2_tilemap         bg_toilet2_tilemap
     001E5CC6  _bg_toilet2_tilemap                bg_toilet2_tilemap
     001E5E2E  ___func_palette_1                  palette_1
     001E5E2E  _palette_1                         palette_1
     001E5E71  _scene_1_init                      scene_1_init
     001E5E74  GBVM$scene_1_init$autofade$5ec19   scene_1_init
     001E5E7F  GBVM$scene_1_init$bfd81802_8068_   scene_1_init
     001E5F2D  GBVM$scene_1_init$82010101_4f08_   scene_1_init
     001E5F60  ___func_scene_2_collisions         scene_2_collisions
     001E5F60  _scene_2_collisions                scene_2_collisions
     001E60C8  _scene_3_init                      scene_3_init
     001E60CB  GBVM$scene_3_init$autofade$8247d   scene_3_init
     001E60D6  GBVM$scene_3_init$0446dccc_0519_   scene_3_init
     001E611B  GBVM$scene_3_init$1573368f_4d3e_   scene_3_init
     001E612E  GBVM$scene_3_init$666caaf3_57ef_   scene_3_init
     001E61AB  GBVM$scene_3_init$6037f883_be4e_   scene_3_init
     001E61DE  _scene_30_init                     scene_30_init
     001E61E1  GBVM$scene_30_init$0620d7be_023e   scene_30_init
     001E61E2  GBVM$scene_30_init$autofade$3b75   scene_30_init
     001E61ED  GBVM$scene_30_init$5f9ae742_cffb   scene_30_init
     001E626B  GBVM$scene_30_init$6a2a1c7c_0c8a   scene_30_init
     001E62A6  GBVM$scene_30_init$3a902e29_61a4   scene_30_init
ASxxxx Linker V03.00/V05.40 + sdld,  page 100.
Hexadecimal  [32-Bits]

Area                                    Addr        Size        Decimal Bytes (Attributes)
--------------------------------        ----        ----        ------- ----- ------------
_CODE_30                            001E4000    00003FFE =       16382. bytes (REL,CON)

      Value  Global                              Global Defined In Module
      -----  --------------------------------   ------------------------
     001E62AF  GBVM$scene_30_init$64355613_20b4   scene_30_init
     001E62E4  GBVM$scene_30_init$e98826a7_9a51   scene_30_init
     001E6316  GBVM_END$scene_30_init$3a902e29_   scene_30_init
     001E6317  ___func_scene_35_collisions        scene_35_collisions
     001E6317  _scene_35_collisions               scene_35_collisions
     001E647F  ___func_scene_36_collisions        scene_36_collisions
     001E647F  _scene_36_collisions               scene_36_collisions
     001E65E7  ___func_scene_38_collisions        scene_38_collisions
     001E65E7  _scene_38_collisions               scene_38_collisions
     001E6761  _scene_4_init                      scene_4_init
     001E6764  GBVM$scene_4_init$3e6abe5c_d8da_   scene_4_init
     001E676C  GBVM$scene_4_init$54c8e6b3_374e_   scene_4_init
     001E6771  GBVM$scene_4_init$autofade$7af9a   scene_4_init
     001E677C  GBVM$scene_4_init$289c8da1_ce67_   scene_4_init
     001E678D  GBVM$scene_4_init$f8883969_760a_   scene_4_init
     001E67A0  GBVM$scene_4_init$718b8ed9_1e80_   scene_4_init
     001E682B  GBVM$scene_4_init$5c708f7d_b4b9_   scene_4_init
     001E685E  _scene_41_init                     scene_41_init
     001E6861  GBVM$scene_41_init$13014ded_3dc1   scene_41_init
     001E686B  GBVM$scene_41_init$3c52d529_7596   scene_41_init
     001E6875  GBVM$scene_41_init$cdb9cd06_b35b   scene_41_init
     001E687F  GBVM$scene_41_init$autofade$c7e3   scene_41_init
     001E688A  GBVM$scene_41_init$5687c364_bac3   scene_41_init
     001E68AD  GBVM$scene_41_init$a93f7f73_78d9   scene_41_init
     001E68D0  GBVM$scene_41_init$90bbafcc_07bf   scene_41_init
     001E68DC  GBVM$scene_41_init$c56e62d8_0ee8   scene_41_init
     001E68E6  GBVM$scene_41_init$19266401_42b5   scene_41_init
     001E68F0  GBVM$scene_41_init$29b0940e_5b24   scene_41_init
     001E6913  GBVM$scene_41_init$c224fe9d_9a23   scene_41_init
     001E6936  GBVM$scene_41_init$7ca6ff2c_9e59   scene_41_init
     001E6969  ___func_scene_44_actors            scene_44_actors
     001E6969  _scene_44_actors                   scene_44_actors
     001E6A6D  ___func_scene_44_collisions        scene_44_collisions
     001E6A6D  _scene_44_collisions               scene_44_collisions
     001E6BD5  _scene_45_init                     scene_45_init
     001E6BD8  GBVM$scene_45_init$e6f1efb7_f3b0   scene_45_init
     001E6BE2  GBVM$scene_45_init$8c542424_1962   scene_45_init
     001E6BEC  GBVM$scene_45_init$916d709e_deb0   scene_45_init
     001E6BF6  GBVM$scene_45_init$24227c03_d072   scene_45_init
     001E6BFA  GBVM$scene_45_init$autofade$fa30   scene_45_init
     001E6C05  GBVM$scene_45_init$7e730b8c_ed50   scene_45_init
     001E6C49  GBVM$scene_45_init$4e3d06a0_74a4   scene_45_init
     001E6C53  GBVM$scene_45_init$68cb7ec0_c327   scene_45_init
     001E6C76  GBVM$scene_45_init$f9d23d4b_0266   scene_45_init
     001E6D4F  ___func_scene_48_collisions        scene_48_collisions
     001E6D4F  _scene_48_collisions               scene_48_collisions
     001E6EC9  _scene_5_init                      scene_5_init
     001E6ECC  GBVM$scene_5_init$a3cf0720_b1ff_   scene_5_init
     001E6ED4  GBVM$scene_5_init$5ff6815d_9880_   scene_5_init
     001E6ED9  GBVM$scene_5_init$autofade$a5298   scene_5_init
     001E6EE4  GBVM$scene_5_init$f6f2f5bc_ac7f_   scene_5_init
ASxxxx Linker V03.00/V05.40 + sdld,  page 101.
Hexadecimal  [32-Bits]

Area                                    Addr        Size        Decimal Bytes (Attributes)
--------------------------------        ----        ----        ------- ----- ------------
_CODE_30                            001E4000    00003FFE =       16382. bytes (REL,CON)

      Value  Global                              Global Defined In Module
      -----  --------------------------------   ------------------------
     001E6EF0  GBVM$scene_5_init$74ff5b2f_9311_   scene_5_init
     001E6F83  GBVM$scene_5_init$746c3b88_64c3_   scene_5_init
     001E6FB6  ___func_scene_50_collisions        scene_50_collisions
     001E6FB6  _scene_50_collisions               scene_50_collisions
     001E7130  ___func_scene_52_collisions        scene_52_collisions
     001E7130  _scene_52_collisions               scene_52_collisions
     001E7298  ___func_scene_60_actors            scene_60_actors
     001E7298  _scene_60_actors                   scene_60_actors
     001E73D0  ___func_scene_68_collisions        scene_68_collisions
     001E73D0  _scene_68_collisions               scene_68_collisions
     001E7538  _scene_7_init                      scene_7_init
     001E753B  GBVM$scene_7_init$autofade$a4494   scene_7_init
     001E7546  GBVM$scene_7_init$cc49a834_4f49_   scene_7_init
     001E75B6  GBVM$scene_7_init$70b0b900_ad1b_   scene_7_init
     001E75C9  GBVM$scene_7_init$28d57e26_41ec_   scene_7_init
     001E7639  GBVM$scene_7_init$e13ebc8b_09f2_   scene_7_init
     001E766C  ___func_scene_8_collisions         scene_8_collisions
     001E766C  _scene_8_collisions                scene_8_collisions
     001E77D4  _scene_logo_init                   scene_logo_init
     001E77D7  GBVM$scene_logo_init$76271b1b_ab   scene_logo_init
     001E77D8  GBVM$scene_logo_init$8343c54c_07   scene_logo_init
     001E77E0  GBVM$scene_logo_init$ee70d672_5c   scene_logo_init
     001E77E4  GBVM$scene_logo_init$autofade$38   scene_logo_init
     001E77EF  GBVM$scene_logo_init$e88fcc15_89   scene_logo_init
     001E77F6  GBVM$scene_logo_init$3ca25377_ab   scene_logo_init
     001E78AD  GBVM$scene_logo_init$9daba1e6_c0   scene_logo_init
     001E78E0  _script_8                          script_8
     001E78E2  GBVM$script_8$9d55491b_8e1b_4596   script_8
     001E78F4  GBVM$script_8$7d646871_82ef_4fcd   script_8
     001E793A  GBVM$script_8$acdbb9fe_5f8a_4de4   script_8
     001E7941  GBVM$script_8$78b549c3_30da_49bb   script_8
     001E7988  GBVM$script_8$177ab0b8_6421_435d   script_8
     001E7A0F  GBVM_END$script_8$9d55491b_8e1b_   script_8
     001E7A13  ___func_sprite_image_tileset       sprite_image_tileset
     001E7A13  _sprite_image_tileset              sprite_image_tileset
     001E7B55  ___func_sprite_krisbattle_tilese   sprite_krisbattle_tileset
     001E7B55  _sprite_krisbattle_tileset         sprite_krisbattle_tileset
     001E7C57  ___func_sprite_toriel              sprite_toriel
     001E7C57  _sprite_toriel_metasprite_0        sprite_toriel
     001E7C6B  _sprite_toriel_metasprite_1        sprite_toriel
     001E7C7F  _sprite_toriel_metasprite_2        sprite_toriel
     001E7C93  _sprite_toriel_metasprite_3        sprite_toriel
     001E7CA7  _sprite_toriel_metasprite_4        sprite_toriel
     001E7CBB  _sprite_toriel_metasprite_5        sprite_toriel
     001E7CCF  _sprite_toriel_metasprite_6        sprite_toriel
     001E7CE3  _sprite_toriel_metasprite_7        sprite_toriel
     001E7CF7  _sprite_toriel_metasprite_8        sprite_toriel
     001E7D0B  _sprite_toriel_metasprite_9        sprite_toriel
     001E7D1F  _sprite_toriel_metasprites         sprite_toriel
     001E7D3F  _sprite_toriel_animations          sprite_toriel
     001E7D4F  _sprite_toriel_animations_lookup   sprite_toriel
ASxxxx Linker V03.00/V05.40 + sdld,  page 102.
Hexadecimal  [32-Bits]

Area                                    Addr        Size        Decimal Bytes (Attributes)
--------------------------------        ----        ----        ------- ----- ------------
_CODE_30                            001E4000    00003FFE =       16382. bytes (REL,CON)

      Value  Global                              Global Defined In Module
      -----  --------------------------------   ------------------------
     001E7D51  _sprite_toriel                     sprite_toriel
     001E7D64  _trigger_11_interact               trigger_11_interact
     001E7D65  GBVM$trigger_11_interact$ae9fdcf   trigger_11_interact
     001E7D6E  GBVM$trigger_11_interact$c0e8e72   trigger_11_interact
     001E7E9D  GBVM$trigger_11_interact$4d8d631   trigger_11_interact
     001E7ECA  GBVM_END$trigger_11_interact$ae9   trigger_11_interact
     001E7ECB  _trigger_21_interact               trigger_21_interact
     001E7ECC  GBVM$trigger_21_interact$9bed4ab   trigger_21_interact

ASxxxx Linker V03.00/V05.40 + sdld,  page 103.
Hexadecimal  [32-Bits]

Area                                    Addr        Size        Decimal Bytes (Attributes)
--------------------------------        ----        ----        ------- ----- ------------
_CODE_7                             00074000    00004000 =       16384. bytes (REL,CON)

      Value  Global                              Global Defined In Module
      -----  --------------------------------   ------------------------
     00074000  _printer_send_receive              gbprinter
     00074036  _printer_send_byte                 gbprinter
     00074049  _printer_send_command              gbprinter
     0007406C  _printer_print_tile                gbprinter
     000740FD  _printer_wait                      gbprinter
     0007412F  _gbprinter_detect                  gbprinter
     00074149  _gbprinter_print_overlay           gbprinter
     00076495  _song_school_Data                  song_school_Data
     000764AA  ___func_scene_14_sprites           scene_14_sprites
     000764AA  _scene_14_sprites                  scene_14_sprites
     000764B0  ___func_scene_25_collisions        scene_25_collisions
     000764B0  _scene_25_collisions               scene_25_collisions
ASxxxx Linker V03.00/V05.40 + sdld,  page 104.
Hexadecimal  [32-Bits]

Area                                    Addr        Size        Decimal Bytes (Attributes)
--------------------------------        ----        ----        ------- ----- ------------
_HEADER_SIO0                        00000000    00000004 =           4. bytes (ABS,CON)

      Value  Global                              Global Defined In Module
      -----  --------------------------------   ------------------------
ASxxxx Linker V03.00/V05.40 + sdld,  page 105.
Hexadecimal  [32-Bits]

Area                                    Addr        Size        Decimal Bytes (Attributes)
--------------------------------        ----        ----        ------- ----- ------------
_HEADER_TIMER0                      00000000    00000004 =           4. bytes (ABS,CON)

      Value  Global                              Global Defined In Module
      -----  --------------------------------   ------------------------
ASxxxx Linker V03.00/V05.40 + sdld,  page 106.
Hexadecimal  [32-Bits]

Area                                    Addr        Size        Decimal Bytes (Attributes)
--------------------------------        ----        ----        ------- ----- ------------
_CODE_12                            000C4000    00004000 =       16384. bytes (REL,CON)

      Value  Global                              Global Defined In Module
      -----  --------------------------------   ------------------------
     000C4000  _remove_LCD_ISRs                   interrupts
     000C401B  ___func_VM_MAIN                    vm
     000C401B  _vm_call                           vm
     000C405D  _vm_ret                            vm
     000C40BD  _vm_call_far                       vm
     000C413C  _vm_ret_far                        vm
     000C41B4  _vm_push                           vm
     000C41DF  _vm_pop                            vm
     000C421A  _vm_loop                           vm
     000C42A5  _vm_jump                           vm
     000C42B1  _wait_frames                       vm
     000C431E  _vm_invoke                         vm
     000C444B  _vm_join                           vm
     000C44AD  _vm_terminate                      vm
     000C44DA  _vm_if                             vm
     000C461F  _vm_if_const                       vm
     000C4734  _vm_push_value                     vm
     000C4786  _vm_push_value_ind                 vm
     000C47FB  _vm_push_reference                 vm
     000C4852  _vm_reserve                        vm
     000C4880  _vm_set                            vm
     000C48E1  _vm_set_const                      vm
     000C490D  _vm_get_tlocal                     vm
     000C499A  _vm_test_terminate                 vm
     000C49A5  _vm_idle                           vm
     000C49B1  _vm_init_rng                       vm
     000C49DD  _vm_rand                           vm
     000C4A1F  _vm_lock                           vm
     000C4A2E  _vm_unlock                         vm
     000C4A41  _vm_raise                          vm
     000C4A83  _vm_set_indirect                   vm
     000C4AFE  _vm_get_indirect                   vm
     000C4B79  _vm_poll_loaded                    vm
     000C4BA9  _vm_memset                         vm
     000C4BE3  _vm_memcpy                         vm
     000C4C60  _script_runner_init                vm
     000C4D17  _script_execute                    vm
     000C4E7D  _script_terminate                  vm
     000C4EE2  _script_detach_hthread             vm
     000C4F1E  ___func_bg_8_tilemap               bg_8_tilemap
     000C4F1E  _bg_8_tilemap                      bg_8_tilemap
     000C5E92  ___func_bg_krislegend_tileset      bg_krislegend_tileset
     000C5E92  _bg_krislegend_tileset             bg_krislegend_tileset
     000C62B4  ___func_font_gbs_mono_0            font_gbs_mono_0
     000C7084  _font_gbs_mono_0                   font_gbs_mono_0
     000C708C  ___func_scene_60_collisions        scene_60_collisions
     000C708C  _scene_60_collisions               scene_60_collisions

ASxxxx Linker V03.00/V05.40 + sdld,  page 107.
Hexadecimal  [32-Bits]

Area                                    Addr        Size        Decimal Bytes (Attributes)
--------------------------------        ----        ----        ------- ----- ------------
_CODE_6                             00064000    00004000 =       16384. bytes (REL,CON)

      Value  Global                              Global Defined In Module
      -----  --------------------------------   ------------------------
     00064000  _palette_init                      palette
     00064037  _CGBZeroPalette                    palette
     0006404C  ___func_bg_4_tilemap               bg_4_tilemap
     0006404C  _bg_4_tilemap                      bg_4_tilemap
     00067FEB  _song_savetransfer_Data            song_savetransfer_Data

ASxxxx Linker V03.00/V05.40 + sdld,  page 108.
Hexadecimal  [32-Bits]

Area                                    Addr        Size        Decimal Bytes (Attributes)
--------------------------------        ----        ----        ------- ----- ------------
_CODE_1                             00014000    00003FFF =       16383. bytes (REL,CON)

      Value  Global                              Global Defined In Module
      -----  --------------------------------   ------------------------
     00014000  _ui_swap_tiles                     
     0001404A  _ui_print_make_mask_lr             
     00014066  _ui_print_make_mask_rl             
     00014082  _ui_init                           ui
     00014153  _ui_load_tiles                     ui
     000141AA  _ui_draw_frame                     ui
     00014244  _ui_print_reset                    ui
     00014295  _ui_set_start_tile                 ui
     000142C1  _ui_print_render                   ui
     00014557  _ui_draw_text_buffer_char          ui
     00014A41  _ui_run_menu                       ui
     00014C18  _ui_run_modal                      ui
     00014CD2  ___func_VM_SGB                     vm_sgb
     00014CD2  ___func_bg_3_tilemap_attr          bg_3_tilemap_attr
     00014CD2  _bg_3_tilemap_attr                 bg_3_tilemap_attr
     000174A2  ___func_bg_city2_tileset           bg_city2_tileset
     000174A2  _bg_city2_tileset                  bg_city2_tileset
     00017FD4  ___func_sprite_new_piskel_1_png    sprite_new_piskel_1_png
     00017FD4  _sprite_new_piskel_1_png_metaspr   sprite_new_piskel_1_png
     00017FD8  _sprite_new_piskel_1_png_metaspr   sprite_new_piskel_1_png
     00017FDA  _sprite_new_piskel_1_png_animati   sprite_new_piskel_1_png
     00017FEA  _sprite_new_piskel_1_png_animati   sprite_new_piskel_1_png
     00017FEC  _sprite_new_piskel_1_png           sprite_new_piskel_1_png

ASxxxx Linker V03.00/V05.40 + sdld,  page 109.
Hexadecimal  [32-Bits]

Area                                    Addr        Size        Decimal Bytes (Attributes)
--------------------------------        ----        ----        ------- ----- ------------
_CODE_27                            001B4000    00003FFE =       16382. bytes (REL,CON)

      Value  Global                              Global Defined In Module
      -----  --------------------------------   ------------------------
     001B4000  _set_sgb_border                    sgb_border
     001B41EA  _actor_55_interact                 actor_55_interact
     001B41EB  GBVM$actor_55_interact$bf41f64a_   actor_55_interact
     001B41FD  GBVM$actor_55_interact$72514615_   actor_55_interact
     001B43B2  GBVM$actor_55_interact$d88bf790_   actor_55_interact
     001B43BA  GBVM$actor_55_interact$61058046_   actor_55_interact
     001B4426  GBVM_END$actor_55_interact$bf41f   actor_55_interact
     001B4427  _actor_59_interact                 actor_59_interact
     001B442A  GBVM$actor_59_interact$afa12735_   actor_59_interact
     001B443C  GBVM$actor_59_interact$4d484979_   actor_59_interact
     001B4579  GBVM$actor_59_interact$bac33afc_   actor_59_interact
     001B459C  GBVM$actor_59_interact$2f6a99a4_   actor_59_interact
     001B45D1  GBVM$actor_59_interact$57c7fea5_   actor_59_interact
     001B4644  GBVM$actor_59_interact$dfff7293_   actor_59_interact
     001B4667  GBVM$actor_59_interact$39a42ae0_   actor_59_interact
     001B466C  GBVM_END$actor_59_interact$afa12   actor_59_interact
     001B466D  _actor_79_interact                 actor_79_interact
     001B4670  GBVM$actor_79_interact$1248ce39_   actor_79_interact
     001B467B  GBVM$actor_79_interact$338db20a_   actor_79_interact
     001B4684  GBVM$actor_79_interact$2d8f0ac4_   actor_79_interact
     001B47D8  GBVM$actor_79_interact$e0d72d49_   actor_79_interact
     001B47E1  GBVM$actor_79_interact$1e50f289_   actor_79_interact
     001B47ED  GBVM$actor_79_interact$7926dca2_   actor_79_interact
     001B47F6  GBVM$actor_79_interact$0f599618_   actor_79_interact
     001B48C1  GBVM$actor_79_interact$74e3bc1d_   actor_79_interact
     001B48CB  GBVM$actor_79_interact$fd1fc7bf_   actor_79_interact
     001B48D6  ___func_bg_6_tileset               bg_6_tileset
     001B48D6  _bg_6_tileset                      bg_6_tileset
     001B4B38  ___func_bg_castle_town_tilemap_a   bg_castle_town_tilemap_attr
     001B4B38  _bg_castle_town_tilemap_attr       bg_castle_town_tilemap_attr
     001B4D40  ___func_bg_castle_town_tilemap     bg_castle_town_tilemap
     001B4D40  _bg_castle_town_tilemap            bg_castle_town_tilemap
     001B4F48  ___func_bg_dogchecksavedata_copi   bg_dogchecksavedata_copie_0_
     001B4F48  _bg_dogchecksavedata_copie_0_til   bg_dogchecksavedata_copie_0_
     001B5155  ___func_bg_dogchecksavedata_copi   bg_dogchecksavedata_copie_0_
     001B5155  _bg_dogchecksavedata_copie_0_til   bg_dogchecksavedata_copie_0_
     001B5362  ___func_bg_exterior_tilemap_attr   bg_exterior_tilemap_attr
     001B5362  _bg_exterior_tilemap_attr          bg_exterior_tilemap_attr
     001B5599  ___func_bg_exterior_tilemap        bg_exterior_tilemap
     001B5599  _bg_exterior_tilemap               bg_exterior_tilemap
     001B57D0  ___func_bg_legend5d_tilemap_attr   bg_legend5d_tilemap_attr
     001B57D0  _bg_legend5d_tilemap_attr          bg_legend5d_tilemap_attr
     001B59C8  ___func_bg_legend5d_tilemap        bg_legend5d_tilemap
     001B59C8  _bg_legend5d_tilemap               bg_legend5d_tilemap
     001B5BC0  ___func_bg_legend7f_tilemap_attr   bg_legend7f_tilemap_attr
     001B5BC0  _bg_legend7f_tilemap_attr          bg_legend7f_tilemap_attr
     001B5E16  ___func_bg_legend7f_tilemap        bg_legend7f_tilemap
     001B5E16  _bg_legend7f_tilemap               bg_legend7f_tilemap
     001B606C  ___func_bg_legendsealfountain_ti   bg_legendsealfountain_tilema
     001B606C  _bg_legendsealfountain_tilemap     bg_legendsealfountain_tilema
ASxxxx Linker V03.00/V05.40 + sdld,  page 110.
Hexadecimal  [32-Bits]

Area                                    Addr        Size        Decimal Bytes (Attributes)
--------------------------------        ----        ----        ------- ----- ------------
_CODE_27                            001B4000    00003FFE =       16382. bytes (REL,CON)

      Value  Global                              Global Defined In Module
      -----  --------------------------------   ------------------------
     001B627D  ___func_bg_room_tilemap_attr       bg_room_tilemap_attr
     001B627D  _bg_room_tilemap_attr              bg_room_tilemap_attr
     001B6475  ___func_bg_secoundfountain_tilem   bg_secoundfountain_tilemap_a
     001B6475  _bg_secoundfountain_tilemap_attr   bg_secoundfountain_tilemap_a
     001B669D  ___func_bg_secoundfountain_tilem   bg_secoundfountain_tilemap
     001B669D  _bg_secoundfountain_tilemap        bg_secoundfountain_tilemap
     001B68C5  ___func_scene_1_collisions         scene_1_collisions
     001B68C5  _scene_1_collisions                scene_1_collisions
     001B6AD6  _scene_11_init                     scene_11_init
     001B6AD9  GBVM$scene_11_init$eeec0af5_924a   scene_11_init
     001B6ADD  GBVM$scene_11_init$autofade$bdec   scene_11_init
     001B6AE8  GBVM$scene_11_init$2f3372f0_09d2   scene_11_init
     001B6B3C  GBVM$scene_11_init$d90de63f_12b8   scene_11_init
     001B6B4E  GBVM$scene_11_init$156c3238_df50   scene_11_init
     001B6B60  GBVM$scene_11_init$809600c5_5ab8   scene_11_init
     001B6BA6  GBVM$scene_11_init$603c63a1_c166   scene_11_init
     001B6BB8  GBVM$scene_11_init$b5846ebe_1e76   scene_11_init
     001B6BED  GBVM$scene_11_init$da9b9d91_8bda   scene_11_init
     001B6C1F  GBVM_END$scene_11_init$603c63a1_   scene_11_init
     001B6C22  GBVM$scene_11_init$fa3726a7_8f72   scene_11_init
     001B6C35  GBVM$scene_11_init$c85efd47_3e99   scene_11_init
     001B6C6E  GBVM$scene_11_init$b6494b65_fd77   scene_11_init
     001B6CA3  GBVM$scene_11_init$7ca113cc_1eab   scene_11_init
     001B6CA7  GBVM_END$scene_11_init$156c3238_   scene_11_init
     001B6CA7  GBVM_END$scene_11_init$fa3726a7_   scene_11_init
     001B6CAA  GBVM$scene_11_init$af1d8a4a_0a8e   scene_11_init
     001B6CDC  GBVM_END$scene_11_init$d90de63f_   scene_11_init
     001B6CDD  _scene_26_init                     scene_26_init
     001B6CE0  GBVM$scene_26_init$1b7afb9f_7eaa   scene_26_init
     001B6CE5  GBVM$scene_26_init$6f014e6e_846e   scene_26_init
     001B6CEA  GBVM$scene_26_init$839547c3_1d03   scene_26_init
     001B6CEF  GBVM$scene_26_init$8674a678_7cf8   scene_26_init
     001B6CF4  GBVM$scene_26_init$732cd9c0_2395   scene_26_init
     001B6CF9  GBVM$scene_26_init$autofade$96d9   scene_26_init
     001B6D04  GBVM$scene_26_init$1b15a521_625b   scene_26_init
     001B6D19  GBVM$scene_26_init$281a4f8f_59fa   scene_26_init
     001B6D2E  GBVM$scene_26_init$5e8ecb9a_cacf   scene_26_init
     001B6D43  GBVM$scene_26_init$042a9c20_7abe   scene_26_init
     001B6D58  GBVM$scene_26_init$4db063a3_92d5   scene_26_init
     001B6D6D  GBVM$scene_26_init$9d92343b_fac7   scene_26_init
     001B6D82  GBVM$scene_26_init$369d0b66_399b   scene_26_init
     001B6D97  GBVM$scene_26_init$b0eea33e_7f85   scene_26_init
     001B6DFF  GBVM$scene_26_init$36245d40_610a   scene_26_init
     001B6DFF  GBVM_END$scene_26_init$042a9c20_   scene_26_init
     001B6DFF  GBVM_END$scene_26_init$1b15a521_   scene_26_init
     001B6DFF  GBVM_END$scene_26_init$281a4f8f_   scene_26_init
     001B6DFF  GBVM_END$scene_26_init$369d0b66_   scene_26_init
     001B6DFF  GBVM_END$scene_26_init$4db063a3_   scene_26_init
     001B6DFF  GBVM_END$scene_26_init$5e8ecb9a_   scene_26_init
     001B6DFF  GBVM_END$scene_26_init$9d92343b_   scene_26_init
     001B6EB5  GBVM$scene_26_init$744ffe0f_b09f   scene_26_init
ASxxxx Linker V03.00/V05.40 + sdld,  page 111.
Hexadecimal  [32-Bits]

Area                                    Addr        Size        Decimal Bytes (Attributes)
--------------------------------        ----        ----        ------- ----- ------------
_CODE_27                            001B4000    00003FFE =       16382. bytes (REL,CON)

      Value  Global                              Global Defined In Module
      -----  --------------------------------   ------------------------
     001B6EE8  ___func_scene_32_actors            scene_32_actors
     001B6EE8  _scene_32_actors                   scene_32_actors
     001B7124  ___func_scene_37_collisions        scene_37_collisions
     001B7124  _scene_37_collisions               scene_37_collisions
     001B735B  _scene_37_init                     scene_37_init
     001B735E  GBVM$scene_37_init$autofade$757f   scene_37_init
     001B7369  GBVM$scene_37_init$bbec6ddd_a9af   scene_37_init
     001B73DA  GBVM$scene_37_init$f1e04432_9feb   scene_37_init
     001B73F0  GBVM$scene_37_init$f73e9ab0_d142   scene_37_init
     001B73FA  GBVM$scene_37_init$a66ba79a_ad41   scene_37_init
     001B7410  GBVM$scene_37_init$fb5d4a2b_2a84   scene_37_init
     001B741A  GBVM$scene_37_init$1b9001aa_6cd3   scene_37_init
     001B741E  GBVM$scene_37_init$1866276f_331a   scene_37_init
     001B7441  GBVM$scene_37_init$d1db86b0_e432   scene_37_init
     001B7533  GBVM$scene_37_init$1e50d3ff_0467   scene_37_init
     001B7566  ___func_scene_46_sprites           scene_46_sprites
     001B7566  _scene_46_sprites                  scene_46_sprites
     001B7569  ___func_scene_49_collisions        scene_49_collisions
     001B7569  _scene_49_collisions               scene_49_collisions
     001B7776  ___func_scene_65_collisions        scene_65_collisions
     001B7776  _scene_65_collisions               scene_65_collisions
     001B797E  ___func_scene_7_collisions         scene_7_collisions
     001B797E  _scene_7_collisions                scene_7_collisions
     001B7BA6  ___func_scene_9_collisions         scene_9_collisions
     001B7BA6  _scene_9_collisions                scene_9_collisions
     001B7DFC  ___func_sprite_toriel_tileset      sprite_toriel_tileset
     001B7DFC  _sprite_toriel_tileset             sprite_toriel_tileset

ASxxxx Linker V03.00/V05.40 + sdld,  page 112.
Hexadecimal  [32-Bits]

Area                                    Addr        Size        Decimal Bytes (Attributes)
--------------------------------        ----        ----        ------- ----- ------------
_CODE_28                            001C4000    00004000 =       16384. bytes (REL,CON)

      Value  Global                              Global Defined In Module
      -----  --------------------------------   ------------------------
     001C4000  ___func_VM_GBPRINTER               vm_gbprinter
     001C4000  _vm_print_detect                   vm_gbprinter
     001C404F  _vm_print_overlay                  vm_gbprinter
     001C40A4  ___func_VM_PALETTE                 vm_palette
     001C40A4  _vm_load_palette                   vm_palette
     001C424D  _actor_17_interact                 actor_17_interact
     001C424E  GBVM$actor_17_interact$7b719e10_   actor_17_interact
     001C4260  GBVM$actor_17_interact$440c3c26_   actor_17_interact
     001C43CE  GBVM$actor_17_interact$6490777c_   actor_17_interact
     001C43D6  GBVM$actor_17_interact$415c2408_   actor_17_interact
     001C4426  GBVM_END$actor_17_interact$7b719   actor_17_interact
     001C4427  _actor_18_interact                 actor_18_interact
     001C4428  GBVM$actor_18_interact$5363e1f3_   actor_18_interact
     001C443A  GBVM$actor_18_interact$e12e7ee7_   actor_18_interact
     001C45A8  GBVM$actor_18_interact$2fe6dd8c_   actor_18_interact
     001C45B0  GBVM$actor_18_interact$1bf5ca76_   actor_18_interact
     001C4600  GBVM_END$actor_18_interact$5363e   actor_18_interact
     001C4601  _actor_19_interact                 actor_19_interact
     001C4602  GBVM$actor_19_interact$81690d12_   actor_19_interact
     001C4614  GBVM$actor_19_interact$6ffc3d4a_   actor_19_interact
     001C4782  GBVM$actor_19_interact$577fc495_   actor_19_interact
     001C478A  GBVM$actor_19_interact$4c66440f_   actor_19_interact
     001C47DA  GBVM_END$actor_19_interact$81690   actor_19_interact
     001C47DB  _actor_73_interact                 actor_73_interact
     001C47DE  GBVM$actor_73_interact$78c6b5d5_   actor_73_interact
     001C48D5  GBVM$actor_73_interact$81d411dc_   actor_73_interact
     001C490F  GBVM$actor_73_interact$f057ffd9_   actor_73_interact
     001C4950  GBVM$actor_73_interact$7283abb5_   actor_73_interact
     001C4959  GBVM$actor_73_interact$0f87287f_   actor_73_interact
     001C495E  GBVM$actor_73_interact$c03fc1f3_   actor_73_interact
     001C496E  GBVM$actor_73_interact$aab4d4d6_   actor_73_interact
     001C499B  GBVM$actor_73_interact$autofade$   actor_73_interact
     001C49A6  GBVM_END$actor_73_interact$c03fc   actor_73_interact
     001C49A9  GBVM_END$actor_73_interact$7283a   actor_73_interact
     001C49AA  _actor_85_interact                 actor_85_interact
     001C49AD  GBVM$actor_85_interact$bb7357a6_   actor_85_interact
     001C4AB9  GBVM$actor_85_interact$6b2a2c2d_   actor_85_interact
     001C4AF4  GBVM$actor_85_interact$e85e09ea_   actor_85_interact
     001C4B09  GBVM$actor_85_interact$885ef211_   actor_85_interact
     001C4B19  GBVM$actor_85_interact$de41cc9f_   actor_85_interact
     001C4B53  GBVM$actor_85_interact$autofade$   actor_85_interact
     001C4B5E  GBVM_END$actor_85_interact$885ef   actor_85_interact
     001C4B5E  GBVM_END$actor_85_interact$e85e0   actor_85_interact
     001C4B5F  ___func_bg_city1_tilemap_attr      bg_city1_tilemap_attr
     001C4B5F  _bg_city1_tilemap_attr             bg_city1_tilemap_attr
     001C4D3F  ___func_bg_city1_tilemap           bg_city1_tilemap
     001C4D3F  _bg_city1_tilemap                  bg_city1_tilemap
     001C4F1F  ___func_bg_dogchecksavedata_tile   bg_dogchecksavedata_tilemap_
     001C4F1F  _bg_dogchecksavedata_tilemap_att   bg_dogchecksavedata_tilemap_
     001C50E1  ___func_bg_dogchecksavedata_tile   bg_dogchecksavedata_tilemap
ASxxxx Linker V03.00/V05.40 + sdld,  page 113.
Hexadecimal  [32-Bits]

Area                                    Addr        Size        Decimal Bytes (Attributes)
--------------------------------        ----        ----        ------- ----- ------------
_CODE_28                            001C4000    00004000 =       16384. bytes (REL,CON)

      Value  Global                              Global Defined In Module
      -----  --------------------------------   ------------------------
     001C50E1  _bg_dogchecksavedata_tilemap       bg_dogchecksavedata_tilemap
     001C52A3  ___func_bg_fountaincastle_tilema   bg_fountaincastle_tilemap_at
     001C52A3  _bg_fountaincastle_tilemap_attr    bg_fountaincastle_tilemap_at
     001C5486  ___func_bg_fountaincastle_tilema   bg_fountaincastle_tilemap
     001C5486  _bg_fountaincastle_tilemap         bg_fountaincastle_tilemap
     001C5669  ___func_bg_legend3_tilemap_attr    bg_legend3_tilemap_attr
     001C5669  _bg_legend3_tilemap_attr           bg_legend3_tilemap_attr
     001C580B  ___func_bg_new_piskel_43__tilese   bg_new_piskel_43__tileset
     001C580B  _bg_new_piskel_43__tileset         bg_new_piskel_43__tileset
     001C59ED  ___func_bg_quelesttonnom_copie_t   bg_quelesttonnom_copie_tilem
     001C59ED  _bg_quelesttonnom_copie_tilemap_   bg_quelesttonnom_copie_tilem
     001C5B9D  ___func_bg_quelesttonnom_copie_t   bg_quelesttonnom_copie_tilem
     001C5B9D  _bg_quelesttonnom_copie_tilemap    bg_quelesttonnom_copie_tilem
     001C5D4D  ___func_bg_quelesttonnom_tilemap   bg_quelesttonnom_tilemap_att
     001C5D4D  _bg_quelesttonnom_tilemap_attr     bg_quelesttonnom_tilemap_att
     001C5EFD  ___func_bg_quelesttonnom_tilemap   bg_quelesttonnom_tilemap
     001C5EFD  _bg_quelesttonnom_tilemap          bg_quelesttonnom_tilemap
     001C60AD  ___func_bg_room_tilemap            bg_room_tilemap
     001C60AD  _bg_room_tilemap                   bg_room_tilemap
     001C62A5  ___func_bg_schoolext_tilemap_att   bg_schoolext_tilemap_attr
     001C62A5  _bg_schoolext_tilemap_attr         bg_schoolext_tilemap_attr
     001C6467  ___func_bg_schoolext_tilemap       bg_schoolext_tilemap
     001C6467  _bg_schoolext_tilemap              bg_schoolext_tilemap
     001C6629  ___func_bg_title_tilemap_attr      bg_title_tilemap_attr
     001C6629  _bg_title_tilemap_attr             bg_title_tilemap_attr
     001C6821  ___func_bg_title_tilemap           bg_title_tilemap
     001C6821  _bg_title_tilemap                  bg_title_tilemap
     001C6A19  ___func_scene_0_collisions         scene_0_collisions
     001C6A19  _scene_0_collisions                scene_0_collisions
     001C6C11  ___func_scene_11_collisions        scene_11_collisions
     001C6C11  _scene_11_collisions               scene_11_collisions
     001C6E09  ___func_scene_23_collisions        scene_23_collisions
     001C6E09  _scene_23_collisions               scene_23_collisions
     001C6FB9  ___func_scene_24_collisions        scene_24_collisions
     001C6FB9  _scene_24_collisions               scene_24_collisions
     001C7169  ___func_scene_26_collisions        scene_26_collisions
     001C7169  _scene_26_collisions               scene_26_collisions
     001C7319  ___func_scene_3_collisions         scene_3_collisions
     001C7319  _scene_3_collisions                scene_3_collisions
     001C74FC  ___func_scene_39_collisions        scene_39_collisions
     001C74FC  _scene_39_collisions               scene_39_collisions
     001C76DC  ___func_scene_41_collisions        scene_41_collisions
     001C76DC  _scene_41_collisions               scene_41_collisions
     001C789E  ___func_scene_42_collisions        scene_42_collisions
     001C789E  _scene_42_collisions               scene_42_collisions
     001C7A60  ___func_scene_45_actors            scene_45_actors
     001C7A60  _scene_45_actors                   scene_45_actors
     001C7C34  ___func_scene_52_actors            scene_52_actors
     001C7C34  _scene_52_actors                   scene_52_actors
     001C7E08  ___func_scene_67_collisions        scene_67_collisions
     001C7E08  _scene_67_collisions               scene_67_collisions

ASxxxx Linker V03.00/V05.40 + sdld,  page 114.
Hexadecimal  [32-Bits]

Area                                    Addr        Size        Decimal Bytes (Attributes)
--------------------------------        ----        ----        ------- ----- ------------
_CODE_18                            00124000    00004000 =       16384. bytes (REL,CON)

      Value  Global                              Global Defined In Module
      -----  --------------------------------   ------------------------
     00124000  ___func_VM_UI                      vm_ui
     00124000  _vm_display_text                   vm_ui
     00124069  _vm_switch_text_layer              vm_ui
     00124083  _vm_overlay_setpos                 vm_ui
     0012409D  _vm_overlay_wait                   vm_ui
     0012412D  _vm_overlay_move_to                vm_ui
     00124171  _vm_overlay_set_scroll             vm_ui
     001241AA  _vm_overlay_clear                  vm_ui
     0012427C  _vm_overlay_show                   vm_ui
     001242CA  _vm_choice                         vm_ui
     001243E5  _vm_set_font                       vm_ui
     00124414  _vm_overlay_scroll                 vm_ui
     00124475  _vm_overlay_set_submap             vm_ui
     001244E1  _vm_overlay_set_submap_ex          vm_ui
     001245E2  _vm_overlay_set_map                vm_ui
     00124741  _vm_set_text_sound                 vm_ui
     0012475A  _actor_62_interact                 actor_62_interact
     0012475D  GBVM$actor_62_interact$dd11d01a_   actor_62_interact
     00124766  GBVM$actor_62_interact$cf561200_   actor_62_interact
     001247A1  GBVM$actor_62_interact$045a0d3e_   actor_62_interact
     00124940  GBVM$actor_62_interact$b92de3f9_   actor_62_interact
     00124986  GBVM$actor_62_interact$a46dd1e6_   actor_62_interact
     00124998  GBVM$actor_62_interact$b3aba3e1_   actor_62_interact
     00124B02  GBVM$actor_62_interact$48fb7c08_   actor_62_interact
     00124B4F  GBVM$actor_62_interact$0bd872b3_   actor_62_interact
     00124B96  GBVM$actor_62_interact$8f7b5acc_   actor_62_interact
     00124B97  GBVM$actor_62_interact$1bd226b0_   actor_62_interact
     00124BA1  GBVM$actor_62_interact$ad76376d_   actor_62_interact
     00124BB4  GBVM$actor_62_interact$e7f4ed31_   actor_62_interact
     00124BEC  GBVM$actor_62_interact$a4b0a74e_   actor_62_interact
     00124BF0  GBVM$actor_62_interact$0c9ffed3_   actor_62_interact
     00124D17  GBVM$actor_62_interact$ced285a8_   actor_62_interact
     00124D36  GBVM$actor_62_interact$eda2e955_   actor_62_interact
     00124D3F  GBVM$actor_62_interact$30cc611a_   actor_62_interact
     00124D4B  GBVM$actor_62_interact$73d633a6_   actor_62_interact
     00124D54  GBVM$actor_62_interact$6e9145dc_   actor_62_interact
     00124D60  GBVM$actor_62_interact$8bd01d85_   actor_62_interact
     00124D69  GBVM$actor_62_interact$dd575113_   actor_62_interact
     00124E45  GBVM$actor_62_interact$f2022e2b_   actor_62_interact
     00124E51  GBVM$actor_62_interact$17b11421_   actor_62_interact
     00124EC7  GBVM$actor_62_interact$a7216cb9_   actor_62_interact
     00124ED0  GBVM$actor_62_interact$a389365f_   actor_62_interact
     00124EDC  GBVM$actor_62_interact$b47c78e3_   actor_62_interact
     00124EE5  GBVM$actor_62_interact$e44eb1db_   actor_62_interact
     00125058  GBVM$actor_62_interact$e87fbd53_   actor_62_interact
     0012506B  GBVM$actor_62_interact$8ba9786a_   actor_62_interact
     00125074  GBVM$actor_62_interact$5a4f4d76_   actor_62_interact
     00125080  GBVM$actor_62_interact$12dc9357_   actor_62_interact
     0012508A  GBVM$actor_62_interact$85435e66_   actor_62_interact
     0012509C  GBVM$actor_62_interact$74eec487_   actor_62_interact
ASxxxx Linker V03.00/V05.40 + sdld,  page 115.
Hexadecimal  [32-Bits]

Area                                    Addr        Size        Decimal Bytes (Attributes)
--------------------------------        ----        ----        ------- ----- ------------
_CODE_18                            00124000    00004000 =       16384. bytes (REL,CON)

      Value  Global                              Global Defined In Module
      -----  --------------------------------   ------------------------
     001250BB  GBVM$actor_62_interact$8f74c899_   actor_62_interact
     00125181  GBVM$actor_62_interact$e44ac71c_   actor_62_interact
     00125189  GBVM_END$actor_62_interact$a46dd   actor_62_interact
     00125189  GBVM_END$actor_62_interact$dd11d   actor_62_interact
     0012518A  ___func_bg_legend2_tileset         bg_legend2_tileset
     0012518A  _bg_legend2_tileset                bg_legend2_tileset
     00125BEC  ___func_bg_legend5d_tileset        bg_legend5d_tileset
     00125BEC  _bg_legend5d_tileset               bg_legend5d_tileset
     0012649E  ___func_bg_susielegend_tileset     bg_susielegend_tileset
     0012649E  _bg_susielegend_tileset            bg_susielegend_tileset
     00126D50  ___func_bg_toilet2_tileset         bg_toilet2_tileset
     00126D50  _bg_toilet2_tileset                bg_toilet2_tileset
     00127FA9  _song_fallinggg_Data               song_fallinggg_Data
     00127FBE  ___func_sprite_lacer_shadow_tile   sprite_lacer_shadow_tileset
     00127FBE  _sprite_lacer_shadow_tileset       sprite_lacer_shadow_tileset

ASxxxx Linker V03.00/V05.40 + sdld,  page 116.
Hexadecimal  [32-Bits]

Area                                    Addr        Size        Decimal Bytes (Attributes)
--------------------------------        ----        ----        ------- ----- ------------
_CODE_29                            001D4000    00004000 =       16384. bytes (REL,CON)

      Value  Global                              Global Defined In Module
      -----  --------------------------------   ------------------------
     001D4000  _actor_24_interact                 actor_24_interact
     001D4003  GBVM$actor_24_interact$bbb20ed9_   actor_24_interact
     001D40A6  GBVM$actor_24_interact$e2c311f0_   actor_24_interact
     001D40E0  GBVM$actor_24_interact$54e68f3a_   actor_24_interact
     001D4121  GBVM$actor_24_interact$65202910_   actor_24_interact
     001D412A  GBVM$actor_24_interact$3075da1e_   actor_24_interact
     001D412F  GBVM$actor_24_interact$932e8994_   actor_24_interact
     001D413F  GBVM$actor_24_interact$3a4dd1f6_   actor_24_interact
     001D416C  GBVM$actor_24_interact$autofade$   actor_24_interact
     001D4177  GBVM_END$actor_24_interact$932e8   actor_24_interact
     001D417A  GBVM_END$actor_24_interact$65202   actor_24_interact
     001D417B  ___func_bg_black_copie_tilemap_a   bg_black_copie_tilemap_attr
     001D417B  _bg_black_copie_tilemap_attr       bg_black_copie_tilemap_attr
     001D42F5  ___func_bg_black_copie_tilemap     bg_black_copie_tilemap
     001D42F5  _bg_black_copie_tilemap            bg_black_copie_tilemap
     001D446F  ___func_bg_black_tilemap_attr      bg_black_tilemap_attr
     001D446F  _bg_black_tilemap_attr             bg_black_tilemap_attr
     001D45E9  ___func_bg_black_tilemap           bg_black_tilemap
     001D45E9  _bg_black_tilemap                  bg_black_tilemap
     001D4763  ___func_bg_castle_town_map2_tile   bg_castle_town_map2_tileset
     001D4763  _bg_castle_town_map2_tileset       bg_castle_town_map2_tileset
     001D48F5  ___func_bg_dogchecksavedata_copi   bg_dogchecksavedata_copie_ti
     001D48F5  _bg_dogchecksavedata_copie_tilem   bg_dogchecksavedata_copie_ti
     001D4A93  ___func_bg_dogchecksavedata_copi   bg_dogchecksavedata_copie_ti
     001D4A93  _bg_dogchecksavedata_copie_tilem   bg_dogchecksavedata_copie_ti
     001D4C31  ___func_bg_krislegend_tilemap      bg_krislegend_tilemap
     001D4C31  _bg_krislegend_tilemap             bg_krislegend_tilemap
     001D4DBD  ___func_bg_legend1d_tilemap_attr   bg_legend1d_tilemap_attr
     001D4DBD  _bg_legend1d_tilemap_attr          bg_legend1d_tilemap_attr
     001D4F4D  ___func_bg_legend1d_tilemap        bg_legend1d_tilemap
     001D4F4D  _bg_legend1d_tilemap               bg_legend1d_tilemap
     001D50DD  ___func_bg_legend3_tilemap         bg_legend3_tilemap
     001D50DD  _bg_legend3_tilemap                bg_legend3_tilemap
     001D527F  ___func_bg_legend4_tilemap         bg_legend4_tilemap
     001D527F  _bg_legend4_tilemap                bg_legend4_tilemap
     001D53FB  ___func_bg_ralseilegend_tilemap_   bg_ralseilegend_tilemap_attr
     001D53FB  _bg_ralseilegend_tilemap_attr      bg_ralseilegend_tilemap_attr
     001D5587  ___func_bg_ralseilegend_tilemap    bg_ralseilegend_tilemap
     001D5587  _bg_ralseilegend_tilemap           bg_ralseilegend_tilemap
     001D5713  ___func_bg_susielegend_tilemap_a   bg_susielegend_tilemap_attr
     001D5713  _bg_susielegend_tilemap_attr       bg_susielegend_tilemap_attr
     001D589F  ___func_bg_susielegend_tilemap     bg_susielegend_tilemap
     001D589F  _bg_susielegend_tilemap            bg_susielegend_tilemap
     001D5A2B  ___func_bg_thetle_tilemap_attr     bg_thetle_tilemap_attr
     001D5A2B  _bg_thetle_tilemap_attr            bg_thetle_tilemap_attr
     001D5BBB  ___func_bg_thetle_tilemap          bg_thetle_tilemap
     001D5BBB  _bg_thetle_tilemap                 bg_thetle_tilemap
     001D5D4B  _scene_0_init                      scene_0_init
     001D5D4E  GBVM$scene_0_init$autofade$cc2cd   scene_0_init
     001D5D59  GBVM$scene_0_init$ef5e87da_579f_   scene_0_init
ASxxxx Linker V03.00/V05.40 + sdld,  page 117.
Hexadecimal  [32-Bits]

Area                                    Addr        Size        Decimal Bytes (Attributes)
--------------------------------        ----        ----        ------- ----- ------------
_CODE_29                            001D4000    00004000 =       16384. bytes (REL,CON)

      Value  Global                              Global Defined In Module
      -----  --------------------------------   ------------------------
     001D5E38  GBVM$scene_0_init$9863d6d5_fc00_   scene_0_init
     001D5E6B  ___func_scene_10_collisions        scene_10_collisions
     001D5E6B  _scene_10_collisions               scene_10_collisions
     001D5FE5  ___func_scene_13_collisions        scene_13_collisions
     001D5FE5  _scene_13_collisions               scene_13_collisions
     001D6183  ___func_scene_15_collisions        scene_15_collisions
     001D6183  _scene_15_collisions               scene_15_collisions
     001D62FD  ___func_scene_16_collisions        scene_16_collisions
     001D62FD  _scene_16_collisions               scene_16_collisions
     001D6489  ___func_scene_17_collisions        scene_17_collisions
     001D6489  _scene_17_collisions               scene_17_collisions
     001D6615  ___func_scene_18_collisions        scene_18_collisions
     001D6615  _scene_18_collisions               scene_18_collisions
     001D67A1  ___func_scene_19_collisions        scene_19_collisions
     001D67A1  _scene_19_collisions               scene_19_collisions
     001D691B  ___func_scene_20_collisions        scene_20_collisions
     001D691B  _scene_20_collisions               scene_20_collisions
     001D6A95  ___func_scene_22_collisions        scene_22_collisions
     001D6A95  _scene_22_collisions               scene_22_collisions
     001D6C0F  ___func_scene_27_collisions        scene_27_collisions
     001D6C0F  _scene_27_collisions               scene_27_collisions
     001D6D89  ___func_scene_31_collisions        scene_31_collisions
     001D6D89  _scene_31_collisions               scene_31_collisions
     001D6F03  ___func_scene_35_triggers          scene_35_triggers
     001D6F03  _scene_35_triggers                 scene_35_triggers
     001D6F0B  _scene_44_init                     scene_44_init
     001D6F0E  GBVM$scene_44_init$622dfc75_6ffc   scene_44_init
     001D6F17  GBVM$scene_44_init$9a53451c_7dcd   scene_44_init
     001D6F18  GBVM$scene_44_init$autofade$4461   scene_44_init
     001D6F23  GBVM$scene_44_init$ff62fd6d_2d20   scene_44_init
     001D6F35  GBVM$scene_44_init$9af156c4_4b1a   scene_44_init
     001D6F3F  GBVM$scene_44_init$9d0e8b78_9098   scene_44_init
     001D6FB0  GBVM$scene_44_init$ecd37a00_7069   scene_44_init
     001D6FD3  GBVM$scene_44_init$ee6a5d91_298a   scene_44_init
     001D6FDC  GBVM$scene_44_init$0e6b4629_6889   scene_44_init
     001D7024  GBVM$scene_44_init$89b978a2_ab14   scene_44_init
     001D7047  GBVM$scene_44_init$1089c8a0_891b   scene_44_init
     001D7051  GBVM$scene_44_init$2f104558_8c75   scene_44_init
     001D705B  GBVM$scene_44_init$5a07c7a6_ae09   scene_44_init
     001D7065  GBVM$scene_44_init$df083c70_5f18   scene_44_init
     001D7088  GBVM$scene_44_init$32d8aad7_0efe   scene_44_init
     001D7090  GBVM$scene_44_init$9ffc0f82_0516   scene_44_init
     001D709A  GBVM_END$scene_44_init$ff62fd6d_   scene_44_init
     001D709B  _scene_48_init                     scene_48_init
     001D709E  GBVM$scene_48_init$3f45c53b_326c   scene_48_init
     001D709F  GBVM$scene_48_init$69fd80ee_9763   scene_48_init
     001D70B1  GBVM$scene_48_init$autofade$17a1   scene_48_init
     001D70BC  GBVM$scene_48_init$1034bafc_78be   scene_48_init
     001D70C8  GBVM$scene_48_init$3c3c1f54_e778   scene_48_init
     001D714C  GBVM$scene_48_init$70f892a4_7896   scene_48_init
     001D715E  GBVM$scene_48_init$1e6643b0_5752   scene_48_init
ASxxxx Linker V03.00/V05.40 + sdld,  page 118.
Hexadecimal  [32-Bits]

Area                                    Addr        Size        Decimal Bytes (Attributes)
--------------------------------        ----        ----        ------- ----- ------------
_CODE_29                            001D4000    00004000 =       16384. bytes (REL,CON)

      Value  Global                              Global Defined In Module
      -----  --------------------------------   ------------------------
     001D71AF  GBVM$scene_48_init$52face32_790a   scene_48_init
     001D71B5  GBVM$scene_48_init$e8447d86_a8b8   scene_48_init
     001D71BB  GBVM$scene_48_init$31caf903_8c15   scene_48_init
     001D71C1  GBVM$scene_48_init$16ff39f5_76e0   scene_48_init
     001D71C7  GBVM$scene_48_init$16bd9504_dd84   scene_48_init
     001D71D9  GBVM$scene_48_init$000ad3be_6a98   scene_48_init
     001D7206  GBVM$scene_48_init$43731ed6_b4c7   scene_48_init
     001D7239  ___func_scene_5_collisions         scene_5_collisions
     001D7239  _scene_5_collisions                scene_5_collisions
     001D73DB  ___func_scene_6_collisions         scene_6_collisions
     001D73DB  _scene_6_collisions                scene_6_collisions
     001D7557  ___func_scene_66_collisions        scene_66_collisions
     001D7557  _scene_66_collisions               scene_66_collisions
     001D76E7  ___func_scene_logo_collisions      scene_logo_collisions
     001D76E7  _scene_logo_collisions             scene_logo_collisions
     001D7877  ___func_sprite_dust_piles_tilese   sprite_dust_piles_tileset
     001D7877  _sprite_dust_piles_tileset         sprite_dust_piles_tileset
     001D79F9  ___func_sprite_kris_lightworld_t   sprite_kris_lightworld_tiles
     001D79F9  _sprite_kris_lightworld_tileset    sprite_kris_lightworld_tiles
     001D7B7B  ___func_sprite_ralsei_tileset      sprite_ralsei_tileset
     001D7B7B  _sprite_ralsei_tileset             sprite_ralsei_tileset
     001D7CFD  ___func_sprite_susie_tileset       sprite_susie_tileset
     001D7CFD  _sprite_susie_tileset              sprite_susie_tileset
     001D7E7F  _trigger_37_interact               trigger_37_interact
     001D7E82  GBVM$trigger_37_interact$a4b80a0   trigger_37_interact
     001D7E8B  GBVM$trigger_37_interact$8b1f6ca   trigger_37_interact
     001D7F10  GBVM$trigger_37_interact$bfa8395   trigger_37_interact
     001D7F23  GBVM$trigger_37_interact$0f8956f   trigger_37_interact
     001D7F42  GBVM$trigger_37_interact$171bdf6   trigger_37_interact
     001D7F46  GBVM$trigger_37_interact$9b96eed   trigger_37_interact
     001D7F7D  GBVM$trigger_37_interact$24834ef   trigger_37_interact
     001D7FA0  GBVM$trigger_37_interact$046ce2d   trigger_37_interact
     001D7FAA  GBVM$trigger_37_interact$f0341df   trigger_37_interact
     001D7FCD  GBVM$trigger_37_interact$115b55b   trigger_37_interact
ASxxxx Linker V03.00/V05.40 + sdld,  page 119.
Hexadecimal  [32-Bits]

Area                                    Addr        Size        Decimal Bytes (Attributes)
--------------------------------        ----        ----        ------- ----- ------------
_CODE_11                            000B4000    00003FFE =       16382. bytes (REL,CON)

      Value  Global                              Global Defined In Module
      -----  --------------------------------   ------------------------
     000B4000  _actor_37_interact                 actor_37_interact
     000B4001  GBVM$actor_37_interact$ff49a423_   actor_37_interact
     000B406F  ___func_bg_8_tilemap_attr          bg_8_tilemap_attr
     000B406F  _bg_8_tilemap_attr                 bg_8_tilemap_attr
     000B4FE3  ___func_bg_9_tilemap_attr          bg_9_tilemap_attr
     000B4FE3  _bg_9_tilemap_attr                 bg_9_tilemap_attr
     000B5FEB  ___func_bg_9_tilemap               bg_9_tilemap
     000B5FEB  _bg_9_tilemap                      bg_9_tilemap
     000B6FF3  ___func_scene_25_sprites           scene_25_sprites
     000B6FF3  _scene_25_sprites                  scene_25_sprites
     000B6FF6  ___func_scene_61_collisions        scene_61_collisions
     000B6FF6  _scene_61_collisions               scene_61_collisions
ASxxxx Linker V03.00/V05.40 + sdld,  page 120.
Hexadecimal  [32-Bits]

Area                                    Addr        Size        Decimal Bytes (Attributes)
--------------------------------        ----        ----        ------- ----- ------------
_CODE_23                            00174000    00003FFE =       16382. bytes (REL,CON)

      Value  Global                              Global Defined In Module
      -----  --------------------------------   ------------------------
     00174000  _actor_67_interact                 actor_67_interact
     00174003  GBVM$actor_67_interact$3864bbbe_   actor_67_interact
     0017406E  GBVM$actor_67_interact$c07fabe6_   actor_67_interact
     001740A8  GBVM$actor_67_interact$511f08e8_   actor_67_interact
     001740E9  GBVM$actor_67_interact$4e7a01c2_   actor_67_interact
     001740F2  GBVM$actor_67_interact$8076eca9_   actor_67_interact
     001740F7  GBVM$actor_67_interact$99e21a7b_   actor_67_interact
     00174107  GBVM$actor_67_interact$b6d95686_   actor_67_interact
     00174134  GBVM$actor_67_interact$autofade$   actor_67_interact
     0017413F  GBVM_END$actor_67_interact$99e21   actor_67_interact
     00174142  GBVM_END$actor_67_interact$4e7a0   actor_67_interact
     00174143  ___func_bg_9_tileset               bg_9_tileset
     00174143  _bg_9_tileset                      bg_9_tileset
     001746A5  ___func_bg_blackdoor_tilemap_att   bg_blackdoor_tilemap_attr
     001746A5  _bg_blackdoor_tilemap_attr         bg_blackdoor_tilemap_attr
     00174B8B  ___func_bg_blackdoor_tilemap       bg_blackdoor_tilemap
     00174B8B  _bg_blackdoor_tilemap              bg_blackdoor_tilemap
     00175071  ___func_bg_dogchecksavedata_copi   bg_dogchecksavedata_copie_0_
     00175071  _bg_dogchecksavedata_copie_0_til   bg_dogchecksavedata_copie_0_
     001755A3  ___func_bg_legend7f_tileset        bg_legend7f_tileset
     001755A3  _bg_legend7f_tileset               bg_legend7f_tileset
     00175B05  ___func_bg_worldddd_tilemap_attr   bg_worldddd_tilemap_attr
     00175B05  _bg_worldddd_tilemap_attr          bg_worldddd_tilemap_attr
     0017605D  ___func_bg_worldddd_tilemap        bg_worldddd_tilemap
     0017605D  _bg_worldddd_tilemap               bg_worldddd_tilemap
     001765B5  ___func_bg_worldddddark_tilemap_   bg_worldddddark_tilemap_attr
     001765B5  _bg_worldddddark_tilemap_attr      bg_worldddddark_tilemap_attr
     00176B0D  ___func_bg_worldddddark_tilemap    bg_worldddddark_tilemap
     00176B0D  _bg_worldddddark_tilemap           bg_worldddddark_tilemap
     00177065  ___func_scene_36_sprites           scene_36_sprites
     00177065  _scene_36_sprites                  scene_36_sprites
     00177068  ___func_scene_46_collisions        scene_46_collisions
     00177068  _scene_46_collisions               scene_46_collisions
     001775C0  ___func_scene_47_collisions        scene_47_collisions
     001775C0  _scene_47_collisions               scene_47_collisions
     00177AA6  ___func_scene_51_collisions        scene_51_collisions
     00177AA6  _scene_51_collisions               scene_51_collisions

ASxxxx Linker V03.00/V05.40 + sdld,  page 121.
Hexadecimal  [32-Bits]

Area                                    Addr        Size        Decimal Bytes (Attributes)
--------------------------------        ----        ----        ------- ----- ------------
_CODE_21                            00154000    00004000 =       16384. bytes (REL,CON)

      Value  Global                              Global Defined In Module
      -----  --------------------------------   ------------------------
     00154000  ___func_bg_10_tilemap_attr         bg_10_tilemap_attr
     00154000  _bg_10_tilemap_attr                bg_10_tilemap_attr
     00154640  ___func_bg_10_tilemap              bg_10_tilemap
     00154640  _bg_10_tilemap                     bg_10_tilemap
     00154C80  ___func_bg_2                       bg_2
     00154C80  _bg_2                              bg_2
     00154C8E  ___func_bg_6_1__tilemap_attr       bg_6_1__tilemap_attr
     00154C8E  _bg_6_1__tilemap_attr              bg_6_1__tilemap_attr
     0015528E  ___func_bg_6_1__tilemap            bg_6_1__tilemap
     0015528E  _bg_6_1__tilemap                   bg_6_1__tilemap
     0015588E  ___func_bg_6_tilemap_attr          bg_6_tilemap_attr
     0015588E  _bg_6_tilemap_attr                 bg_6_tilemap_attr
     00155E8E  ___func_bg_6_tilemap               bg_6_tilemap
     00155E8E  _bg_6_tilemap                      bg_6_tilemap
     0015648E  ___func_bg_chamberkriso2_tileset   bg_chamberkriso2_tileset
     0015648E  _bg_chamberkriso2_tileset          bg_chamberkriso2_tileset
     00156AA0  ___func_bg_schoolint_tilemap_att   bg_schoolint_tilemap_attr
     00156AA0  _bg_schoolint_tilemap_attr         bg_schoolint_tilemap_attr
     00156D70  ___func_bg_worldddd_tileset        bg_worldddd_tileset
     00156D70  _bg_worldddd_tileset               bg_worldddd_tileset
     00157392  _scene_28_init                     scene_28_init
     00157395  GBVM$scene_28_init$b68cbea7_99dd   scene_28_init
     00157399  GBVM$scene_28_init$47bbcd23_2d4d   scene_28_init
     0015739E  GBVM$scene_28_init$869f676b_d115   scene_28_init
     001573A3  GBVM$scene_28_init$12ba2179_cb49   scene_28_init
     001573A8  GBVM$scene_28_init$dfa5a5f0_8615   scene_28_init
     001573AD  GBVM$scene_28_init$cb0d5854_d2b8   scene_28_init
     001573B2  GBVM$scene_28_init$d3ce0a78_893b   scene_28_init
     001573B9  GBVM$scene_28_init$autofade$5b86   scene_28_init
     001573C4  GBVM$scene_28_init$cadc9ac8_8aba   scene_28_init
     001573D6  GBVM$scene_28_init$bf50e556_6abd   scene_28_init
     001573DF  GBVM$scene_28_init$069cad8e_80dd   scene_28_init
     00157418  GBVM$scene_28_init$80528d35_6e3f   scene_28_init
     0015744F  GBVM$scene_28_init$9c64f51c_2d07   scene_28_init
     0015744F  GBVM_END$scene_28_init$bf50e556_   scene_28_init
     001574A9  GBVM$scene_28_init$d7823d9a_ec1b   scene_28_init
     001574B2  GBVM$scene_28_init$bbf7352b_311e   scene_28_init
     001574C4  GBVM$scene_28_init$52fcd95b_39de   scene_28_init
     001574D6  GBVM$scene_28_init$f0990bd8_5648   scene_28_init
     00157519  GBVM$scene_28_init$278c66ae_2952   scene_28_init
     0015755E  GBVM$scene_28_init$8de81519_2e8b   scene_28_init
     00157570  GBVM$scene_28_init$32ec5cb0_62a4   scene_28_init
     00157582  GBVM$scene_28_init$e3b353cb_51c6   scene_28_init
     00157644  GBVM$scene_28_init$fa7e0459_abab   scene_28_init
     00157653  GBVM$scene_28_init$98d71785_91bb   scene_28_init
     001576B6  GBVM_END$scene_28_init$32ec5cb0_   scene_28_init
     001576B9  GBVM$scene_28_init$ab153bd8_3b13   scene_28_init
     0015779C  GBVM_END$scene_28_init$52fcd95b_   scene_28_init
     0015779C  GBVM_END$scene_28_init$8de81519_   scene_28_init
     0015779F  GBVM$scene_28_init$c0de73fa_1d27   scene_28_init
ASxxxx Linker V03.00/V05.40 + sdld,  page 122.
Hexadecimal  [32-Bits]

Area                                    Addr        Size        Decimal Bytes (Attributes)
--------------------------------        ----        ----        ------- ----- ------------
_CODE_21                            00154000    00004000 =       16384. bytes (REL,CON)

      Value  Global                              Global Defined In Module
      -----  --------------------------------   ------------------------
     001577D8  GBVM$scene_28_init$50b1a336_4b13   scene_28_init
     001577EC  GBVM$scene_28_init$06008168_8d26   scene_28_init
     001577EC  GBVM_END$scene_28_init$bbf7352b_   scene_28_init
     001577FE  GBVM$scene_28_init$3b0ac83b_3a59   scene_28_init
     00157844  GBVM$scene_28_init$0ac85138_1966   scene_28_init
     00157858  GBVM$scene_28_init$813f2590_d4ac   scene_28_init
     00157864  GBVM$scene_28_init$b770cac2_2fb6   scene_28_init
     00157896  GBVM_END$scene_28_init$813f2590_   scene_28_init
     00157899  GBVM$scene_28_init$d62ee8e1_3633   scene_28_init
     001578D3  GBVM$scene_28_init$a7b6d45f_a2dd   scene_28_init
     001578D8  GBVM_END$scene_28_init$06008168_   scene_28_init
     001578DB  GBVM$scene_28_init$7c7bac91_0c58   scene_28_init
     001578ED  GBVM$scene_28_init$921fdff3_b04a   scene_28_init
     00157956  GBVM$scene_28_init$07ae3c1a_2581   scene_28_init
     00157985  GBVM$scene_28_init$bdb62b2b_82ef   scene_28_init
     0015798A  GBVM_END$scene_28_init$7c7bac91_   scene_28_init
     0015798A  GBVM_END$scene_28_init$d7823d9a_   scene_28_init
     0015798D  GBVM$scene_28_init$2eb8c639_4211   scene_28_init
     0015798D  GBVM_END$scene_28_init$cadc9ac8_   scene_28_init
     001579C0  ___func_scene_63_collisions        scene_63_collisions
     001579C0  _scene_63_collisions               scene_63_collisions

ASxxxx Linker V03.00/V05.40 + sdld,  page 123.
Hexadecimal  [32-Bits]

Area                                    Addr        Size        Decimal Bytes (Attributes)
--------------------------------        ----        ----        ------- ----- ------------
_CODE_13                            000D4000    00004000 =       16384. bytes (REL,CON)

      Value  Global                              Global Defined In Module
      -----  --------------------------------   ------------------------
     000D4000  ___func_bg_10                      bg_10
     000D4000  _bg_10                             bg_10
     000D400E  ___func_bg_quelesttonnom_tileset   bg_quelesttonnom_tileset
     000D400E  _bg_quelesttonnom_tileset          bg_quelesttonnom_tileset
     000D48E0  ___func_font_gbs_mono_copie_0      font_gbs_mono_copie_0
     000D56B0  _font_gbs_mono_copie_0             font_gbs_mono_copie_0
     000D56B8  ___func_font_gbs_mono_copie        font_gbs_mono_copie
     000D6468  _font_gbs_mono_copie               font_gbs_mono_copie
     000D6470  ___func_font_gbs_mono              font_gbs_mono
     000D7240  _font_gbs_mono                     font_gbs_mono
     000D7248  ___func_font_gbs_portrait          font_gbs_portrait
     000D7FF8  _font_gbs_portrait                 font_gbs_portrait
ASxxxx Linker V03.00/V05.40 + sdld,  page 124.
Hexadecimal  [32-Bits]

Area                                    Addr        Size        Decimal Bytes (Attributes)
--------------------------------        ----        ----        ------- ----- ------------
_CODE_3                             00034000    00003FFE =       16382. bytes (REL,CON)

      Value  Global                              Global Defined In Module
      -----  --------------------------------   ------------------------
     00034000  ___func_bg_3_tilemap               bg_3_tilemap
     00034000  _bg_3_tilemap                      bg_3_tilemap
     00037E8F  _song_the_real_door_Data           song_the_real_door_Data
     00037EA4  _script_5                          script_5
     00037EA6  GBVM$script_5$1ad7f0d2_44cf_4efe   script_5
     00037EB2  GBVM$script_5$2f88cfb6_3cb2_4797   script_5
     00037EB3  GBVM$script_5$c585254b_d75b_47f0   script_5
     00037EB3  GBVM_END$script_5$1ad7f0d2_44cf_   script_5
     00037F28  GBVM$script_5$b5d89354_dab0_4a48   script_5
     00037F6C  GBVM$script_5$433d7aa4_d001_49e1   script_5
     00037F81  GBVM$script_5$e803f4d7_0030_4b81   script_5
     00037F93  GBVM$script_5$de691deb_ba91_4a97   script_5
     00037FC8  GBVM$script_5$a0ba4949_f8b9_4a36   script_5
     00037FFA  GBVM_END$script_5$433d7aa4_d001_   script_5
     00037FFA  GBVM_END$script_5$e803f4d7_0030_   script_5
ASxxxx Linker V03.00/V05.40 + sdld,  page 125.
Hexadecimal  [32-Bits]

Area                                    Addr        Size        Decimal Bytes (Attributes)
--------------------------------        ----        ----        ------- ----- ------------
_CODE_5                             00054000    00004000 =       16384. bytes (REL,CON)

      Value  Global                              Global Defined In Module
      -----  --------------------------------   ------------------------
     00054000  ___func_bg_4_tilemap_attr          bg_4_tilemap_attr
     00054000  _bg_4_tilemap_attr                 bg_4_tilemap_attr
     00057FAF  _song_beginning_Data               song_beginning_Data
     00057FC4  _script_2                          script_2
     00057FC6  GBVM$script_2$32ed33bd_fe04_4611   script_2

ASxxxx Linker V03.00/V05.40 + sdld,  page 126.
Hexadecimal  [32-Bits]

Area                                    Addr        Size        Decimal Bytes (Attributes)
--------------------------------        ----        ----        ------- ----- ------------
_CODE_16                            00104000    00003FFF =       16383. bytes (REL,CON)

      Value  Global                              Global Defined In Module
      -----  --------------------------------   ------------------------
     00104000  ___func_bg_4_tileset               bg_4_tileset
     00104000  _bg_4_tileset                      bg_4_tileset
     001046E2  ___func_bg_9_1__tilemap_attr       bg_9_1__tilemap_attr
     001046E2  _bg_9_1__tilemap_attr              bg_9_1__tilemap_attr
     001051DA  ___func_bg_fountaincastle_tilese   bg_fountaincastle_tileset
     001051DA  _bg_fountaincastle_tileset         bg_fountaincastle_tileset
     00105D7C  ___func_bg_ralseilegend_tileset    bg_ralseilegend_tileset
     00105D7C  _bg_ralseilegend_tileset           bg_ralseilegend_tileset
     0010691E  ___func_bg_schoolint_tileset       bg_schoolint_tileset
     0010691E  _bg_schoolint_tileset              bg_schoolint_tileset
     001074D0  _scene_14_init                     scene_14_init
     001074D3  GBVM$scene_14_init$autofade$0224   scene_14_init
     001074DE  GBVM$scene_14_init$e0229e04_f58c   scene_14_init
     001074E7  GBVM$scene_14_init$4df431b8_e61a   scene_14_init
     001074F1  GBVM$scene_14_init$32132c7f_e9ea   scene_14_init
     00107504  GBVM$scene_14_init$d6cec6e9_59b0   scene_14_init
     00107510  GBVM$scene_14_init$8f8cf984_5a2e   scene_14_init
     00107519  GBVM$scene_14_init$5e8937b8_e87d   scene_14_init
     00107525  GBVM$scene_14_init$543eac1e_8edc   scene_14_init
     0010752E  GBVM$scene_14_init$617a7be8_a810   scene_14_init
     00107551  GBVM$scene_14_init$9aa06c34_fc33   scene_14_init
     0010755C  GBVM$scene_14_init$83768e3d_7825   scene_14_init
     0010756F  GBVM$scene_14_init$070a9583_7662   scene_14_init
     001075C8  GBVM$scene_14_init$586d62af_dae3   scene_14_init
     001075D1  GBVM$scene_14_init$488c8d67_4b91   scene_14_init
     001075DD  GBVM$scene_14_init$049a7598_6402   scene_14_init
     0010764A  GBVM$scene_14_init$1fd412e9_e699   scene_14_init
     00107656  GBVM$scene_14_init$c4ac417e_e510   scene_14_init
     001076C3  GBVM$scene_14_init$c80e334c_61b2   scene_14_init
     001076E2  GBVM$scene_14_init$2677f85b_6e50   scene_14_init
     00107705  GBVM$scene_14_init$597915d4_f315   scene_14_init
     00107728  GBVM$scene_14_init$529d5f5d_42dd   scene_14_init
     00107731  GBVM$scene_14_init$37cf8d20_3aba   scene_14_init
     00107777  GBVM$scene_14_init$ad798e7d_4f7f   scene_14_init
     0010779A  GBVM$scene_14_init$ead130f8_4b38   scene_14_init
     001077BD  GBVM$scene_14_init$ad4f107f_8d44   scene_14_init
     001077C6  GBVM$scene_14_init$a445d820_129f   scene_14_init
     001077D8  GBVM$scene_14_init$9f06b4db_725b   scene_14_init
     001077DC  GBVM$scene_14_init$b7dd4a39_3537   scene_14_init
     00107BAE  GBVM$scene_14_init$80f04f10_7101   scene_14_init
     00107BAF  GBVM$scene_14_init$eed5035b_9bab   scene_14_init
     00107BBB  GBVM$scene_14_init$da4b2f2a_814b   scene_14_init
     00107BEA  GBVM$scene_14_init$d64db7c2_d98c   scene_14_init
     00107C0D  GBVM$scene_14_init$861a58a0_4724   scene_14_init
     00107C8F  GBVM$scene_14_init$0de600e3_995c   scene_14_init
     00107C98  GBVM$scene_14_init$5633cf8e_222b   scene_14_init
     00107D79  GBVM$scene_14_init$a2feab45_3a12   scene_14_init
     00107DB6  GBVM$scene_14_init$59098002_ab47   scene_14_init
     00107E4D  GBVM$scene_14_init$78f112e2_ab63   scene_14_init
     00107E70  GBVM$scene_14_init$9283463b_757f   scene_14_init
ASxxxx Linker V03.00/V05.40 + sdld,  page 127.
Hexadecimal  [32-Bits]

Area                                    Addr        Size        Decimal Bytes (Attributes)
--------------------------------        ----        ----        ------- ----- ------------
_CODE_16                            00104000    00003FFF =       16383. bytes (REL,CON)

      Value  Global                              Global Defined In Module
      -----  --------------------------------   ------------------------
     00107EA5  GBVM$scene_14_init$9efe35fb_e619   scene_14_init
     00107EC8  GBVM$scene_14_init$ba36e300_e68f   scene_14_init
     00107EEE  GBVM$scene_14_init$8d3327b0_4ac1   scene_14_init
     00107EF8  GBVM$scene_14_init$39e9e408_0149   scene_14_init
     00107EF8  GBVM_END$scene_14_init$e0229e04_   scene_14_init
     00107F01  GBVM$scene_14_init$13036dd5_4daa   scene_14_init
     00107F0E  GBVM$scene_14_init$5ed04063_8120   scene_14_init
     00107F31  GBVM$scene_14_init$1f456db9_3460   scene_14_init
     00107F54  GBVM$scene_14_init$2395ccd8_b437   scene_14_init
     00107F60  GBVM$scene_14_init$e11a7139_fdfa   scene_14_init
     00107F83  GBVM$scene_14_init$12eefd4b_6e52   scene_14_init
     00107FA6  GBVM$scene_14_init$399cdb05_4ebe   scene_14_init
     00107FC9  GBVM$scene_14_init$b57700a0_fba3   scene_14_init
     00107FFB  GBVM_END$scene_14_init$39e9e408_   scene_14_init
     00107FFC  ___func_scene_34_sprites           scene_34_sprites
     00107FFC  _scene_34_sprites                  scene_34_sprites
ASxxxx Linker V03.00/V05.40 + sdld,  page 128.
Hexadecimal  [32-Bits]

Area                                    Addr        Size        Decimal Bytes (Attributes)
--------------------------------        ----        ----        ------- ----- ------------
_CODE_15                            000F4000    00003FFE =       16382. bytes (REL,CON)

      Value  Global                              Global Defined In Module
      -----  --------------------------------   ------------------------
     000F4000  ___func_bg_5_tileset               bg_5_tileset
     000F4000  _bg_5_tileset                      bg_5_tileset
     000F4412  ___func_bg_exterior_tileset        bg_exterior_tileset
     000F4412  _bg_exterior_tileset               bg_exterior_tileset
     000F4FF4  ___func_bg_kris_ss_tileset         bg_kris_ss_tileset
     000F4FF4  _bg_kris_ss_tileset                bg_kris_ss_tileset
     000F5BE6  ___func_bg_schoolcorridor1_tiles   bg_schoolcorridor1_tileset
     000F5BE6  _bg_schoolcorridor1_tileset        bg_schoolcorridor1_tileset
     000F67C8  ___func_bg_the_castle_copie_tile   bg_the_castle_copie_tileset
     000F67C8  _bg_the_castle_copie_tileset       bg_the_castle_copie_tileset
     000F739A  ___func_bg_thetle_tileset          bg_thetle_tileset
     000F739A  _bg_thetle_tileset                 bg_thetle_tileset
     000F7F8C  ___func_scene_32_sprites           scene_32_sprites
     000F7F8C  _scene_32_sprites                  scene_32_sprites
     000F7F8F  _trigger_13_interact               trigger_13_interact
     000F7F92  GBVM$trigger_13_interact$becf695   trigger_13_interact
     000F7F9B  GBVM$trigger_13_interact$10130dc   trigger_13_interact
     000F7FD0  GBVM$trigger_13_interact$86ab2ff   trigger_13_interact
     000F7FFD  GBVM_END$trigger_13_interact$bec   trigger_13_interact

ASxxxx Linker V03.00/V05.40 + sdld,  page 129.
Hexadecimal  [32-Bits]

Area                                    Addr        Size        Decimal Bytes (Attributes)
--------------------------------        ----        ----        ------- ----- ------------
_CODE_22                            00164000    00004000 =       16384. bytes (REL,CON)

      Value  Global                              Global Defined In Module
      -----  --------------------------------   ------------------------
     00164000  ___func_bg_7_tilemap_attr          bg_7_tilemap_attr
     00164000  _bg_7_tilemap_attr                 bg_7_tilemap_attr
     00164580  ___func_bg_7_tilemap               bg_7_tilemap
     00164580  _bg_7_tilemap                      bg_7_tilemap
     00164B00  ___func_bg_7_tileset               bg_7_tileset
     00164B00  _bg_7_tileset                      bg_7_tileset
     001650F2  ___func_bg_legend3_tileset         bg_legend3_tileset
     001650F2  _bg_legend3_tileset                bg_legend3_tileset
     001656A4  ___func_bg_legend4_tileset         bg_legend4_tileset
     001656A4  _bg_legend4_tileset                bg_legend4_tileset
     00165C76  ___func_bg_worldddddark_tileset    bg_worldddddark_tileset
     00165C76  _bg_worldddddark_tileset           bg_worldddddark_tileset
     00166228  _scene_24_init                     scene_24_init
     0016622B  GBVM$scene_24_init$860a18c9_cc78   scene_24_init
     00166230  GBVM$scene_24_init$599efdd1_a652   scene_24_init
     00166235  GBVM$scene_24_init$c8e61e05_22f5   scene_24_init
     0016623A  GBVM$scene_24_init$0fa2ab83_a094   scene_24_init
     0016623F  GBVM$scene_24_init$aa40ced5_a319   scene_24_init
     00166244  GBVM$scene_24_init$812653bd_5f9e   scene_24_init
     00166249  GBVM$scene_24_init$c004cde2_2cf3   scene_24_init
     0016624E  GBVM$scene_24_init$baca71c2_cbc8   scene_24_init
     00166253  GBVM$scene_24_init$9cbb14c9_b287   scene_24_init
     00166258  GBVM$scene_24_init$97408eaa_f3fc   scene_24_init
     0016625D  GBVM$scene_24_init$ef38ab12_3600   scene_24_init
     00166262  GBVM$scene_24_init$autofade$5cb5   scene_24_init
     0016626D  GBVM$scene_24_init$e9fc09d2_11b9   scene_24_init
     00166321  GBVM$scene_24_init$2df55fca_592c   scene_24_init
     00166398  GBVM$scene_24_init$4ff4ba7e_5c7f   scene_24_init
     0016639D  GBVM$scene_24_init$8b696544_064d   scene_24_init
     001663DE  GBVM$scene_24_init$5778cb5d_0b35   scene_24_init
     00166438  GBVM$scene_24_init$cfa682be_bfaf   scene_24_init
     0016643D  GBVM$scene_24_init$e66138f4_80a8   scene_24_init
     00166482  GBVM$scene_24_init$8a3c8b07_2150   scene_24_init
     001664DA  GBVM$scene_24_init$c4e4cf90_74f1   scene_24_init
     001664DF  GBVM$scene_24_init$64315b37_3a94   scene_24_init
     0016651C  GBVM$scene_24_init$24a4a630_617d   scene_24_init
     00166590  GBVM$scene_24_init$52a7395a_ddb5   scene_24_init
     00166595  GBVM$scene_24_init$b0e7a06e_6ddf   scene_24_init
     00166605  GBVM$scene_24_init$370f149b_5090   scene_24_init
     00166660  GBVM$scene_24_init$a8be1ec8_1fa1   scene_24_init
     00166665  GBVM$scene_24_init$0ebeb920_0931   scene_24_init
     001666BD  GBVM$scene_24_init$3fc069bc_2541   scene_24_init
     001666F8  GBVM$scene_24_init$536f29f6_a4ee   scene_24_init
     00166759  GBVM$scene_24_init$bb28e9cd_5e1e   scene_24_init
     0016678C  ___func_scene_29_actors            scene_29_actors
     0016678C  _scene_29_actors                   scene_29_actors
     001668C4  _scene_42_init                     scene_42_init
     001668C7  GBVM$scene_42_init$1d0647c9_a5fb   scene_42_init
     001668D6  GBVM$scene_42_init$195d0c77_0f00   scene_42_init
     00166A05  GBVM$scene_42_init$a3aee0b6_b984   scene_42_init
ASxxxx Linker V03.00/V05.40 + sdld,  page 130.
Hexadecimal  [32-Bits]

Area                                    Addr        Size        Decimal Bytes (Attributes)
--------------------------------        ----        ----        ------- ----- ------------
_CODE_22                            00164000    00004000 =       16384. bytes (REL,CON)

      Value  Global                              Global Defined In Module
      -----  --------------------------------   ------------------------
     00166A40  GBVM$scene_42_init$07f7330b_01d1   scene_42_init
     00166A49  GBVM$scene_42_init$834e80b7_e6c6   scene_42_init
     00166AA2  GBVM$scene_42_init$8395b016_eb7e   scene_42_init
     00166B17  GBVM$scene_42_init$43d8a596_695d   scene_42_init
     00166B20  GBVM$scene_42_init$e5062d6f_19b9   scene_42_init
     00166B32  GBVM$scene_42_init$1f0fc8e6_9fe0   scene_42_init
     00166B44  GBVM$scene_42_init$34c3f8db_c617   scene_42_init
     00166B46  GBVM$scene_42_init$fb6b1e85_f9f1   scene_42_init
     00166B4C  GBVM$scene_42_init$090a22a6_9989   scene_42_init
     00166B52  GBVM$scene_42_init$b6902674_4bb7   scene_42_init
     00166B58  GBVM$scene_42_init$3d09c91d_80c2   scene_42_init
     00166B5E  GBVM$scene_42_init$aefe712c_2fa8   scene_42_init
     00166B6E  GBVM$scene_42_init$2e57ef5b_bfd1   scene_42_init
     00166C25  GBVM$scene_42_init$22f14e61_f7eb   scene_42_init
     00166C28  GBVM$scene_42_init$autofade$4899   scene_42_init
     00166C33  GBVM$scene_42_init$eb4dca6f_2bdd   scene_42_init
     00166C3C  GBVM$scene_42_init$7625a7e3_992f   scene_42_init
     00166C48  GBVM_END$scene_42_init$7625a7e3_   scene_42_init
     00166C4B  GBVM$scene_42_init$b2e7468f_0678   scene_42_init
     00166CCB  GBVM_END$scene_42_init$aefe712c_   scene_42_init
     00166CCB  GBVM_END$scene_42_init$eb4dca6f_   scene_42_init
     00166CCE  GBVM$scene_42_init$70c77f3b_0493   scene_42_init
     00166CE1  GBVM$scene_42_init$5bd80903_65c9   scene_42_init
     00166D5B  GBVM$scene_42_init$56235e4c_495f   scene_42_init
     00166D73  GBVM$scene_42_init$cdd7e32f_40ea   scene_42_init
     00166D8B  GBVM$scene_42_init$33285938_8af9   scene_42_init
     00166DA3  GBVM$scene_42_init$1362694c_7b9c   scene_42_init
     00166DBB  GBVM$scene_42_init$e85aadd3_6d36   scene_42_init
     00166DC0  GBVM$scene_42_init$bc14db01_8d5e   scene_42_init
     00166DC2  GBVM$scene_42_init$096e7618_4300   scene_42_init
     00166DC8  GBVM$scene_42_init$2fec251a_c9cc   scene_42_init
     00166DCE  GBVM$scene_42_init$62d6a3a5_468a   scene_42_init
     00166DD4  GBVM$scene_42_init$88da2201_0ef6   scene_42_init
     00166DDA  GBVM$scene_42_init$c9796e3e_0ca0   scene_42_init
     00166DE0  GBVM_END$scene_42_init$1f0fc8e6_   scene_42_init
     00166DE0  GBVM_END$scene_42_init$70c77f3b_   scene_42_init
     00166DE3  GBVM$scene_42_init$a5b9090d_9a99   scene_42_init
     00166E15  GBVM_END$scene_42_init$e5062d6f_   scene_42_init
     00166E18  GBVM$scene_42_init$2dc3f6ee_5e1a   scene_42_init
     00166E4A  GBVM_END$scene_42_init$43d8a596_   scene_42_init
     00166E4D  GBVM$scene_42_init$67cdfdb2_2603   scene_42_init
     00166E7F  GBVM_END$scene_42_init$07f7330b_   scene_42_init
     00166E80  ___func_scene_57_collisions        scene_57_collisions
     00166E80  _scene_57_collisions               scene_57_collisions
     00167480  ___func_scene_58_collisions        scene_58_collisions
     00167480  _scene_58_collisions               scene_58_collisions
     00167A80  ___func_scene_59_collisions        scene_59_collisions
     00167A80  _scene_59_collisions               scene_59_collisions

ASxxxx Linker V03.00/V05.40 + sdld,  page 131.
Hexadecimal  [32-Bits]

Area                                    Addr        Size        Decimal Bytes (Attributes)
--------------------------------        ----        ----        ------- ----- ------------
_CODE_19                            00134000    00004000 =       16384. bytes (REL,CON)

      Value  Global                              Global Defined In Module
      -----  --------------------------------   ------------------------
     00134000  ___func_bg_city1_tileset           bg_city1_tileset
     00134000  _bg_city1_tileset                  bg_city1_tileset
     00134862  ___func_bg_dogchecksavedata_tile   bg_dogchecksavedata_tileset
     00134862  _bg_dogchecksavedata_tileset       bg_dogchecksavedata_tileset
     00134F94  ___func_bg_legend1d_tileset        bg_legend1d_tileset
     00134F94  _bg_legend1d_tileset               bg_legend1d_tileset
     00135796  ___func_bg_legendsealfountain_ti   bg_legendsealfountain_tilese
     00135796  _bg_legendsealfountain_tileset     bg_legendsealfountain_tilese
     00135F78  ___func_bg_quelesttonnom_copie_t   bg_quelesttonnom_copie_tiles
     00135F78  _bg_quelesttonnom_copie_tileset    bg_quelesttonnom_copie_tiles
     0013675A  ___func_bg_schoolcorridor1_tilem   bg_schoolcorridor1_tilemap_a
     0013675A  _bg_schoolcorridor1_tilemap_attr   bg_schoolcorridor1_tilemap_a
     00136F7A  ___func_bg_schoolcorridor1_tilem   bg_schoolcorridor1_tilemap
     00136F7A  _bg_schoolcorridor1_tilemap        bg_schoolcorridor1_tilemap
     0013779A  ___func_palette_0                  palette_0
     0013779A  _palette_0                         palette_0
     001377DD  ___func_scene_14_collisions        scene_14_collisions
     001377DD  _scene_14_collisions               scene_14_collisions
     00137FFD  ___func_scene_35_sprites           scene_35_sprites
     00137FFD  _scene_35_sprites                  scene_35_sprites

ASxxxx Linker V03.00/V05.40 + sdld,  page 132.
Hexadecimal  [32-Bits]

Area                                    Addr        Size        Decimal Bytes (Attributes)
--------------------------------        ----        ----        ------- ----- ------------
_CODE_14                            000E4000    00003FFE =       16382. bytes (REL,CON)

      Value  Global                              Global Defined In Module
      -----  --------------------------------   ------------------------
     000E4000  ___func_bg_kris_s_tileset          bg_kris_s_tileset
     000E4000  _bg_kris_s_tileset                 bg_kris_s_tileset
     000E4BF2  ___func_bg_krislegend_tilemap_at   bg_krislegend_tilemap_attr
     000E4BF2  _bg_krislegend_tilemap_attr        bg_krislegend_tilemap_attr
     000E4D7E  ___func_bg_room_tileset            bg_room_tileset
     000E4D7E  _bg_room_tileset                   bg_room_tileset
     000E5980  ___func_bg_secoundfountain_tiles   bg_secoundfountain_tileset
     000E5980  _bg_secoundfountain_tileset        bg_secoundfountain_tileset
     000E6582  ___func_font_gbs_portrait_copie    font_gbs_portrait_copie
     000E7322  _font_gbs_portrait_copie           font_gbs_portrait_copie
     000E7FE9  _song_anotherhim_Data              song_anotherhim_Data

ASxxxx Linker V03.00/V05.40 + sdld,  page 133.
Hexadecimal  [32-Bits]

Area                                    Addr        Size        Decimal Bytes (Attributes)
--------------------------------        ----        ----        ------- ----- ------------
_CODE_4                             00044000    00004000 =       16384. bytes (REL,CON)

      Value  Global                              Global Defined In Module
      -----  --------------------------------   ------------------------
     00044000  ___func_bg_legend4_tilemap_attr    bg_legend4_tilemap_attr
     00044000  _bg_legend4_tilemap_attr           bg_legend4_tilemap_attr
     0004581B  _song_susie_Data                   song_susie_Data
     00045830  ___func_scene_21_collisions        scene_21_collisions
     00045830  _scene_21_collisions               scene_21_collisions

ASxxxx Linker V03.00/V05.40 + sdld,  page 134.
Hexadecimal  [32-Bits]

Area                                    Addr        Size        Decimal Bytes (Attributes)
--------------------------------        ----        ----        ------- ----- ------------
_CODE_9                             00094000    00003FFF =       16383. bytes (REL,CON)

      Value  Global                              Global Defined In Module
      -----  --------------------------------   ------------------------
     000958F7  _song_anothergameover_Data         song_anothergameover_Data
     00097133  _song_song_template_0_Data         song_song_template_0_Data
     00097148  ___func_sprite_susiehs_copie       sprite_susiehs_copie
     00097148  _sprite_susiehs_copie_metasprite   sprite_susiehs_copie
     0009716C  _sprite_susiehs_copie_metasprite   sprite_susiehs_copie
     00097190  _sprite_susiehs_copie_metasprite   sprite_susiehs_copie
     000971AC  _sprite_susiehs_copie_metasprite   sprite_susiehs_copie
     000971D0  _sprite_susiehs_copie_metasprite   sprite_susiehs_copie
     000971D8  _sprite_susiehs_copie_animations   sprite_susiehs_copie
     000971E8  _sprite_susiehs_copie_animations   sprite_susiehs_copie
     000971EA  _sprite_susiehs_copie              sprite_susiehs_copie
     000971FD  ___func_tileset_gbs_mono           tileset_gbs_mono
     000971FD  _tileset_gbs_mono                  tileset_gbs_mono

ASxxxx Linker V03.00/V05.40 + sdld,  page 135.
Hexadecimal  [32-Bits]

Area                                    Addr        Size        Decimal Bytes (Attributes)
--------------------------------        ----        ----        ------- ----- ------------
_CODE_8                             00084000    00004000 =       16384. bytes (REL,CON)

      Value  Global                              Global Defined In Module
      -----  --------------------------------   ------------------------
     000860AF  _song_lancervsvr_Data              song_lancervsvr_Data
     000860C4  _scene_65_init                     scene_65_init
     000860C7  GBVM$scene_65_init$5584f2fb_526b   scene_65_init
     000860D1  GBVM$scene_65_init$ae381c8e_d0cb   scene_65_init
     000860E6  GBVM$scene_65_init$0467929d_a12b   scene_65_init
     000860F0  GBVM$scene_65_init$143d95c9_19ec   scene_65_init
     000860FA  GBVM$scene_65_init$autofade$64da   scene_65_init
     000860FA  GBVM_END$scene_65_init$ae381c8e_   scene_65_init
     00086105  GBVM$scene_65_init$21e4bc07_91ae   scene_65_init
     00086117  GBVM$scene_65_init$8963da63_9cf6   scene_65_init
     00086129  GBVM$scene_65_init$162b82a6_44db   scene_65_init
     0008613B  GBVM$scene_65_init$d3336553_eb77   scene_65_init
     00086145  GBVM$scene_65_init$2c59dfef_411a   scene_65_init
     0008614F  GBVM$scene_65_init$0f721d59_ab78   scene_65_init
     0008615C  GBVM$scene_65_init$3a08258f_ff06   scene_65_init
     00086166  GBVM$scene_65_init$61b8bcda_6fdb   scene_65_init
     00086170  GBVM$scene_65_init$1254b7a4_9ca5   scene_65_init
     000861AE  GBVM$scene_65_init$bc50bcd4_1d2b   scene_65_init
     000861D1  GBVM$scene_65_init$328974b8_c31c   scene_65_init
     000862BC  GBVM$scene_65_init$0dc5248c_e99e   scene_65_init
     000862C7  GBVM$scene_65_init$ddde4e47_b0f9   scene_65_init
     00086417  GBVM$scene_65_init$7d8b27eb_12d5   scene_65_init
     00086420  GBVM$scene_65_init$e560af36_9dd6   scene_65_init
     0008642C  GBVM$scene_65_init$883a589d_9156   scene_65_init
     00086435  GBVM$scene_65_init$4c4d7fe9_95c4   scene_65_init
     00086478  GBVM$scene_65_init$f10a3c9b_c36b   scene_65_init
     0008649B  GBVM$scene_65_init$47d293ff_e83b   scene_65_init
     000864A5  GBVM$scene_65_init$f3c2abd5_50f5   scene_65_init
     0008650D  GBVM$scene_65_init$a27c818e_74ab   scene_65_init
     00086530  GBVM$scene_65_init$726483fd_6316   scene_65_init
     00086539  GBVM$scene_65_init$dedd81b4_9bcc   scene_65_init
     0008667F  GBVM$scene_65_init$a1c4da6a_fc3c   scene_65_init
     00086688  GBVM$scene_65_init$c3a2efac_dc27   scene_65_init
     0008672A  GBVM$scene_65_init$2696a678_e57d   scene_65_init
     0008681F  GBVM$scene_65_init$5802d3d1_7d8e   scene_65_init
     00086824  GBVM$scene_65_init$d6b85fb0_2dc3   scene_65_init
     0008682E  GBVM_END$scene_65_init$162b82a6_   scene_65_init
     00086831  GBVM$scene_65_init$9017a676_df43   scene_65_init
     00086C19  GBVM$scene_65_init$05aa28ad_d70d   scene_65_init
     00086C22  GBVM$scene_65_init$86788104_573e   scene_65_init
     00086C2E  GBVM$scene_65_init$07d5aff6_16e5   scene_65_init
     00086C38  GBVM$scene_65_init$583ae2b5_3b63   scene_65_init
     00086C5B  GBVM$scene_65_init$c0bebe51_bf8d   scene_65_init
     00086C61  GBVM$scene_65_init$f326bf16_1572   scene_65_init
     00086C6B  GBVM$scene_65_init$25527042_106e   scene_65_init
     00086C84  GBVM$scene_65_init$34ed3ec8_63d6   scene_65_init
     00087079  GBVM$scene_65_init$b4123c78_5974   scene_65_init
     0008707E  GBVM$scene_65_init$d251aae9_eda6   scene_65_init
     000870B0  GBVM_END$scene_65_init$8963da63_   scene_65_init
     000870B3  GBVM$scene_65_init$37fef17c_dcd0   scene_65_init
ASxxxx Linker V03.00/V05.40 + sdld,  page 136.
Hexadecimal  [32-Bits]

Area                                    Addr        Size        Decimal Bytes (Attributes)
--------------------------------        ----        ----        ------- ----- ------------
_CODE_8                             00084000    00004000 =       16384. bytes (REL,CON)

      Value  Global                              Global Defined In Module
      -----  --------------------------------   ------------------------
     000870D6  GBVM$scene_65_init$e867d1fa_a93b   scene_65_init
     00087205  GBVM$scene_65_init$9e623366_1edf   scene_65_init
     00087228  GBVM$scene_65_init$febb45fc_3631   scene_65_init
     0008724B  GBVM$scene_65_init$33f2027f_bba4   scene_65_init
     000873DD  GBVM$scene_65_init$877d321f_60d0   scene_65_init
     0008741B  GBVM$scene_65_init$3193e5fa_ca7b   scene_65_init
     0008742D  GBVM$scene_65_init$3dcfb510_fd82   scene_65_init
     00087510  GBVM$scene_65_init$738bc8dc_112c   scene_65_init
     00087557  GBVM$scene_65_init$b390baba_83ed   scene_65_init
     00087569  GBVM$scene_65_init$8f64517f_1d4a   scene_65_init
     00087866  GBVM$scene_65_init$2f2d89ec_bdbc   scene_65_init
     00087870  GBVM$scene_65_init$0ae22711_a3e4   scene_65_init
     00087893  GBVM$scene_65_init$f2756025_31e7   scene_65_init
     00087899  GBVM$scene_65_init$d17351f1_39d5   scene_65_init
     000878A3  GBVM$scene_65_init$c8c134aa_f205   scene_65_init
     000878BC  GBVM$scene_65_init$80ab658c_7a61   scene_65_init
     00087E6E  GBVM$scene_65_init$3de446cd_6723   scene_65_init
     00087E73  GBVM$scene_65_init$16953c2c_5406   scene_65_init
     00087EA8  GBVM$scene_65_init$7c09b104_51b5   scene_65_init
     00087F00  GBVM$scene_65_init$57355ad6_315d   scene_65_init
     00087F05  GBVM$scene_65_init$769f5585_75da   scene_65_init
     00087F37  GBVM_END$scene_65_init$b390baba_   scene_65_init
     00087F3A  GBVM$scene_65_init$f061d15d_f1b9   scene_65_init
     00087F75  GBVM$scene_65_init$afcb0749_8f1f   scene_65_init
     00087F7A  GBVM$scene_65_init$42c65e15_e01a   scene_65_init
     00087FAC  GBVM_END$scene_65_init$21e4bc07_   scene_65_init
     00087FAC  GBVM_END$scene_65_init$3193e5fa_   scene_65_init
     00087FAD  GBVM$script_9$f07f2e95_8aa9_4dab   script_9
     00087FAD  _script_9                          script_9
     00087FC2  GBVM$script_9$13a136cd_ea7d_4cd5   script_9
     00087FFE  GBVM_END$script_9$f07f2e95_8aa9_   script_9
ASxxxx Linker V03.00/V05.40 + sdld,  page 137.
Hexadecimal  [32-Bits]

Area                                    Addr        Size        Decimal Bytes (Attributes)
--------------------------------        ----        ----        ------- ----- ------------
_CODE_2                             00024000    00003FFF =       16383. bytes (REL,CON)

      Value  Global                              Global Defined In Module
      -----  --------------------------------   ------------------------
     0002747F  _song_song_template_Data           song_song_template_Data
     00027494  ___func_scene_44_sprites           scene_44_sprites
     00027494  _scene_44_sprites                  scene_44_sprites
     0002749D  ___func_sprite_room2_tileset       sprite_room2_tileset
     0002749D  _sprite_room2_tileset              sprite_room2_tileset

ASxxxx Linker V03.00/V05.40 + sdld,  page 138.
Hexadecimal  [32-Bits]

Area                                    Addr        Size        Decimal Bytes (Attributes)
--------------------------------        ----        ----        ------- ----- ------------
_HEADER_LCD0                        00000000    00000003 =           3. bytes (ABS,CON)

      Value  Global                              Global Defined In Module
      -----  --------------------------------   ------------------------
ASxxxx Linker V03.00/V05.40 + sdld,  page 139.

Files Linked                              [ module(s) ]

C:\Users\f_bes\AppData\Local\Temp/_gbstools/gbdk/lib/gb/crt0.o
                                          [ Runtime ]
C:/Users/f_bes/AppData/Local/Temp/_gbsbuild/obj/absolute.rel
                                          [ absolute ]
C:/Users/f_bes/AppData/Local/Temp/_gbsbuild/obj/actor.rel
                                          [ actor ]
C:/Users/f_bes/AppData/Local/Temp/_gbsbuild/obj/bankdata.rel
                                          [ bankdata ]
C:/Users/f_bes/AppData/Local/Temp/_gbsbuild/obj/bootstrap.rel
                                          [  ]
C:/Users/f_bes/AppData/Local/Temp/_gbsbuild/obj/camera.rel
                                          [ camera ]
C:/Users/f_bes/AppData/Local/Temp/_gbsbuild/obj/core.rel
                                          [ core ]
C:/Users/f_bes/AppData/Local/Temp/_gbsbuild/obj/crash_handler.rel
                                          [  ]
C:/Users/f_bes/AppData/Local/Temp/_gbsbuild/obj/data_manager.rel
                                          [ data_manager ]
C:/Users/f_bes/AppData/Local/Temp/_gbsbuild/obj/events.rel
                                          [ events ]
C:/Users/f_bes/AppData/Local/Temp/_gbsbuild/obj/fade_manager.rel
                                          [ fade_manager ]
C:/Users/f_bes/AppData/Local/Temp/_gbsbuild/obj/flasher_s.rel
                                          [  ]
C:/Users/f_bes/AppData/Local/Temp/_gbsbuild/obj/flasher.rel
                                          [ flasher ]
C:/Users/f_bes/AppData/Local/Temp/_gbsbuild/obj/game_time.rel
                                          [ game_time ]
C:/Users/f_bes/AppData/Local/Temp/_gbsbuild/obj/gbprinter.rel
                                          [ gbprinter ]
C:/Users/f_bes/AppData/Local/Temp/_gbsbuild/obj/input.rel
                                          [ input ]
C:/Users/f_bes/AppData/Local/Temp/_gbsbuild/obj/interrupt_sio.rel
                                          [  ]
C:/Users/f_bes/AppData/Local/Temp/_gbsbuild/obj/interrupt_timer.rel
                                          [  ]
C:/Users/f_bes/AppData/Local/Temp/_gbsbuild/obj/interrupts.rel
                                          [ interrupts ]
C:/Users/f_bes/AppData/Local/Temp/_gbsbuild/obj/load_save.rel
                                          [ load_save ]
C:/Users/f_bes/AppData/Local/Temp/_gbsbuild/obj/math_atan2.rel
                                          [ math_atan2 ]
C:/Users/f_bes/AppData/Local/Temp/_gbsbuild/obj/math.rel
                                          [ math ]
C:/Users/f_bes/AppData/Local/Temp/_gbsbuild/obj/music_manager.rel
                                          [ music_manager ]
C:/Users/f_bes/AppData/Local/Temp/_gbsbuild/obj/palette.rel
                                          [ palette ]
C:/Users/f_bes/AppData/Local/Temp/_gbsbuild/obj/parallax.rel
                                          [ parallax ]
C:/Users/f_bes/AppData/Local/Temp/_gbsbuild/obj/projectiles.rel
                                          [ projectiles ]
C:/Users/f_bes/AppData/Local/Temp/_gbsbuild/obj/scroll_a.rel
                                          [  ]
C:/Users/f_bes/AppData/Local/Temp/_gbsbuild/obj/scroll.rel
                                          [ scroll ]
C:/Users/f_bes/AppData/Local/Temp/_gbsbuild/obj/set_tile_submap.rel
                                          [  ]
C:/Users/f_bes/AppData/Local/Temp/_gbsbuild/obj/sfx_player.rel
                                          [ sfx_player ]
C:/Users/f_bes/AppData/Local/Temp/_gbsbuild/obj/sgb_border.rel
                                          [ sgb_border ]
C:/Users/f_bes/AppData/Local/Temp/_gbsbuild/obj/sio.rel
                                          [ sio ]
C:/Users/f_bes/AppData/Local/Temp/_gbsbuild/obj/states_caller.rel
                                          [  ]
C:/Users/f_bes/AppData/Local/Temp/_gbsbuild/obj/system.rel
                                          [ system ]
C:/Users/f_bes/AppData/Local/Temp/_gbsbuild/obj/trigger.rel
                                          [ trigger ]
C:/Users/f_bes/AppData/Local/Temp/_gbsbuild/obj/ui_a.rel
                                          [  ]
C:/Users/f_bes/AppData/Local/Temp/_gbsbuild/obj/ui.rel
                                          [ ui ]
C:/Users/f_bes/AppData/Local/Temp/_gbsbuild/obj/vm_actor.rel
                                          [ vm_actor ]
C:/Users/f_bes/AppData/Local/Temp/_gbsbuild/obj/vm_camera.rel
                                          [ vm_camera ]
C:/Users/f_bes/AppData/Local/Temp/_gbsbuild/obj/vm_gameboy.rel
                                          [ vm_gameboy ]
C:/Users/f_bes/AppData/Local/Temp/_gbsbuild/obj/vm_gbprinter.rel
                                          [ vm_gbprinter ]
C:/Users/f_bes/AppData/Local/Temp/_gbsbuild/obj/vm_instructions.rel
                                          [ vm_instructions ]
C:/Users/f_bes/AppData/Local/Temp/_gbsbuild/obj/vm_load_save.rel
                                          [ vm_load_save ]
C:/Users/f_bes/AppData/Local/Temp/_gbsbuild/obj/vm_math.rel
                                          [ vm_math ]
C:/Users/f_bes/AppData/Local/Temp/_gbsbuild/obj/vm_music.rel
                                          [ vm_music ]
C:/Users/f_bes/AppData/Local/Temp/_gbsbuild/obj/vm_palette.rel
                                          [ vm_palette ]
C:/Users/f_bes/AppData/Local/Temp/_gbsbuild/obj/vm_projectiles.rel
                                          [ vm_projectiles ]
C:/Users/f_bes/AppData/Local/Temp/_gbsbuild/obj/vm_rtc.rel
                                          [ vm_rtc ]
C:/Users/f_bes/AppData/Local/Temp/_gbsbuild/obj/vm_scene.rel
                                          [ vm_scene ]
C:/Users/f_bes/AppData/Local/Temp/_gbsbuild/obj/vm_sgb.rel
                                          [ vm_sgb ]
C:/Users/f_bes/AppData/Local/Temp/_gbsbuild/obj/vm_sio.rel
                                          [ vm_sio ]
C:/Users/f_bes/AppData/Local/Temp/_gbsbuild/obj/vm_ui_a.rel
                                          [ vm_ui_a ]
C:/Users/f_bes/AppData/Local/Temp/_gbsbuild/obj/vm_ui.rel
                                          [ vm_ui ]
C:/Users/f_bes/AppData/Local/Temp/_gbsbuild/obj/vm.rel
                                          [ vm ]
C:/Users/f_bes/AppData/Local/Temp/_gbsbuild/obj/actor_10_interact.rel
                                          [ actor_10_interact ]
C:/Users/f_bes/AppData/Local/Temp/_gbsbuild/obj/actor_11_interact.rel
                                          [ actor_11_interact ]
C:/Users/f_bes/AppData/Local/Temp/_gbsbuild/obj/actor_12_interact.rel
                                          [ actor_12_interact ]
C:/Users/f_bes/AppData/Local/Temp/_gbsbuild/obj/actor_13_interact.rel
                                          [ actor_13_interact ]
C:/Users/f_bes/AppData/Local/Temp/_gbsbuild/obj/actor_14_interact.rel
                                          [ actor_14_interact ]
C:/Users/f_bes/AppData/Local/Temp/_gbsbuild/obj/actor_15_interact.rel
                                          [ actor_15_interact ]
C:/Users/f_bes/AppData/Local/Temp/_gbsbuild/obj/actor_16_interact.rel
                                          [ actor_16_interact ]
C:/Users/f_bes/AppData/Local/Temp/_gbsbuild/obj/actor_17_interact.rel
                                          [ actor_17_interact ]
C:/Users/f_bes/AppData/Local/Temp/_gbsbuild/obj/actor_18_interact.rel
                                          [ actor_18_interact ]
C:/Users/f_bes/AppData/Local/Temp/_gbsbuild/obj/actor_19_interact.rel
                                          [ actor_19_interact ]
C:/Users/f_bes/AppData/Local/Temp/_gbsbuild/obj/actor_20_interact.rel
                                          [ actor_20_interact ]
C:/Users/f_bes/AppData/Local/Temp/_gbsbuild/obj/actor_21_interact.rel
                                          [ actor_21_interact ]
C:/Users/f_bes/AppData/Local/Temp/_gbsbuild/obj/actor_23_interact.rel
                                          [ actor_23_interact ]
C:/Users/f_bes/AppData/Local/Temp/_gbsbuild/obj/actor_24_interact.rel
                                          [ actor_24_interact ]
C:/Users/f_bes/AppData/Local/Temp/_gbsbuild/obj/actor_3_interact.rel
                                          [ actor_3_interact ]
C:/Users/f_bes/AppData/Local/Temp/_gbsbuild/obj/actor_31_interact.rel
                                          [ actor_31_interact ]
C:/Users/f_bes/AppData/Local/Temp/_gbsbuild/obj/actor_32_interact.rel
                                          [ actor_32_interact ]
C:/Users/f_bes/AppData/Local/Temp/_gbsbuild/obj/actor_33_interact.rel
                                          [ actor_33_interact ]
C:/Users/f_bes/AppData/Local/Temp/_gbsbuild/obj/actor_34_interact.rel
                                          [ actor_34_interact ]
C:/Users/f_bes/AppData/Local/Temp/_gbsbuild/obj/actor_37_interact.rel
                                          [ actor_37_interact ]
C:/Users/f_bes/AppData/Local/Temp/_gbsbuild/obj/actor_52_interact.rel
                                          [ actor_52_interact ]
C:/Users/f_bes/AppData/Local/Temp/_gbsbuild/obj/actor_55_interact.rel
                                          [ actor_55_interact ]
C:/Users/f_bes/AppData/Local/Temp/_gbsbuild/obj/actor_56_interact.rel
                                          [ actor_56_interact ]
C:/Users/f_bes/AppData/Local/Temp/_gbsbuild/obj/actor_57_interact.rel
                                          [ actor_57_interact ]
C:/Users/f_bes/AppData/Local/Temp/_gbsbuild/obj/actor_58_interact.rel
                                          [ actor_58_interact ]
C:/Users/f_bes/AppData/Local/Temp/_gbsbuild/obj/actor_59_interact.rel
                                          [ actor_59_interact ]
C:/Users/f_bes/AppData/Local/Temp/_gbsbuild/obj/actor_62_interact.rel
                                          [ actor_62_interact ]
C:/Users/f_bes/AppData/Local/Temp/_gbsbuild/obj/actor_67_interact.rel
                                          [ actor_67_interact ]
C:/Users/f_bes/AppData/Local/Temp/_gbsbuild/obj/actor_70_interact.rel
                                          [ actor_70_interact ]
C:/Users/f_bes/AppData/Local/Temp/_gbsbuild/obj/actor_73_interact.rel
                                          [ actor_73_interact ]
C:/Users/f_bes/AppData/Local/Temp/_gbsbuild/obj/actor_78_interact.rel
                                          [ actor_78_interact ]
C:/Users/f_bes/AppData/Local/Temp/_gbsbuild/obj/actor_79_interact.rel
                                          [ actor_79_interact ]
C:/Users/f_bes/AppData/Local/Temp/_gbsbuild/obj/actor_84_interact.rel
                                          [ actor_84_interact ]
C:/Users/f_bes/AppData/Local/Temp/_gbsbuild/obj/actor_85_interact.rel
                                          [ actor_85_interact ]
C:/Users/f_bes/AppData/Local/Temp/_gbsbuild/obj/actor_9_interact.rel
                                          [ actor_9_interact ]
C:/Users/f_bes/AppData/Local/Temp/_gbsbuild/obj/bg_10_tilemap_attr.rel
                                          [ bg_10_tilemap_attr ]
C:/Users/f_bes/AppData/Local/Temp/_gbsbuild/obj/bg_10_tilemap.rel
                                          [ bg_10_tilemap ]
C:/Users/f_bes/AppData/Local/Temp/_gbsbuild/obj/bg_10_tileset.rel
                                          [ bg_10_tileset ]
C:/Users/f_bes/AppData/Local/Temp/_gbsbuild/obj/bg_10.rel
                                          [ bg_10 ]
C:/Users/f_bes/AppData/Local/Temp/_gbsbuild/obj/bg_2_tilemap_attr.rel
                                          [ bg_2_tilemap_attr ]
C:/Users/f_bes/AppData/Local/Temp/_gbsbuild/obj/bg_2_tilemap.rel
                                          [ bg_2_tilemap ]
C:/Users/f_bes/AppData/Local/Temp/_gbsbuild/obj/bg_2_tileset.rel
                                          [ bg_2_tileset ]
C:/Users/f_bes/AppData/Local/Temp/_gbsbuild/obj/bg_2.rel
                                          [ bg_2 ]
C:/Users/f_bes/AppData/Local/Temp/_gbsbuild/obj/bg_3_tilemap_attr.rel
                                          [ bg_3_tilemap_attr ]
C:/Users/f_bes/AppData/Local/Temp/_gbsbuild/obj/bg_3_tilemap.rel
                                          [ bg_3_tilemap ]
C:/Users/f_bes/AppData/Local/Temp/_gbsbuild/obj/bg_3_tileset.rel
                                          [ bg_3_tileset ]
C:/Users/f_bes/AppData/Local/Temp/_gbsbuild/obj/bg_3.rel
                                          [ bg_3 ]
C:/Users/f_bes/AppData/Local/Temp/_gbsbuild/obj/bg_4_tilemap_attr.rel
                                          [ bg_4_tilemap_attr ]
C:/Users/f_bes/AppData/Local/Temp/_gbsbuild/obj/bg_4_tilemap.rel
                                          [ bg_4_tilemap ]
C:/Users/f_bes/AppData/Local/Temp/_gbsbuild/obj/bg_4_tileset.rel
                                          [ bg_4_tileset ]
C:/Users/f_bes/AppData/Local/Temp/_gbsbuild/obj/bg_4.rel
                                          [ bg_4 ]
C:/Users/f_bes/AppData/Local/Temp/_gbsbuild/obj/bg_5_tilemap_attr.rel
                                          [ bg_5_tilemap_attr ]
C:/Users/f_bes/AppData/Local/Temp/_gbsbuild/obj/bg_5_tilemap.rel
                                          [ bg_5_tilemap ]
C:/Users/f_bes/AppData/Local/Temp/_gbsbuild/obj/bg_5_tileset.rel
                                          [ bg_5_tileset ]
C:/Users/f_bes/AppData/Local/Temp/_gbsbuild/obj/bg_5.rel
                                          [ bg_5 ]
C:/Users/f_bes/AppData/Local/Temp/_gbsbuild/obj/bg_6_1__tilemap_attr.rel
                                          [ bg_6_1__tilemap_attr ]
C:/Users/f_bes/AppData/Local/Temp/_gbsbuild/obj/bg_6_1__tilemap.rel
                                          [ bg_6_1__tilemap ]
C:/Users/f_bes/AppData/Local/Temp/_gbsbuild/obj/bg_6_1__tileset.rel
                                          [ bg_6_1__tileset ]
C:/Users/f_bes/AppData/Local/Temp/_gbsbuild/obj/bg_6_1_.rel
                                          [ bg_6_1_ ]
C:/Users/f_bes/AppData/Local/Temp/_gbsbuild/obj/bg_6_tilemap_attr.rel
                                          [ bg_6_tilemap_attr ]
C:/Users/f_bes/AppData/Local/Temp/_gbsbuild/obj/bg_6_tilemap.rel
                                          [ bg_6_tilemap ]
C:/Users/f_bes/AppData/Local/Temp/_gbsbuild/obj/bg_6_tileset.rel
                                          [ bg_6_tileset ]
C:/Users/f_bes/AppData/Local/Temp/_gbsbuild/obj/bg_6.rel
                                          [ bg_6 ]
C:/Users/f_bes/AppData/Local/Temp/_gbsbuild/obj/bg_7_tilemap_attr.rel
                                          [ bg_7_tilemap_attr ]
C:/Users/f_bes/AppData/Local/Temp/_gbsbuild/obj/bg_7_tilemap.rel
                                          [ bg_7_tilemap ]
C:/Users/f_bes/AppData/Local/Temp/_gbsbuild/obj/bg_7_tileset.rel
                                          [ bg_7_tileset ]
C:/Users/f_bes/AppData/Local/Temp/_gbsbuild/obj/bg_7.rel
                                          [ bg_7 ]
C:/Users/f_bes/AppData/Local/Temp/_gbsbuild/obj/bg_8_tilemap_attr.rel
                                          [ bg_8_tilemap_attr ]
C:/Users/f_bes/AppData/Local/Temp/_gbsbuild/obj/bg_8_tilemap.rel
                                          [ bg_8_tilemap ]
C:/Users/f_bes/AppData/Local/Temp/_gbsbuild/obj/bg_8_tileset.rel
                                          [ bg_8_tileset ]
C:/Users/f_bes/AppData/Local/Temp/_gbsbuild/obj/bg_8.rel
                                          [ bg_8 ]
C:/Users/f_bes/AppData/Local/Temp/_gbsbuild/obj/bg_9_1__tilemap_attr.rel
                                          [ bg_9_1__tilemap_attr ]
C:/Users/f_bes/AppData/Local/Temp/_gbsbuild/obj/bg_9_1__tilemap.rel
                                          [ bg_9_1__tilemap ]
C:/Users/f_bes/AppData/Local/Temp/_gbsbuild/obj/bg_9_1__tileset.rel
                                          [ bg_9_1__tileset ]
C:/Users/f_bes/AppData/Local/Temp/_gbsbuild/obj/bg_9_1_.rel
                                          [ bg_9_1_ ]
C:/Users/f_bes/AppData/Local/Temp/_gbsbuild/obj/bg_9_tilemap_attr.rel
                                          [ bg_9_tilemap_attr ]
C:/Users/f_bes/AppData/Local/Temp/_gbsbuild/obj/bg_9_tilemap.rel
                                          [ bg_9_tilemap ]
C:/Users/f_bes/AppData/Local/Temp/_gbsbuild/obj/bg_9_tileset.rel
                                          [ bg_9_tileset ]
C:/Users/f_bes/AppData/Local/Temp/_gbsbuild/obj/bg_9.rel
                                          [ bg_9 ]
C:/Users/f_bes/AppData/Local/Temp/_gbsbuild/obj/bg_b0027_copie_tilemap_attr.rel
                                          [ bg_b0027_copie_tilemap_attr ]
C:/Users/f_bes/AppData/Local/Temp/_gbsbuild/obj/bg_b0027_copie_tilemap.rel
                                          [ bg_b0027_copie_tilemap ]
C:/Users/f_bes/AppData/Local/Temp/_gbsbuild/obj/bg_b0027_copie_tileset.rel
                                          [ bg_b0027_copie_tileset ]
C:/Users/f_bes/AppData/Local/Temp/_gbsbuild/obj/bg_b0027_copie.rel
                                          [ bg_b0027_copie ]
C:/Users/f_bes/AppData/Local/Temp/_gbsbuild/obj/bg_black_copie_tilemap_attr.rel
                                          [ bg_black_copie_tilemap_attr ]
C:/Users/f_bes/AppData/Local/Temp/_gbsbuild/obj/bg_black_copie_tilemap.rel
                                          [ bg_black_copie_tilemap ]
C:/Users/f_bes/AppData/Local/Temp/_gbsbuild/obj/bg_black_copie_tileset.rel
                                          [ bg_black_copie_tileset ]
C:/Users/f_bes/AppData/Local/Temp/_gbsbuild/obj/bg_black_copie.rel
                                          [ bg_black_copie ]
C:/Users/f_bes/AppData/Local/Temp/_gbsbuild/obj/bg_black_tilemap_attr.rel
                                          [ bg_black_tilemap_attr ]
C:/Users/f_bes/AppData/Local/Temp/_gbsbuild/obj/bg_black_tilemap.rel
                                          [ bg_black_tilemap ]
C:/Users/f_bes/AppData/Local/Temp/_gbsbuild/obj/bg_black_tileset.rel
                                          [ bg_black_tileset ]
C:/Users/f_bes/AppData/Local/Temp/_gbsbuild/obj/bg_black.rel
                                          [ bg_black ]
C:/Users/f_bes/AppData/Local/Temp/_gbsbuild/obj/bg_blackdoor_tilemap_attr.rel
                                          [ bg_blackdoor_tilemap_attr ]
C:/Users/f_bes/AppData/Local/Temp/_gbsbuild/obj/bg_blackdoor_tilemap.rel
                                          [ bg_blackdoor_tilemap ]
C:/Users/f_bes/AppData/Local/Temp/_gbsbuild/obj/bg_blackdoor_tileset.rel
                                          [ bg_blackdoor_tileset ]
C:/Users/f_bes/AppData/Local/Temp/_gbsbuild/obj/bg_blackdoor.rel
                                          [ bg_blackdoor ]
C:/Users/f_bes/AppData/Local/Temp/_gbsbuild/obj/bg_castle_town_map2_tilemap_attr.rel
                                          [ bg_castle_town_map2_tilemap_attr ]
C:/Users/f_bes/AppData/Local/Temp/_gbsbuild/obj/bg_castle_town_map2_tilemap.rel
                                          [ bg_castle_town_map2_tilemap ]
C:/Users/f_bes/AppData/Local/Temp/_gbsbuild/obj/bg_castle_town_map2_tileset.rel
                                          [ bg_castle_town_map2_tileset ]
C:/Users/f_bes/AppData/Local/Temp/_gbsbuild/obj/bg_castle_town_map2.rel
                                          [ bg_castle_town_map2 ]
C:/Users/f_bes/AppData/Local/Temp/_gbsbuild/obj/bg_castle_town_tilemap_attr.rel
                                          [ bg_castle_town_tilemap_attr ]
C:/Users/f_bes/AppData/Local/Temp/_gbsbuild/obj/bg_castle_town_tilemap.rel
                                          [ bg_castle_town_tilemap ]
C:/Users/f_bes/AppData/Local/Temp/_gbsbuild/obj/bg_castle_town_tileset.rel
                                          [ bg_castle_town_tileset ]
C:/Users/f_bes/AppData/Local/Temp/_gbsbuild/obj/bg_castle_town.rel
                                          [ bg_castle_town ]
C:/Users/f_bes/AppData/Local/Temp/_gbsbuild/obj/bg_chamberkriso2_tilemap_attr.rel
                                          [ bg_chamberkriso2_tilemap_attr ]
C:/Users/f_bes/AppData/Local/Temp/_gbsbuild/obj/bg_chamberkriso2_tilemap.rel
                                          [ bg_chamberkriso2_tilemap ]
C:/Users/f_bes/AppData/Local/Temp/_gbsbuild/obj/bg_chamberkriso2_tileset.rel
                                          [ bg_chamberkriso2_tileset ]
C:/Users/f_bes/AppData/Local/Temp/_gbsbuild/obj/bg_chamberkriso2.rel
                                          [ bg_chamberkriso2 ]
C:/Users/f_bes/AppData/Local/Temp/_gbsbuild/obj/bg_city1_tilemap_attr.rel
                                          [ bg_city1_tilemap_attr ]
C:/Users/f_bes/AppData/Local/Temp/_gbsbuild/obj/bg_city1_tilemap.rel
                                          [ bg_city1_tilemap ]
C:/Users/f_bes/AppData/Local/Temp/_gbsbuild/obj/bg_city1_tileset.rel
                                          [ bg_city1_tileset ]
C:/Users/f_bes/AppData/Local/Temp/_gbsbuild/obj/bg_city1.rel
                                          [ bg_city1 ]
C:/Users/f_bes/AppData/Local/Temp/_gbsbuild/obj/bg_city2_tilemap_attr.rel
                                          [ bg_city2_tilemap_attr ]
C:/Users/f_bes/AppData/Local/Temp/_gbsbuild/obj/bg_city2_tilemap.rel
                                          [ bg_city2_tilemap ]
C:/Users/f_bes/AppData/Local/Temp/_gbsbuild/obj/bg_city2_tileset.rel
                                          [ bg_city2_tileset ]
C:/Users/f_bes/AppData/Local/Temp/_gbsbuild/obj/bg_city2.rel
                                          [ bg_city2 ]
C:/Users/f_bes/AppData/Local/Temp/_gbsbuild/obj/bg_dogchecksavedata_copie_0_tilemap_attr.rel
                                          [ bg_dogchecksavedata_copie_0_tile ]
C:/Users/f_bes/AppData/Local/Temp/_gbsbuild/obj/bg_dogchecksavedata_copie_0_tilemap.rel
                                          [ bg_dogchecksavedata_copie_0_tile ]
C:/Users/f_bes/AppData/Local/Temp/_gbsbuild/obj/bg_dogchecksavedata_copie_0_tileset.rel
                                          [ bg_dogchecksavedata_copie_0_tile ]
C:/Users/f_bes/AppData/Local/Temp/_gbsbuild/obj/bg_dogchecksavedata_copie_0.rel
                                          [ bg_dogchecksavedata_copie_0 ]
C:/Users/f_bes/AppData/Local/Temp/_gbsbuild/obj/bg_dogchecksavedata_copie_tilemap_attr.rel
                                          [ bg_dogchecksavedata_copie_tilema ]
C:/Users/f_bes/AppData/Local/Temp/_gbsbuild/obj/bg_dogchecksavedata_copie_tilemap.rel
                                          [ bg_dogchecksavedata_copie_tilema ]
C:/Users/f_bes/AppData/Local/Temp/_gbsbuild/obj/bg_dogchecksavedata_copie_tileset.rel
                                          [ bg_dogchecksavedata_copie_tilese ]
C:/Users/f_bes/AppData/Local/Temp/_gbsbuild/obj/bg_dogchecksavedata_copie.rel
                                          [ bg_dogchecksavedata_copie ]
C:/Users/f_bes/AppData/Local/Temp/_gbsbuild/obj/bg_dogchecksavedata_tilemap_attr.rel
                                          [ bg_dogchecksavedata_tilemap_attr ]
C:/Users/f_bes/AppData/Local/Temp/_gbsbuild/obj/bg_dogchecksavedata_tilemap.rel
                                          [ bg_dogchecksavedata_tilemap ]
C:/Users/f_bes/AppData/Local/Temp/_gbsbuild/obj/bg_dogchecksavedata_tileset.rel
                                          [ bg_dogchecksavedata_tileset ]
C:/Users/f_bes/AppData/Local/Temp/_gbsbuild/obj/bg_dogchecksavedata.rel
                                          [ bg_dogchecksavedata ]
C:/Users/f_bes/AppData/Local/Temp/_gbsbuild/obj/bg_exterior_tilemap_attr.rel
                                          [ bg_exterior_tilemap_attr ]
C:/Users/f_bes/AppData/Local/Temp/_gbsbuild/obj/bg_exterior_tilemap.rel
                                          [ bg_exterior_tilemap ]
C:/Users/f_bes/AppData/Local/Temp/_gbsbuild/obj/bg_exterior_tileset.rel
                                          [ bg_exterior_tileset ]
C:/Users/f_bes/AppData/Local/Temp/_gbsbuild/obj/bg_exterior.rel
                                          [ bg_exterior ]
C:/Users/f_bes/AppData/Local/Temp/_gbsbuild/obj/bg_fountaincastle_tilemap_attr.rel
                                          [ bg_fountaincastle_tilemap_attr ]
C:/Users/f_bes/AppData/Local/Temp/_gbsbuild/obj/bg_fountaincastle_tilemap.rel
                                          [ bg_fountaincastle_tilemap ]
C:/Users/f_bes/AppData/Local/Temp/_gbsbuild/obj/bg_fountaincastle_tileset.rel
                                          [ bg_fountaincastle_tileset ]
C:/Users/f_bes/AppData/Local/Temp/_gbsbuild/obj/bg_fountaincastle.rel
                                          [ bg_fountaincastle ]
C:/Users/f_bes/AppData/Local/Temp/_gbsbuild/obj/bg_gameover_tilemap_attr.rel
                                          [ bg_gameover_tilemap_attr ]
C:/Users/f_bes/AppData/Local/Temp/_gbsbuild/obj/bg_gameover_tilemap.rel
                                          [ bg_gameover_tilemap ]
C:/Users/f_bes/AppData/Local/Temp/_gbsbuild/obj/bg_gameover_tileset.rel
                                          [ bg_gameover_tileset ]
C:/Users/f_bes/AppData/Local/Temp/_gbsbuild/obj/bg_gameover.rel
                                          [ bg_gameover ]
C:/Users/f_bes/AppData/Local/Temp/_gbsbuild/obj/bg_kris_s_tilemap_attr.rel
                                          [ bg_kris_s_tilemap_attr ]
C:/Users/f_bes/AppData/Local/Temp/_gbsbuild/obj/bg_kris_s_tilemap.rel
                                          [ bg_kris_s_tilemap ]
C:/Users/f_bes/AppData/Local/Temp/_gbsbuild/obj/bg_kris_s_tileset.rel
                                          [ bg_kris_s_tileset ]
C:/Users/f_bes/AppData/Local/Temp/_gbsbuild/obj/bg_kris_s.rel
                                          [ bg_kris_s ]
C:/Users/f_bes/AppData/Local/Temp/_gbsbuild/obj/bg_kris_ss_tilemap_attr.rel
                                          [ bg_kris_ss_tilemap_attr ]
C:/Users/f_bes/AppData/Local/Temp/_gbsbuild/obj/bg_kris_ss_tilemap.rel
                                          [ bg_kris_ss_tilemap ]
C:/Users/f_bes/AppData/Local/Temp/_gbsbuild/obj/bg_kris_ss_tileset.rel
                                          [ bg_kris_ss_tileset ]
C:/Users/f_bes/AppData/Local/Temp/_gbsbuild/obj/bg_kris_ss.rel
                                          [ bg_kris_ss ]
C:/Users/f_bes/AppData/Local/Temp/_gbsbuild/obj/bg_krislegend_tilemap_attr.rel
                                          [ bg_krislegend_tilemap_attr ]
C:/Users/f_bes/AppData/Local/Temp/_gbsbuild/obj/bg_krislegend_tilemap.rel
                                          [ bg_krislegend_tilemap ]
C:/Users/f_bes/AppData/Local/Temp/_gbsbuild/obj/bg_krislegend_tileset.rel
                                          [ bg_krislegend_tileset ]
C:/Users/f_bes/AppData/Local/Temp/_gbsbuild/obj/bg_krislegend.rel
                                          [ bg_krislegend ]
C:/Users/f_bes/AppData/Local/Temp/_gbsbuild/obj/bg_legend1d_tilemap_attr.rel
                                          [ bg_legend1d_tilemap_attr ]
C:/Users/f_bes/AppData/Local/Temp/_gbsbuild/obj/bg_legend1d_tilemap.rel
                                          [ bg_legend1d_tilemap ]
C:/Users/f_bes/AppData/Local/Temp/_gbsbuild/obj/bg_legend1d_tileset.rel
                                          [ bg_legend1d_tileset ]
C:/Users/f_bes/AppData/Local/Temp/_gbsbuild/obj/bg_legend1d.rel
                                          [ bg_legend1d ]
C:/Users/f_bes/AppData/Local/Temp/_gbsbuild/obj/bg_legend2_tilemap_attr.rel
                                          [ bg_legend2_tilemap_attr ]
C:/Users/f_bes/AppData/Local/Temp/_gbsbuild/obj/bg_legend2_tilemap.rel
                                          [ bg_legend2_tilemap ]
C:/Users/f_bes/AppData/Local/Temp/_gbsbuild/obj/bg_legend2_tileset.rel
                                          [ bg_legend2_tileset ]
C:/Users/f_bes/AppData/Local/Temp/_gbsbuild/obj/bg_legend2.rel
                                          [ bg_legend2 ]
C:/Users/f_bes/AppData/Local/Temp/_gbsbuild/obj/bg_legend3_tilemap_attr.rel
                                          [ bg_legend3_tilemap_attr ]
C:/Users/f_bes/AppData/Local/Temp/_gbsbuild/obj/bg_legend3_tilemap.rel
                                          [ bg_legend3_tilemap ]
C:/Users/f_bes/AppData/Local/Temp/_gbsbuild/obj/bg_legend3_tileset.rel
                                          [ bg_legend3_tileset ]
C:/Users/f_bes/AppData/Local/Temp/_gbsbuild/obj/bg_legend3.rel
                                          [ bg_legend3 ]
C:/Users/f_bes/AppData/Local/Temp/_gbsbuild/obj/bg_legend4_tilemap_attr.rel
                                          [ bg_legend4_tilemap_attr ]
C:/Users/f_bes/AppData/Local/Temp/_gbsbuild/obj/bg_legend4_tilemap.rel
                                          [ bg_legend4_tilemap ]
C:/Users/f_bes/AppData/Local/Temp/_gbsbuild/obj/bg_legend4_tileset.rel
                                          [ bg_legend4_tileset ]
C:/Users/f_bes/AppData/Local/Temp/_gbsbuild/obj/bg_legend4.rel
                                          [ bg_legend4 ]
C:/Users/f_bes/AppData/Local/Temp/_gbsbuild/obj/bg_legend5d_tilemap_attr.rel
                                          [ bg_legend5d_tilemap_attr ]
C:/Users/f_bes/AppData/Local/Temp/_gbsbuild/obj/bg_legend5d_tilemap.rel
                                          [ bg_legend5d_tilemap ]
C:/Users/f_bes/AppData/Local/Temp/_gbsbuild/obj/bg_legend5d_tileset.rel
                                          [ bg_legend5d_tileset ]
C:/Users/f_bes/AppData/Local/Temp/_gbsbuild/obj/bg_legend5d.rel
                                          [ bg_legend5d ]
C:/Users/f_bes/AppData/Local/Temp/_gbsbuild/obj/bg_legend6d_tilemap_attr.rel
                                          [ bg_legend6d_tilemap_attr ]
C:/Users/f_bes/AppData/Local/Temp/_gbsbuild/obj/bg_legend6d_tilemap.rel
                                          [ bg_legend6d_tilemap ]
C:/Users/f_bes/AppData/Local/Temp/_gbsbuild/obj/bg_legend6d_tileset.rel
                                          [ bg_legend6d_tileset ]
C:/Users/f_bes/AppData/Local/Temp/_gbsbuild/obj/bg_legend6d.rel
                                          [ bg_legend6d ]
C:/Users/f_bes/AppData/Local/Temp/_gbsbuild/obj/bg_legend7f_tilemap_attr.rel
                                          [ bg_legend7f_tilemap_attr ]
C:/Users/f_bes/AppData/Local/Temp/_gbsbuild/obj/bg_legend7f_tilemap.rel
                                          [ bg_legend7f_tilemap ]
C:/Users/f_bes/AppData/Local/Temp/_gbsbuild/obj/bg_legend7f_tileset.rel
                                          [ bg_legend7f_tileset ]
C:/Users/f_bes/AppData/Local/Temp/_gbsbuild/obj/bg_legend7f.rel
                                          [ bg_legend7f ]
C:/Users/f_bes/AppData/Local/Temp/_gbsbuild/obj/bg_legendsealfountain_tilemap_attr.rel
                                          [ bg_legendsealfountain_tilemap_at ]
C:/Users/f_bes/AppData/Local/Temp/_gbsbuild/obj/bg_legendsealfountain_tilemap.rel
                                          [ bg_legendsealfountain_tilemap ]
C:/Users/f_bes/AppData/Local/Temp/_gbsbuild/obj/bg_legendsealfountain_tileset.rel
                                          [ bg_legendsealfountain_tileset ]
C:/Users/f_bes/AppData/Local/Temp/_gbsbuild/obj/bg_legendsealfountain.rel
                                          [ bg_legendsealfountain ]
C:/Users/f_bes/AppData/Local/Temp/_gbsbuild/obj/bg_name_input_background_tilemap_attr.rel
                                          [ bg_name_input_background_tilemap ]
C:/Users/f_bes/AppData/Local/Temp/_gbsbuild/obj/bg_name_input_background_tilemap.rel
                                          [ bg_name_input_background_tilemap ]
C:/Users/f_bes/AppData/Local/Temp/_gbsbuild/obj/bg_name_input_background_tileset.rel
                                          [ bg_name_input_background_tileset ]
C:/Users/f_bes/AppData/Local/Temp/_gbsbuild/obj/bg_name_input_background.rel
                                          [ bg_name_input_background ]
C:/Users/f_bes/AppData/Local/Temp/_gbsbuild/obj/bg_new_piskel_43__tilemap_attr.rel
                                          [ bg_new_piskel_43__tilemap_attr ]
C:/Users/f_bes/AppData/Local/Temp/_gbsbuild/obj/bg_new_piskel_43__tilemap.rel
                                          [ bg_new_piskel_43__tilemap ]
C:/Users/f_bes/AppData/Local/Temp/_gbsbuild/obj/bg_new_piskel_43__tileset.rel
                                          [ bg_new_piskel_43__tileset ]
C:/Users/f_bes/AppData/Local/Temp/_gbsbuild/obj/bg_new_piskel_43_.rel
                                          [ bg_new_piskel_43_ ]
C:/Users/f_bes/AppData/Local/Temp/_gbsbuild/obj/bg_quelesttonnom_copie_tilemap_attr.rel
                                          [ bg_quelesttonnom_copie_tilemap_a ]
C:/Users/f_bes/AppData/Local/Temp/_gbsbuild/obj/bg_quelesttonnom_copie_tilemap.rel
                                          [ bg_quelesttonnom_copie_tilemap ]
C:/Users/f_bes/AppData/Local/Temp/_gbsbuild/obj/bg_quelesttonnom_copie_tileset.rel
                                          [ bg_quelesttonnom_copie_tileset ]
C:/Users/f_bes/AppData/Local/Temp/_gbsbuild/obj/bg_quelesttonnom_copie.rel
                                          [ bg_quelesttonnom_copie ]
C:/Users/f_bes/AppData/Local/Temp/_gbsbuild/obj/bg_quelesttonnom_tilemap_attr.rel
                                          [ bg_quelesttonnom_tilemap_attr ]
C:/Users/f_bes/AppData/Local/Temp/_gbsbuild/obj/bg_quelesttonnom_tilemap.rel
                                          [ bg_quelesttonnom_tilemap ]
C:/Users/f_bes/AppData/Local/Temp/_gbsbuild/obj/bg_quelesttonnom_tileset.rel
                                          [ bg_quelesttonnom_tileset ]
C:/Users/f_bes/AppData/Local/Temp/_gbsbuild/obj/bg_quelesttonnom.rel
                                          [ bg_quelesttonnom ]
C:/Users/f_bes/AppData/Local/Temp/_gbsbuild/obj/bg_ralseilegend_tilemap_attr.rel
                                          [ bg_ralseilegend_tilemap_attr ]
C:/Users/f_bes/AppData/Local/Temp/_gbsbuild/obj/bg_ralseilegend_tilemap.rel
                                          [ bg_ralseilegend_tilemap ]
C:/Users/f_bes/AppData/Local/Temp/_gbsbuild/obj/bg_ralseilegend_tileset.rel
                                          [ bg_ralseilegend_tileset ]
C:/Users/f_bes/AppData/Local/Temp/_gbsbuild/obj/bg_ralseilegend.rel
                                          [ bg_ralseilegend ]
C:/Users/f_bes/AppData/Local/Temp/_gbsbuild/obj/bg_room_tilemap_attr.rel
                                          [ bg_room_tilemap_attr ]
C:/Users/f_bes/AppData/Local/Temp/_gbsbuild/obj/bg_room_tilemap.rel
                                          [ bg_room_tilemap ]
C:/Users/f_bes/AppData/Local/Temp/_gbsbuild/obj/bg_room_tileset.rel
                                          [ bg_room_tileset ]
C:/Users/f_bes/AppData/Local/Temp/_gbsbuild/obj/bg_room.rel
                                          [ bg_room ]
C:/Users/f_bes/AppData/Local/Temp/_gbsbuild/obj/bg_schoolcorridor1_tilemap_attr.rel
                                          [ bg_schoolcorridor1_tilemap_attr ]
C:/Users/f_bes/AppData/Local/Temp/_gbsbuild/obj/bg_schoolcorridor1_tilemap.rel
                                          [ bg_schoolcorridor1_tilemap ]
C:/Users/f_bes/AppData/Local/Temp/_gbsbuild/obj/bg_schoolcorridor1_tileset.rel
                                          [ bg_schoolcorridor1_tileset ]
C:/Users/f_bes/AppData/Local/Temp/_gbsbuild/obj/bg_schoolcorridor1.rel
                                          [ bg_schoolcorridor1 ]
C:/Users/f_bes/AppData/Local/Temp/_gbsbuild/obj/bg_schoolext_tilemap_attr.rel
                                          [ bg_schoolext_tilemap_attr ]
C:/Users/f_bes/AppData/Local/Temp/_gbsbuild/obj/bg_schoolext_tilemap.rel
                                          [ bg_schoolext_tilemap ]
C:/Users/f_bes/AppData/Local/Temp/_gbsbuild/obj/bg_schoolext_tileset.rel
                                          [ bg_schoolext_tileset ]
C:/Users/f_bes/AppData/Local/Temp/_gbsbuild/obj/bg_schoolext.rel
                                          [ bg_schoolext ]
C:/Users/f_bes/AppData/Local/Temp/_gbsbuild/obj/bg_schoolint_tilemap_attr.rel
                                          [ bg_schoolint_tilemap_attr ]
C:/Users/f_bes/AppData/Local/Temp/_gbsbuild/obj/bg_schoolint_tilemap.rel
                                          [ bg_schoolint_tilemap ]
C:/Users/f_bes/AppData/Local/Temp/_gbsbuild/obj/bg_schoolint_tileset.rel
                                          [ bg_schoolint_tileset ]
C:/Users/f_bes/AppData/Local/Temp/_gbsbuild/obj/bg_schoolint.rel
                                          [ bg_schoolint ]
C:/Users/f_bes/AppData/Local/Temp/_gbsbuild/obj/bg_secoundfountain_tilemap_attr.rel
                                          [ bg_secoundfountain_tilemap_attr ]
C:/Users/f_bes/AppData/Local/Temp/_gbsbuild/obj/bg_secoundfountain_tilemap.rel
                                          [ bg_secoundfountain_tilemap ]
C:/Users/f_bes/AppData/Local/Temp/_gbsbuild/obj/bg_secoundfountain_tileset.rel
                                          [ bg_secoundfountain_tileset ]
C:/Users/f_bes/AppData/Local/Temp/_gbsbuild/obj/bg_secoundfountain.rel
                                          [ bg_secoundfountain ]
C:/Users/f_bes/AppData/Local/Temp/_gbsbuild/obj/bg_susielegend_tilemap_attr.rel
                                          [ bg_susielegend_tilemap_attr ]
C:/Users/f_bes/AppData/Local/Temp/_gbsbuild/obj/bg_susielegend_tilemap.rel
                                          [ bg_susielegend_tilemap ]
C:/Users/f_bes/AppData/Local/Temp/_gbsbuild/obj/bg_susielegend_tileset.rel
                                          [ bg_susielegend_tileset ]
C:/Users/f_bes/AppData/Local/Temp/_gbsbuild/obj/bg_susielegend.rel
                                          [ bg_susielegend ]
C:/Users/f_bes/AppData/Local/Temp/_gbsbuild/obj/bg_the_castle_copie_tilemap_attr.rel
                                          [ bg_the_castle_copie_tilemap_attr ]
C:/Users/f_bes/AppData/Local/Temp/_gbsbuild/obj/bg_the_castle_copie_tilemap.rel
                                          [ bg_the_castle_copie_tilemap ]
C:/Users/f_bes/AppData/Local/Temp/_gbsbuild/obj/bg_the_castle_copie_tileset.rel
                                          [ bg_the_castle_copie_tileset ]
C:/Users/f_bes/AppData/Local/Temp/_gbsbuild/obj/bg_the_castle_copie.rel
                                          [ bg_the_castle_copie ]
C:/Users/f_bes/AppData/Local/Temp/_gbsbuild/obj/bg_thetle_tilemap_attr.rel
                                          [ bg_thetle_tilemap_attr ]
C:/Users/f_bes/AppData/Local/Temp/_gbsbuild/obj/bg_thetle_tilemap.rel
                                          [ bg_thetle_tilemap ]
C:/Users/f_bes/AppData/Local/Temp/_gbsbuild/obj/bg_thetle_tileset.rel
                                          [ bg_thetle_tileset ]
C:/Users/f_bes/AppData/Local/Temp/_gbsbuild/obj/bg_thetle.rel
                                          [ bg_thetle ]
C:/Users/f_bes/AppData/Local/Temp/_gbsbuild/obj/bg_title_tilemap_attr.rel
                                          [ bg_title_tilemap_attr ]
C:/Users/f_bes/AppData/Local/Temp/_gbsbuild/obj/bg_title_tilemap.rel
                                          [ bg_title_tilemap ]
C:/Users/f_bes/AppData/Local/Temp/_gbsbuild/obj/bg_title_tileset.rel
                                          [ bg_title_tileset ]
C:/Users/f_bes/AppData/Local/Temp/_gbsbuild/obj/bg_title.rel
                                          [ bg_title ]
C:/Users/f_bes/AppData/Local/Temp/_gbsbuild/obj/bg_toilet_tilemap_attr.rel
                                          [ bg_toilet_tilemap_attr ]
C:/Users/f_bes/AppData/Local/Temp/_gbsbuild/obj/bg_toilet_tilemap.rel
                                          [ bg_toilet_tilemap ]
C:/Users/f_bes/AppData/Local/Temp/_gbsbuild/obj/bg_toilet_tileset.rel
                                          [ bg_toilet_tileset ]
C:/Users/f_bes/AppData/Local/Temp/_gbsbuild/obj/bg_toilet.rel
                                          [ bg_toilet ]
C:/Users/f_bes/AppData/Local/Temp/_gbsbuild/obj/bg_toilet2_tilemap_attr.rel
                                          [ bg_toilet2_tilemap_attr ]
C:/Users/f_bes/AppData/Local/Temp/_gbsbuild/obj/bg_toilet2_tilemap.rel
                                          [ bg_toilet2_tilemap ]
C:/Users/f_bes/AppData/Local/Temp/_gbsbuild/obj/bg_toilet2_tileset.rel
                                          [ bg_toilet2_tileset ]
C:/Users/f_bes/AppData/Local/Temp/_gbsbuild/obj/bg_toilet2.rel
                                          [ bg_toilet2 ]
C:/Users/f_bes/AppData/Local/Temp/_gbsbuild/obj/bg_untitled_tilemap_attr.rel
                                          [ bg_untitled_tilemap_attr ]
C:/Users/f_bes/AppData/Local/Temp/_gbsbuild/obj/bg_untitled_tilemap.rel
                                          [ bg_untitled_tilemap ]
C:/Users/f_bes/AppData/Local/Temp/_gbsbuild/obj/bg_untitled_tileset.rel
                                          [ bg_untitled_tileset ]
C:/Users/f_bes/AppData/Local/Temp/_gbsbuild/obj/bg_untitled.rel
                                          [ bg_untitled ]
C:/Users/f_bes/AppData/Local/Temp/_gbsbuild/obj/bg_worldddd_tilemap_attr.rel
                                          [ bg_worldddd_tilemap_attr ]
C:/Users/f_bes/AppData/Local/Temp/_gbsbuild/obj/bg_worldddd_tilemap.rel
                                          [ bg_worldddd_tilemap ]
C:/Users/f_bes/AppData/Local/Temp/_gbsbuild/obj/bg_worldddd_tileset.rel
                                          [ bg_worldddd_tileset ]
C:/Users/f_bes/AppData/Local/Temp/_gbsbuild/obj/bg_worldddd.rel
                                          [ bg_worldddd ]
C:/Users/f_bes/AppData/Local/Temp/_gbsbuild/obj/bg_worldddddark_tilemap_attr.rel
                                          [ bg_worldddddark_tilemap_attr ]
C:/Users/f_bes/AppData/Local/Temp/_gbsbuild/obj/bg_worldddddark_tilemap.rel
                                          [ bg_worldddddark_tilemap ]
C:/Users/f_bes/AppData/Local/Temp/_gbsbuild/obj/bg_worldddddark_tileset.rel
                                          [ bg_worldddddark_tileset ]
C:/Users/f_bes/AppData/Local/Temp/_gbsbuild/obj/bg_worldddddark.rel
                                          [ bg_worldddddark ]
C:/Users/f_bes/AppData/Local/Temp/_gbsbuild/obj/cursor_image.rel
                                          [ cursor_image ]
C:/Users/f_bes/AppData/Local/Temp/_gbsbuild/obj/emote_shock.rel
                                          [ emote_shock ]
C:/Users/f_bes/AppData/Local/Temp/_gbsbuild/obj/font_gbs_mono_0.rel
                                          [ font_gbs_mono_0 ]
C:/Users/f_bes/AppData/Local/Temp/_gbsbuild/obj/font_gbs_mono_copie_0.rel
                                          [ font_gbs_mono_copie_0 ]
C:/Users/f_bes/AppData/Local/Temp/_gbsbuild/obj/font_gbs_mono_copie.rel
                                          [ font_gbs_mono_copie ]
C:/Users/f_bes/AppData/Local/Temp/_gbsbuild/obj/font_gbs_mono.rel
                                          [ font_gbs_mono ]
C:/Users/f_bes/AppData/Local/Temp/_gbsbuild/obj/font_gbs_portrait_copie.rel
                                          [ font_gbs_portrait_copie ]
C:/Users/f_bes/AppData/Local/Temp/_gbsbuild/obj/font_gbs_portrait.rel
                                          [ font_gbs_portrait ]
C:/Users/f_bes/AppData/Local/Temp/_gbsbuild/obj/frame_image.rel
                                          [ frame_image ]
C:/Users/f_bes/AppData/Local/Temp/_gbsbuild/obj/game_signature.rel
                                          [ game_signature ]
C:/Users/f_bes/AppData/Local/Temp/_gbsbuild/obj/song_anothergameover_Data.rel
                                          [ song_anothergameover_Data ]
C:/Users/f_bes/AppData/Local/Temp/_gbsbuild/obj/song_anotherhim_Data.rel
                                          [ song_anotherhim_Data ]
C:/Users/f_bes/AppData/Local/Temp/_gbsbuild/obj/song_beginning_Data.rel
                                          [ song_beginning_Data ]
C:/Users/f_bes/AppData/Local/Temp/_gbsbuild/obj/song_emptytown_Data.rel
                                          [ song_emptytown_Data ]
C:/Users/f_bes/AppData/Local/Temp/_gbsbuild/obj/song_fallinggg_Data.rel
                                          [ song_fallinggg_Data ]
C:/Users/f_bes/AppData/Local/Temp/_gbsbuild/obj/song_lancervsvr_Data.rel
                                          [ song_lancervsvr_Data ]
C:/Users/f_bes/AppData/Local/Temp/_gbsbuild/obj/song_savetransfer_Data.rel
                                          [ song_savetransfer_Data ]
C:/Users/f_bes/AppData/Local/Temp/_gbsbuild/obj/song_school_Data.rel
                                          [ song_school_Data ]
C:/Users/f_bes/AppData/Local/Temp/_gbsbuild/obj/song_song_template_0_Data.rel
                                          [ song_song_template_0_Data ]
C:/Users/f_bes/AppData/Local/Temp/_gbsbuild/obj/song_song_template_Data.rel
                                          [ song_song_template_Data ]
C:/Users/f_bes/AppData/Local/Temp/_gbsbuild/obj/song_song_templateffrzref_Data.rel
                                          [ song_song_templateffrzref_Data ]
C:/Users/f_bes/AppData/Local/Temp/_gbsbuild/obj/song_susie_Data.rel
                                          [ song_susie_Data ]
C:/Users/f_bes/AppData/Local/Temp/_gbsbuild/obj/song_the_real_door_Data.rel
                                          [ song_the_real_door_Data ]
C:/Users/f_bes/AppData/Local/Temp/_gbsbuild/obj/palette_0.rel
                                          [ palette_0 ]
C:/Users/f_bes/AppData/Local/Temp/_gbsbuild/obj/palette_1.rel
                                          [ palette_1 ]
C:/Users/f_bes/AppData/Local/Temp/_gbsbuild/obj/palette_10.rel
                                          [ palette_10 ]
C:/Users/f_bes/AppData/Local/Temp/_gbsbuild/obj/palette_11.rel
                                          [ palette_11 ]
C:/Users/f_bes/AppData/Local/Temp/_gbsbuild/obj/palette_12.rel
                                          [ palette_12 ]
C:/Users/f_bes/AppData/Local/Temp/_gbsbuild/obj/palette_13.rel
                                          [ palette_13 ]
C:/Users/f_bes/AppData/Local/Temp/_gbsbuild/obj/palette_14.rel
                                          [ palette_14 ]
C:/Users/f_bes/AppData/Local/Temp/_gbsbuild/obj/palette_15.rel
                                          [ palette_15 ]
C:/Users/f_bes/AppData/Local/Temp/_gbsbuild/obj/palette_16.rel
                                          [ palette_16 ]
C:/Users/f_bes/AppData/Local/Temp/_gbsbuild/obj/palette_17.rel
                                          [ palette_17 ]
C:/Users/f_bes/AppData/Local/Temp/_gbsbuild/obj/palette_18.rel
                                          [ palette_18 ]
C:/Users/f_bes/AppData/Local/Temp/_gbsbuild/obj/palette_19.rel
                                          [ palette_19 ]
C:/Users/f_bes/AppData/Local/Temp/_gbsbuild/obj/palette_2.rel
                                          [ palette_2 ]
C:/Users/f_bes/AppData/Local/Temp/_gbsbuild/obj/palette_20.rel
                                          [ palette_20 ]
C:/Users/f_bes/AppData/Local/Temp/_gbsbuild/obj/palette_21.rel
                                          [ palette_21 ]
C:/Users/f_bes/AppData/Local/Temp/_gbsbuild/obj/palette_22.rel
                                          [ palette_22 ]
C:/Users/f_bes/AppData/Local/Temp/_gbsbuild/obj/palette_23.rel
                                          [ palette_23 ]
C:/Users/f_bes/AppData/Local/Temp/_gbsbuild/obj/palette_24.rel
                                          [ palette_24 ]
C:/Users/f_bes/AppData/Local/Temp/_gbsbuild/obj/palette_25.rel
                                          [ palette_25 ]
C:/Users/f_bes/AppData/Local/Temp/_gbsbuild/obj/palette_26.rel
                                          [ palette_26 ]
C:/Users/f_bes/AppData/Local/Temp/_gbsbuild/obj/palette_27.rel
                                          [ palette_27 ]
C:/Users/f_bes/AppData/Local/Temp/_gbsbuild/obj/palette_28.rel
                                          [ palette_28 ]
C:/Users/f_bes/AppData/Local/Temp/_gbsbuild/obj/palette_29.rel
                                          [ palette_29 ]
C:/Users/f_bes/AppData/Local/Temp/_gbsbuild/obj/palette_3.rel
                                          [ palette_3 ]
C:/Users/f_bes/AppData/Local/Temp/_gbsbuild/obj/palette_30.rel
                                          [ palette_30 ]
C:/Users/f_bes/AppData/Local/Temp/_gbsbuild/obj/palette_31.rel
                                          [ palette_31 ]
C:/Users/f_bes/AppData/Local/Temp/_gbsbuild/obj/palette_32.rel
                                          [ palette_32 ]
C:/Users/f_bes/AppData/Local/Temp/_gbsbuild/obj/palette_33.rel
                                          [ palette_33 ]
C:/Users/f_bes/AppData/Local/Temp/_gbsbuild/obj/palette_34.rel
                                          [ palette_34 ]
C:/Users/f_bes/AppData/Local/Temp/_gbsbuild/obj/palette_35.rel
                                          [ palette_35 ]
C:/Users/f_bes/AppData/Local/Temp/_gbsbuild/obj/palette_36.rel
                                          [ palette_36 ]
C:/Users/f_bes/AppData/Local/Temp/_gbsbuild/obj/palette_37.rel
                                          [ palette_37 ]
C:/Users/f_bes/AppData/Local/Temp/_gbsbuild/obj/palette_38.rel
                                          [ palette_38 ]
C:/Users/f_bes/AppData/Local/Temp/_gbsbuild/obj/palette_39.rel
                                          [ palette_39 ]
C:/Users/f_bes/AppData/Local/Temp/_gbsbuild/obj/palette_4.rel
                                          [ palette_4 ]
C:/Users/f_bes/AppData/Local/Temp/_gbsbuild/obj/palette_40.rel
                                          [ palette_40 ]
C:/Users/f_bes/AppData/Local/Temp/_gbsbuild/obj/palette_41.rel
                                          [ palette_41 ]
C:/Users/f_bes/AppData/Local/Temp/_gbsbuild/obj/palette_42.rel
                                          [ palette_42 ]
C:/Users/f_bes/AppData/Local/Temp/_gbsbuild/obj/palette_43.rel
                                          [ palette_43 ]
C:/Users/f_bes/AppData/Local/Temp/_gbsbuild/obj/palette_44.rel
                                          [ palette_44 ]
C:/Users/f_bes/AppData/Local/Temp/_gbsbuild/obj/palette_45.rel
                                          [ palette_45 ]
C:/Users/f_bes/AppData/Local/Temp/_gbsbuild/obj/palette_46.rel
                                          [ palette_46 ]
C:/Users/f_bes/AppData/Local/Temp/_gbsbuild/obj/palette_47.rel
                                          [ palette_47 ]
C:/Users/f_bes/AppData/Local/Temp/_gbsbuild/obj/palette_48.rel
                                          [ palette_48 ]
C:/Users/f_bes/AppData/Local/Temp/_gbsbuild/obj/palette_49.rel
                                          [ palette_49 ]
C:/Users/f_bes/AppData/Local/Temp/_gbsbuild/obj/palette_5.rel
                                          [ palette_5 ]
C:/Users/f_bes/AppData/Local/Temp/_gbsbuild/obj/palette_50.rel
                                          [ palette_50 ]
C:/Users/f_bes/AppData/Local/Temp/_gbsbuild/obj/palette_51.rel
                                          [ palette_51 ]
C:/Users/f_bes/AppData/Local/Temp/_gbsbuild/obj/palette_52.rel
                                          [ palette_52 ]
C:/Users/f_bes/AppData/Local/Temp/_gbsbuild/obj/palette_53.rel
                                          [ palette_53 ]
C:/Users/f_bes/AppData/Local/Temp/_gbsbuild/obj/palette_54.rel
                                          [ palette_54 ]
C:/Users/f_bes/AppData/Local/Temp/_gbsbuild/obj/palette_55.rel
                                          [ palette_55 ]
C:/Users/f_bes/AppData/Local/Temp/_gbsbuild/obj/palette_56.rel
                                          [ palette_56 ]
C:/Users/f_bes/AppData/Local/Temp/_gbsbuild/obj/palette_57.rel
                                          [ palette_57 ]
C:/Users/f_bes/AppData/Local/Temp/_gbsbuild/obj/palette_58.rel
                                          [ palette_58 ]
C:/Users/f_bes/AppData/Local/Temp/_gbsbuild/obj/palette_59.rel
                                          [ palette_59 ]
C:/Users/f_bes/AppData/Local/Temp/_gbsbuild/obj/palette_6.rel
                                          [ palette_6 ]
C:/Users/f_bes/AppData/Local/Temp/_gbsbuild/obj/palette_60.rel
                                          [ palette_60 ]
C:/Users/f_bes/AppData/Local/Temp/_gbsbuild/obj/palette_61.rel
                                          [ palette_61 ]
C:/Users/f_bes/AppData/Local/Temp/_gbsbuild/obj/palette_62.rel
                                          [ palette_62 ]
C:/Users/f_bes/AppData/Local/Temp/_gbsbuild/obj/palette_63.rel
                                          [ palette_63 ]
C:/Users/f_bes/AppData/Local/Temp/_gbsbuild/obj/palette_7.rel
                                          [ palette_7 ]
C:/Users/f_bes/AppData/Local/Temp/_gbsbuild/obj/palette_8.rel
                                          [ palette_8 ]
C:/Users/f_bes/AppData/Local/Temp/_gbsbuild/obj/palette_9.rel
                                          [ palette_9 ]
C:/Users/f_bes/AppData/Local/Temp/_gbsbuild/obj/scene_0_collisions.rel
                                          [ scene_0_collisions ]
C:/Users/f_bes/AppData/Local/Temp/_gbsbuild/obj/scene_0_init.rel
                                          [ scene_0_init ]
C:/Users/f_bes/AppData/Local/Temp/_gbsbuild/obj/scene_0.rel
                                          [ scene_0 ]
C:/Users/f_bes/AppData/Local/Temp/_gbsbuild/obj/scene_1_collisions.rel
                                          [ scene_1_collisions ]
C:/Users/f_bes/AppData/Local/Temp/_gbsbuild/obj/scene_1_init.rel
                                          [ scene_1_init ]
C:/Users/f_bes/AppData/Local/Temp/_gbsbuild/obj/scene_1.rel
                                          [ scene_1 ]
C:/Users/f_bes/AppData/Local/Temp/_gbsbuild/obj/scene_10_collisions.rel
                                          [ scene_10_collisions ]
C:/Users/f_bes/AppData/Local/Temp/_gbsbuild/obj/scene_10_init.rel
                                          [ scene_10_init ]
C:/Users/f_bes/AppData/Local/Temp/_gbsbuild/obj/scene_10.rel
                                          [ scene_10 ]
C:/Users/f_bes/AppData/Local/Temp/_gbsbuild/obj/scene_11_collisions.rel
                                          [ scene_11_collisions ]
C:/Users/f_bes/AppData/Local/Temp/_gbsbuild/obj/scene_11_init.rel
                                          [ scene_11_init ]
C:/Users/f_bes/AppData/Local/Temp/_gbsbuild/obj/scene_11.rel
                                          [ scene_11 ]
C:/Users/f_bes/AppData/Local/Temp/_gbsbuild/obj/scene_13_collisions.rel
                                          [ scene_13_collisions ]
C:/Users/f_bes/AppData/Local/Temp/_gbsbuild/obj/scene_13_init.rel
                                          [ scene_13_init ]
C:/Users/f_bes/AppData/Local/Temp/_gbsbuild/obj/scene_13.rel
                                          [ scene_13 ]
C:/Users/f_bes/AppData/Local/Temp/_gbsbuild/obj/scene_14_actors.rel
                                          [ scene_14_actors ]
C:/Users/f_bes/AppData/Local/Temp/_gbsbuild/obj/scene_14_collisions.rel
                                          [ scene_14_collisions ]
C:/Users/f_bes/AppData/Local/Temp/_gbsbuild/obj/scene_14_init.rel
                                          [ scene_14_init ]
C:/Users/f_bes/AppData/Local/Temp/_gbsbuild/obj/scene_14_sprites.rel
                                          [ scene_14_sprites ]
C:/Users/f_bes/AppData/Local/Temp/_gbsbuild/obj/scene_14_triggers.rel
                                          [ scene_14_triggers ]
C:/Users/f_bes/AppData/Local/Temp/_gbsbuild/obj/scene_14.rel
                                          [ scene_14 ]
C:/Users/f_bes/AppData/Local/Temp/_gbsbuild/obj/scene_15_collisions.rel
                                          [ scene_15_collisions ]
C:/Users/f_bes/AppData/Local/Temp/_gbsbuild/obj/scene_15_init.rel
                                          [ scene_15_init ]
C:/Users/f_bes/AppData/Local/Temp/_gbsbuild/obj/scene_15.rel
                                          [ scene_15 ]
C:/Users/f_bes/AppData/Local/Temp/_gbsbuild/obj/scene_16_collisions.rel
                                          [ scene_16_collisions ]
C:/Users/f_bes/AppData/Local/Temp/_gbsbuild/obj/scene_16_init.rel
                                          [ scene_16_init ]
C:/Users/f_bes/AppData/Local/Temp/_gbsbuild/obj/scene_16.rel
                                          [ scene_16 ]
C:/Users/f_bes/AppData/Local/Temp/_gbsbuild/obj/scene_17_collisions.rel
                                          [ scene_17_collisions ]
C:/Users/f_bes/AppData/Local/Temp/_gbsbuild/obj/scene_17_init.rel
                                          [ scene_17_init ]
C:/Users/f_bes/AppData/Local/Temp/_gbsbuild/obj/scene_17.rel
                                          [ scene_17 ]
C:/Users/f_bes/AppData/Local/Temp/_gbsbuild/obj/scene_18_collisions.rel
                                          [ scene_18_collisions ]
C:/Users/f_bes/AppData/Local/Temp/_gbsbuild/obj/scene_18_init.rel
                                          [ scene_18_init ]
C:/Users/f_bes/AppData/Local/Temp/_gbsbuild/obj/scene_18.rel
                                          [ scene_18 ]
C:/Users/f_bes/AppData/Local/Temp/_gbsbuild/obj/scene_19_collisions.rel
                                          [ scene_19_collisions ]
C:/Users/f_bes/AppData/Local/Temp/_gbsbuild/obj/scene_19_init.rel
                                          [ scene_19_init ]
C:/Users/f_bes/AppData/Local/Temp/_gbsbuild/obj/scene_19.rel
                                          [ scene_19 ]
C:/Users/f_bes/AppData/Local/Temp/_gbsbuild/obj/scene_2_actors.rel
                                          [ scene_2_actors ]
C:/Users/f_bes/AppData/Local/Temp/_gbsbuild/obj/scene_2_collisions.rel
                                          [ scene_2_collisions ]
C:/Users/f_bes/AppData/Local/Temp/_gbsbuild/obj/scene_2_init.rel
                                          [ scene_2_init ]
C:/Users/f_bes/AppData/Local/Temp/_gbsbuild/obj/scene_2_sprites.rel
                                          [ scene_2_sprites ]
C:/Users/f_bes/AppData/Local/Temp/_gbsbuild/obj/scene_2.rel
                                          [ scene_2 ]
C:/Users/f_bes/AppData/Local/Temp/_gbsbuild/obj/scene_20_collisions.rel
                                          [ scene_20_collisions ]
C:/Users/f_bes/AppData/Local/Temp/_gbsbuild/obj/scene_20_init.rel
                                          [ scene_20_init ]
C:/Users/f_bes/AppData/Local/Temp/_gbsbuild/obj/scene_20.rel
                                          [ scene_20 ]
C:/Users/f_bes/AppData/Local/Temp/_gbsbuild/obj/scene_21_actors.rel
                                          [ scene_21_actors ]
C:/Users/f_bes/AppData/Local/Temp/_gbsbuild/obj/scene_21_collisions.rel
                                          [ scene_21_collisions ]
C:/Users/f_bes/AppData/Local/Temp/_gbsbuild/obj/scene_21_init.rel
                                          [ scene_21_init ]
C:/Users/f_bes/AppData/Local/Temp/_gbsbuild/obj/scene_21_sprites.rel
                                          [ scene_21_sprites ]
C:/Users/f_bes/AppData/Local/Temp/_gbsbuild/obj/scene_21_triggers.rel
                                          [ scene_21_triggers ]
C:/Users/f_bes/AppData/Local/Temp/_gbsbuild/obj/scene_21.rel
                                          [ scene_21 ]
C:/Users/f_bes/AppData/Local/Temp/_gbsbuild/obj/scene_22_collisions.rel
                                          [ scene_22_collisions ]
C:/Users/f_bes/AppData/Local/Temp/_gbsbuild/obj/scene_22_init.rel
                                          [ scene_22_init ]
C:/Users/f_bes/AppData/Local/Temp/_gbsbuild/obj/scene_22.rel
                                          [ scene_22 ]
C:/Users/f_bes/AppData/Local/Temp/_gbsbuild/obj/scene_23_collisions.rel
                                          [ scene_23_collisions ]
C:/Users/f_bes/AppData/Local/Temp/_gbsbuild/obj/scene_23_init.rel
                                          [ scene_23_init ]
C:/Users/f_bes/AppData/Local/Temp/_gbsbuild/obj/scene_23.rel
                                          [ scene_23 ]
C:/Users/f_bes/AppData/Local/Temp/_gbsbuild/obj/scene_24_collisions.rel
                                          [ scene_24_collisions ]
C:/Users/f_bes/AppData/Local/Temp/_gbsbuild/obj/scene_24_init.rel
                                          [ scene_24_init ]
C:/Users/f_bes/AppData/Local/Temp/_gbsbuild/obj/scene_24.rel
                                          [ scene_24 ]
C:/Users/f_bes/AppData/Local/Temp/_gbsbuild/obj/scene_25_actors.rel
                                          [ scene_25_actors ]
C:/Users/f_bes/AppData/Local/Temp/_gbsbuild/obj/scene_25_collisions.rel
                                          [ scene_25_collisions ]
C:/Users/f_bes/AppData/Local/Temp/_gbsbuild/obj/scene_25_init.rel
                                          [ scene_25_init ]
C:/Users/f_bes/AppData/Local/Temp/_gbsbuild/obj/scene_25_sprites.rel
                                          [ scene_25_sprites ]
C:/Users/f_bes/AppData/Local/Temp/_gbsbuild/obj/scene_25_triggers.rel
                                          [ scene_25_triggers ]
C:/Users/f_bes/AppData/Local/Temp/_gbsbuild/obj/scene_25.rel
                                          [ scene_25 ]
C:/Users/f_bes/AppData/Local/Temp/_gbsbuild/obj/scene_26_collisions.rel
                                          [ scene_26_collisions ]
C:/Users/f_bes/AppData/Local/Temp/_gbsbuild/obj/scene_26_init.rel
                                          [ scene_26_init ]
C:/Users/f_bes/AppData/Local/Temp/_gbsbuild/obj/scene_26.rel
                                          [ scene_26 ]
C:/Users/f_bes/AppData/Local/Temp/_gbsbuild/obj/scene_27_collisions.rel
                                          [ scene_27_collisions ]
C:/Users/f_bes/AppData/Local/Temp/_gbsbuild/obj/scene_27_init.rel
                                          [ scene_27_init ]
C:/Users/f_bes/AppData/Local/Temp/_gbsbuild/obj/scene_27.rel
                                          [ scene_27 ]
C:/Users/f_bes/AppData/Local/Temp/_gbsbuild/obj/scene_28_actors.rel
                                          [ scene_28_actors ]
C:/Users/f_bes/AppData/Local/Temp/_gbsbuild/obj/scene_28_collisions.rel
                                          [ scene_28_collisions ]
C:/Users/f_bes/AppData/Local/Temp/_gbsbuild/obj/scene_28_init.rel
                                          [ scene_28_init ]
C:/Users/f_bes/AppData/Local/Temp/_gbsbuild/obj/scene_28_sprites.rel
                                          [ scene_28_sprites ]
C:/Users/f_bes/AppData/Local/Temp/_gbsbuild/obj/scene_28.rel
                                          [ scene_28 ]
C:/Users/f_bes/AppData/Local/Temp/_gbsbuild/obj/scene_29_actors.rel
                                          [ scene_29_actors ]
C:/Users/f_bes/AppData/Local/Temp/_gbsbuild/obj/scene_29_collisions.rel
                                          [ scene_29_collisions ]
C:/Users/f_bes/AppData/Local/Temp/_gbsbuild/obj/scene_29_init.rel
                                          [ scene_29_init ]
C:/Users/f_bes/AppData/Local/Temp/_gbsbuild/obj/scene_29_sprites.rel
                                          [ scene_29_sprites ]
C:/Users/f_bes/AppData/Local/Temp/_gbsbuild/obj/scene_29.rel
                                          [ scene_29 ]
C:/Users/f_bes/AppData/Local/Temp/_gbsbuild/obj/scene_3_collisions.rel
                                          [ scene_3_collisions ]
C:/Users/f_bes/AppData/Local/Temp/_gbsbuild/obj/scene_3_init.rel
                                          [ scene_3_init ]
C:/Users/f_bes/AppData/Local/Temp/_gbsbuild/obj/scene_3.rel
                                          [ scene_3 ]
C:/Users/f_bes/AppData/Local/Temp/_gbsbuild/obj/scene_30_collisions.rel
                                          [ scene_30_collisions ]
C:/Users/f_bes/AppData/Local/Temp/_gbsbuild/obj/scene_30_init.rel
                                          [ scene_30_init ]
C:/Users/f_bes/AppData/Local/Temp/_gbsbuild/obj/scene_30.rel
                                          [ scene_30 ]
C:/Users/f_bes/AppData/Local/Temp/_gbsbuild/obj/scene_31_collisions.rel
                                          [ scene_31_collisions ]
C:/Users/f_bes/AppData/Local/Temp/_gbsbuild/obj/scene_31_init.rel
                                          [ scene_31_init ]
C:/Users/f_bes/AppData/Local/Temp/_gbsbuild/obj/scene_31.rel
                                          [ scene_31 ]
C:/Users/f_bes/AppData/Local/Temp/_gbsbuild/obj/scene_32_actors.rel
                                          [ scene_32_actors ]
C:/Users/f_bes/AppData/Local/Temp/_gbsbuild/obj/scene_32_collisions.rel
                                          [ scene_32_collisions ]
C:/Users/f_bes/AppData/Local/Temp/_gbsbuild/obj/scene_32_init.rel
                                          [ scene_32_init ]
C:/Users/f_bes/AppData/Local/Temp/_gbsbuild/obj/scene_32_sprites.rel
                                          [ scene_32_sprites ]
C:/Users/f_bes/AppData/Local/Temp/_gbsbuild/obj/scene_32_triggers.rel
                                          [ scene_32_triggers ]
C:/Users/f_bes/AppData/Local/Temp/_gbsbuild/obj/scene_32.rel
                                          [ scene_32 ]
C:/Users/f_bes/AppData/Local/Temp/_gbsbuild/obj/scene_33_collisions.rel
                                          [ scene_33_collisions ]
C:/Users/f_bes/AppData/Local/Temp/_gbsbuild/obj/scene_33_init.rel
                                          [ scene_33_init ]
C:/Users/f_bes/AppData/Local/Temp/_gbsbuild/obj/scene_33_triggers.rel
                                          [ scene_33_triggers ]
C:/Users/f_bes/AppData/Local/Temp/_gbsbuild/obj/scene_33.rel
                                          [ scene_33 ]
C:/Users/f_bes/AppData/Local/Temp/_gbsbuild/obj/scene_34_actors.rel
                                          [ scene_34_actors ]
C:/Users/f_bes/AppData/Local/Temp/_gbsbuild/obj/scene_34_collisions.rel
                                          [ scene_34_collisions ]
C:/Users/f_bes/AppData/Local/Temp/_gbsbuild/obj/scene_34_init.rel
                                          [ scene_34_init ]
C:/Users/f_bes/AppData/Local/Temp/_gbsbuild/obj/scene_34_sprites.rel
                                          [ scene_34_sprites ]
C:/Users/f_bes/AppData/Local/Temp/_gbsbuild/obj/scene_34_triggers.rel
                                          [ scene_34_triggers ]
C:/Users/f_bes/AppData/Local/Temp/_gbsbuild/obj/scene_34.rel
                                          [ scene_34 ]
C:/Users/f_bes/AppData/Local/Temp/_gbsbuild/obj/scene_35_actors.rel
                                          [ scene_35_actors ]
C:/Users/f_bes/AppData/Local/Temp/_gbsbuild/obj/scene_35_collisions.rel
                                          [ scene_35_collisions ]
C:/Users/f_bes/AppData/Local/Temp/_gbsbuild/obj/scene_35_init.rel
                                          [ scene_35_init ]
C:/Users/f_bes/AppData/Local/Temp/_gbsbuild/obj/scene_35_sprites.rel
                                          [ scene_35_sprites ]
C:/Users/f_bes/AppData/Local/Temp/_gbsbuild/obj/scene_35_triggers.rel
                                          [ scene_35_triggers ]
C:/Users/f_bes/AppData/Local/Temp/_gbsbuild/obj/scene_35.rel
                                          [ scene_35 ]
C:/Users/f_bes/AppData/Local/Temp/_gbsbuild/obj/scene_36_actors.rel
                                          [ scene_36_actors ]
C:/Users/f_bes/AppData/Local/Temp/_gbsbuild/obj/scene_36_collisions.rel
                                          [ scene_36_collisions ]
C:/Users/f_bes/AppData/Local/Temp/_gbsbuild/obj/scene_36_init.rel
                                          [ scene_36_init ]
C:/Users/f_bes/AppData/Local/Temp/_gbsbuild/obj/scene_36_sprites.rel
                                          [ scene_36_sprites ]
C:/Users/f_bes/AppData/Local/Temp/_gbsbuild/obj/scene_36_triggers.rel
                                          [ scene_36_triggers ]
C:/Users/f_bes/AppData/Local/Temp/_gbsbuild/obj/scene_36.rel
                                          [ scene_36 ]
C:/Users/f_bes/AppData/Local/Temp/_gbsbuild/obj/scene_37_actors.rel
                                          [ scene_37_actors ]
C:/Users/f_bes/AppData/Local/Temp/_gbsbuild/obj/scene_37_collisions.rel
                                          [ scene_37_collisions ]
C:/Users/f_bes/AppData/Local/Temp/_gbsbuild/obj/scene_37_init.rel
                                          [ scene_37_init ]
C:/Users/f_bes/AppData/Local/Temp/_gbsbuild/obj/scene_37_sprites.rel
                                          [ scene_37_sprites ]
C:/Users/f_bes/AppData/Local/Temp/_gbsbuild/obj/scene_37.rel
                                          [ scene_37 ]
C:/Users/f_bes/AppData/Local/Temp/_gbsbuild/obj/scene_38_collisions.rel
                                          [ scene_38_collisions ]
C:/Users/f_bes/AppData/Local/Temp/_gbsbuild/obj/scene_38_init.rel
                                          [ scene_38_init ]
C:/Users/f_bes/AppData/Local/Temp/_gbsbuild/obj/scene_38.rel
                                          [ scene_38 ]
C:/Users/f_bes/AppData/Local/Temp/_gbsbuild/obj/scene_39_collisions.rel
                                          [ scene_39_collisions ]
C:/Users/f_bes/AppData/Local/Temp/_gbsbuild/obj/scene_39_init.rel
                                          [ scene_39_init ]
C:/Users/f_bes/AppData/Local/Temp/_gbsbuild/obj/scene_39.rel
                                          [ scene_39 ]
C:/Users/f_bes/AppData/Local/Temp/_gbsbuild/obj/scene_4_collisions.rel
                                          [ scene_4_collisions ]
C:/Users/f_bes/AppData/Local/Temp/_gbsbuild/obj/scene_4_init.rel
                                          [ scene_4_init ]
C:/Users/f_bes/AppData/Local/Temp/_gbsbuild/obj/scene_4.rel
                                          [ scene_4 ]
C:/Users/f_bes/AppData/Local/Temp/_gbsbuild/obj/scene_40_collisions.rel
                                          [ scene_40_collisions ]
C:/Users/f_bes/AppData/Local/Temp/_gbsbuild/obj/scene_40_init.rel
                                          [ scene_40_init ]
C:/Users/f_bes/AppData/Local/Temp/_gbsbuild/obj/scene_40.rel
                                          [ scene_40 ]
C:/Users/f_bes/AppData/Local/Temp/_gbsbuild/obj/scene_41_actors.rel
                                          [ scene_41_actors ]
C:/Users/f_bes/AppData/Local/Temp/_gbsbuild/obj/scene_41_collisions.rel
                                          [ scene_41_collisions ]
C:/Users/f_bes/AppData/Local/Temp/_gbsbuild/obj/scene_41_init.rel
                                          [ scene_41_init ]
C:/Users/f_bes/AppData/Local/Temp/_gbsbuild/obj/scene_41_sprites.rel
                                          [ scene_41_sprites ]
C:/Users/f_bes/AppData/Local/Temp/_gbsbuild/obj/scene_41.rel
                                          [ scene_41 ]
C:/Users/f_bes/AppData/Local/Temp/_gbsbuild/obj/scene_42_collisions.rel
                                          [ scene_42_collisions ]
C:/Users/f_bes/AppData/Local/Temp/_gbsbuild/obj/scene_42_init.rel
                                          [ scene_42_init ]
C:/Users/f_bes/AppData/Local/Temp/_gbsbuild/obj/scene_42.rel
                                          [ scene_42 ]
C:/Users/f_bes/AppData/Local/Temp/_gbsbuild/obj/scene_44_actors.rel
                                          [ scene_44_actors ]
C:/Users/f_bes/AppData/Local/Temp/_gbsbuild/obj/scene_44_collisions.rel
                                          [ scene_44_collisions ]
C:/Users/f_bes/AppData/Local/Temp/_gbsbuild/obj/scene_44_init.rel
                                          [ scene_44_init ]
C:/Users/f_bes/AppData/Local/Temp/_gbsbuild/obj/scene_44_sprites.rel
                                          [ scene_44_sprites ]
C:/Users/f_bes/AppData/Local/Temp/_gbsbuild/obj/scene_44_triggers.rel
                                          [ scene_44_triggers ]
C:/Users/f_bes/AppData/Local/Temp/_gbsbuild/obj/scene_44.rel
                                          [ scene_44 ]
C:/Users/f_bes/AppData/Local/Temp/_gbsbuild/obj/scene_45_actors.rel
                                          [ scene_45_actors ]
C:/Users/f_bes/AppData/Local/Temp/_gbsbuild/obj/scene_45_collisions.rel
                                          [ scene_45_collisions ]
C:/Users/f_bes/AppData/Local/Temp/_gbsbuild/obj/scene_45_init.rel
                                          [ scene_45_init ]
C:/Users/f_bes/AppData/Local/Temp/_gbsbuild/obj/scene_45_sprites.rel
                                          [ scene_45_sprites ]
C:/Users/f_bes/AppData/Local/Temp/_gbsbuild/obj/scene_45_triggers.rel
                                          [ scene_45_triggers ]
C:/Users/f_bes/AppData/Local/Temp/_gbsbuild/obj/scene_45.rel
                                          [ scene_45 ]
C:/Users/f_bes/AppData/Local/Temp/_gbsbuild/obj/scene_46_actors.rel
                                          [ scene_46_actors ]
C:/Users/f_bes/AppData/Local/Temp/_gbsbuild/obj/scene_46_collisions.rel
                                          [ scene_46_collisions ]
C:/Users/f_bes/AppData/Local/Temp/_gbsbuild/obj/scene_46_init.rel
                                          [ scene_46_init ]
C:/Users/f_bes/AppData/Local/Temp/_gbsbuild/obj/scene_46_sprites.rel
                                          [ scene_46_sprites ]
C:/Users/f_bes/AppData/Local/Temp/_gbsbuild/obj/scene_46.rel
                                          [ scene_46 ]
C:/Users/f_bes/AppData/Local/Temp/_gbsbuild/obj/scene_47_actors.rel
                                          [ scene_47_actors ]
C:/Users/f_bes/AppData/Local/Temp/_gbsbuild/obj/scene_47_collisions.rel
                                          [ scene_47_collisions ]
C:/Users/f_bes/AppData/Local/Temp/_gbsbuild/obj/scene_47_init.rel
                                          [ scene_47_init ]
C:/Users/f_bes/AppData/Local/Temp/_gbsbuild/obj/scene_47_sprites.rel
                                          [ scene_47_sprites ]
C:/Users/f_bes/AppData/Local/Temp/_gbsbuild/obj/scene_47_triggers.rel
                                          [ scene_47_triggers ]
C:/Users/f_bes/AppData/Local/Temp/_gbsbuild/obj/scene_47.rel
                                          [ scene_47 ]
C:/Users/f_bes/AppData/Local/Temp/_gbsbuild/obj/scene_48_actors.rel
                                          [ scene_48_actors ]
C:/Users/f_bes/AppData/Local/Temp/_gbsbuild/obj/scene_48_collisions.rel
                                          [ scene_48_collisions ]
C:/Users/f_bes/AppData/Local/Temp/_gbsbuild/obj/scene_48_init.rel
                                          [ scene_48_init ]
C:/Users/f_bes/AppData/Local/Temp/_gbsbuild/obj/scene_48_sprites.rel
                                          [ scene_48_sprites ]
C:/Users/f_bes/AppData/Local/Temp/_gbsbuild/obj/scene_48.rel
                                          [ scene_48 ]
C:/Users/f_bes/AppData/Local/Temp/_gbsbuild/obj/scene_49_collisions.rel
                                          [ scene_49_collisions ]
C:/Users/f_bes/AppData/Local/Temp/_gbsbuild/obj/scene_49_init.rel
                                          [ scene_49_init ]
C:/Users/f_bes/AppData/Local/Temp/_gbsbuild/obj/scene_49.rel
                                          [ scene_49 ]
C:/Users/f_bes/AppData/Local/Temp/_gbsbuild/obj/scene_5_collisions.rel
                                          [ scene_5_collisions ]
C:/Users/f_bes/AppData/Local/Temp/_gbsbuild/obj/scene_5_init.rel
                                          [ scene_5_init ]
C:/Users/f_bes/AppData/Local/Temp/_gbsbuild/obj/scene_5.rel
                                          [ scene_5 ]
C:/Users/f_bes/AppData/Local/Temp/_gbsbuild/obj/scene_50_collisions.rel
                                          [ scene_50_collisions ]
C:/Users/f_bes/AppData/Local/Temp/_gbsbuild/obj/scene_50_init.rel
                                          [ scene_50_init ]
C:/Users/f_bes/AppData/Local/Temp/_gbsbuild/obj/scene_50.rel
                                          [ scene_50 ]
C:/Users/f_bes/AppData/Local/Temp/_gbsbuild/obj/scene_51_actors.rel
                                          [ scene_51_actors ]
C:/Users/f_bes/AppData/Local/Temp/_gbsbuild/obj/scene_51_collisions.rel
                                          [ scene_51_collisions ]
C:/Users/f_bes/AppData/Local/Temp/_gbsbuild/obj/scene_51_init.rel
                                          [ scene_51_init ]
C:/Users/f_bes/AppData/Local/Temp/_gbsbuild/obj/scene_51_sprites.rel
                                          [ scene_51_sprites ]
C:/Users/f_bes/AppData/Local/Temp/_gbsbuild/obj/scene_51.rel
                                          [ scene_51 ]
C:/Users/f_bes/AppData/Local/Temp/_gbsbuild/obj/scene_52_actors.rel
                                          [ scene_52_actors ]
C:/Users/f_bes/AppData/Local/Temp/_gbsbuild/obj/scene_52_collisions.rel
                                          [ scene_52_collisions ]
C:/Users/f_bes/AppData/Local/Temp/_gbsbuild/obj/scene_52_init.rel
                                          [ scene_52_init ]
C:/Users/f_bes/AppData/Local/Temp/_gbsbuild/obj/scene_52_sprites.rel
                                          [ scene_52_sprites ]
C:/Users/f_bes/AppData/Local/Temp/_gbsbuild/obj/scene_52.rel
                                          [ scene_52 ]
C:/Users/f_bes/AppData/Local/Temp/_gbsbuild/obj/scene_54_collisions.rel
                                          [ scene_54_collisions ]
C:/Users/f_bes/AppData/Local/Temp/_gbsbuild/obj/scene_54_init.rel
                                          [ scene_54_init ]
C:/Users/f_bes/AppData/Local/Temp/_gbsbuild/obj/scene_54_triggers.rel
                                          [ scene_54_triggers ]
C:/Users/f_bes/AppData/Local/Temp/_gbsbuild/obj/scene_54.rel
                                          [ scene_54 ]
C:/Users/f_bes/AppData/Local/Temp/_gbsbuild/obj/scene_55_actors.rel
                                          [ scene_55_actors ]
C:/Users/f_bes/AppData/Local/Temp/_gbsbuild/obj/scene_55_collisions.rel
                                          [ scene_55_collisions ]
C:/Users/f_bes/AppData/Local/Temp/_gbsbuild/obj/scene_55_init.rel
                                          [ scene_55_init ]
C:/Users/f_bes/AppData/Local/Temp/_gbsbuild/obj/scene_55_sprites.rel
                                          [ scene_55_sprites ]
C:/Users/f_bes/AppData/Local/Temp/_gbsbuild/obj/scene_55_triggers.rel
                                          [ scene_55_triggers ]
C:/Users/f_bes/AppData/Local/Temp/_gbsbuild/obj/scene_55.rel
                                          [ scene_55 ]
C:/Users/f_bes/AppData/Local/Temp/_gbsbuild/obj/scene_56_actors.rel
                                          [ scene_56_actors ]
C:/Users/f_bes/AppData/Local/Temp/_gbsbuild/obj/scene_56_collisions.rel
                                          [ scene_56_collisions ]
C:/Users/f_bes/AppData/Local/Temp/_gbsbuild/obj/scene_56_init.rel
                                          [ scene_56_init ]
C:/Users/f_bes/AppData/Local/Temp/_gbsbuild/obj/scene_56_sprites.rel
                                          [ scene_56_sprites ]
C:/Users/f_bes/AppData/Local/Temp/_gbsbuild/obj/scene_56_triggers.rel
                                          [ scene_56_triggers ]
C:/Users/f_bes/AppData/Local/Temp/_gbsbuild/obj/scene_56.rel
                                          [ scene_56 ]
C:/Users/f_bes/AppData/Local/Temp/_gbsbuild/obj/scene_57_collisions.rel
                                          [ scene_57_collisions ]
C:/Users/f_bes/AppData/Local/Temp/_gbsbuild/obj/scene_57_init.rel
                                          [ scene_57_init ]
C:/Users/f_bes/AppData/Local/Temp/_gbsbuild/obj/scene_57_triggers.rel
                                          [ scene_57_triggers ]
C:/Users/f_bes/AppData/Local/Temp/_gbsbuild/obj/scene_57.rel
                                          [ scene_57 ]
C:/Users/f_bes/AppData/Local/Temp/_gbsbuild/obj/scene_58_collisions.rel
                                          [ scene_58_collisions ]
C:/Users/f_bes/AppData/Local/Temp/_gbsbuild/obj/scene_58_init.rel
                                          [ scene_58_init ]
C:/Users/f_bes/AppData/Local/Temp/_gbsbuild/obj/scene_58.rel
                                          [ scene_58 ]
C:/Users/f_bes/AppData/Local/Temp/_gbsbuild/obj/scene_59_actors.rel
                                          [ scene_59_actors ]
C:/Users/f_bes/AppData/Local/Temp/_gbsbuild/obj/scene_59_collisions.rel
                                          [ scene_59_collisions ]
C:/Users/f_bes/AppData/Local/Temp/_gbsbuild/obj/scene_59_init.rel
                                          [ scene_59_init ]
C:/Users/f_bes/AppData/Local/Temp/_gbsbuild/obj/scene_59_sprites.rel
                                          [ scene_59_sprites ]
C:/Users/f_bes/AppData/Local/Temp/_gbsbuild/obj/scene_59_triggers.rel
                                          [ scene_59_triggers ]
C:/Users/f_bes/AppData/Local/Temp/_gbsbuild/obj/scene_59.rel
                                          [ scene_59 ]
C:/Users/f_bes/AppData/Local/Temp/_gbsbuild/obj/scene_6_collisions.rel
                                          [ scene_6_collisions ]
C:/Users/f_bes/AppData/Local/Temp/_gbsbuild/obj/scene_6_init.rel
                                          [ scene_6_init ]
C:/Users/f_bes/AppData/Local/Temp/_gbsbuild/obj/scene_6.rel
                                          [ scene_6 ]
C:/Users/f_bes/AppData/Local/Temp/_gbsbuild/obj/scene_60_actors.rel
                                          [ scene_60_actors ]
C:/Users/f_bes/AppData/Local/Temp/_gbsbuild/obj/scene_60_collisions.rel
                                          [ scene_60_collisions ]
C:/Users/f_bes/AppData/Local/Temp/_gbsbuild/obj/scene_60_init.rel
                                          [ scene_60_init ]
C:/Users/f_bes/AppData/Local/Temp/_gbsbuild/obj/scene_60_sprites.rel
                                          [ scene_60_sprites ]
C:/Users/f_bes/AppData/Local/Temp/_gbsbuild/obj/scene_60_triggers.rel
                                          [ scene_60_triggers ]
C:/Users/f_bes/AppData/Local/Temp/_gbsbuild/obj/scene_60.rel
                                          [ scene_60 ]
C:/Users/f_bes/AppData/Local/Temp/_gbsbuild/obj/scene_61_actors.rel
                                          [ scene_61_actors ]
C:/Users/f_bes/AppData/Local/Temp/_gbsbuild/obj/scene_61_collisions.rel
                                          [ scene_61_collisions ]
C:/Users/f_bes/AppData/Local/Temp/_gbsbuild/obj/scene_61_init.rel
                                          [ scene_61_init ]
C:/Users/f_bes/AppData/Local/Temp/_gbsbuild/obj/scene_61_sprites.rel
                                          [ scene_61_sprites ]
C:/Users/f_bes/AppData/Local/Temp/_gbsbuild/obj/scene_61_triggers.rel
                                          [ scene_61_triggers ]
C:/Users/f_bes/AppData/Local/Temp/_gbsbuild/obj/scene_61.rel
                                          [ scene_61 ]
C:/Users/f_bes/AppData/Local/Temp/_gbsbuild/obj/scene_62_collisions.rel
                                          [ scene_62_collisions ]
C:/Users/f_bes/AppData/Local/Temp/_gbsbuild/obj/scene_62_init.rel
                                          [ scene_62_init ]
C:/Users/f_bes/AppData/Local/Temp/_gbsbuild/obj/scene_62.rel
                                          [ scene_62 ]
C:/Users/f_bes/AppData/Local/Temp/_gbsbuild/obj/scene_63_actors.rel
                                          [ scene_63_actors ]
C:/Users/f_bes/AppData/Local/Temp/_gbsbuild/obj/scene_63_collisions.rel
                                          [ scene_63_collisions ]
C:/Users/f_bes/AppData/Local/Temp/_gbsbuild/obj/scene_63_init.rel
                                          [ scene_63_init ]
C:/Users/f_bes/AppData/Local/Temp/_gbsbuild/obj/scene_63_sprites.rel
                                          [ scene_63_sprites ]
C:/Users/f_bes/AppData/Local/Temp/_gbsbuild/obj/scene_63_triggers.rel
                                          [ scene_63_triggers ]
C:/Users/f_bes/AppData/Local/Temp/_gbsbuild/obj/scene_63.rel
                                          [ scene_63 ]
C:/Users/f_bes/AppData/Local/Temp/_gbsbuild/obj/scene_64_collisions.rel
                                          [ scene_64_collisions ]
C:/Users/f_bes/AppData/Local/Temp/_gbsbuild/obj/scene_64_init.rel
                                          [ scene_64_init ]
C:/Users/f_bes/AppData/Local/Temp/_gbsbuild/obj/scene_64_triggers.rel
                                          [ scene_64_triggers ]
C:/Users/f_bes/AppData/Local/Temp/_gbsbuild/obj/scene_64.rel
                                          [ scene_64 ]
C:/Users/f_bes/AppData/Local/Temp/_gbsbuild/obj/scene_65_actors.rel
                                          [ scene_65_actors ]
C:/Users/f_bes/AppData/Local/Temp/_gbsbuild/obj/scene_65_collisions.rel
                                          [ scene_65_collisions ]
C:/Users/f_bes/AppData/Local/Temp/_gbsbuild/obj/scene_65_init.rel
                                          [ scene_65_init ]
C:/Users/f_bes/AppData/Local/Temp/_gbsbuild/obj/scene_65_sprites.rel
                                          [ scene_65_sprites ]
C:/Users/f_bes/AppData/Local/Temp/_gbsbuild/obj/scene_65_triggers.rel
                                          [ scene_65_triggers ]
C:/Users/f_bes/AppData/Local/Temp/_gbsbuild/obj/scene_65.rel
                                          [ scene_65 ]
C:/Users/f_bes/AppData/Local/Temp/_gbsbuild/obj/scene_66_actors.rel
                                          [ scene_66_actors ]
C:/Users/f_bes/AppData/Local/Temp/_gbsbuild/obj/scene_66_collisions.rel
                                          [ scene_66_collisions ]
C:/Users/f_bes/AppData/Local/Temp/_gbsbuild/obj/scene_66_init.rel
                                          [ scene_66_init ]
C:/Users/f_bes/AppData/Local/Temp/_gbsbuild/obj/scene_66_sprites.rel
                                          [ scene_66_sprites ]
C:/Users/f_bes/AppData/Local/Temp/_gbsbuild/obj/scene_66_triggers.rel
                                          [ scene_66_triggers ]
C:/Users/f_bes/AppData/Local/Temp/_gbsbuild/obj/scene_66.rel
                                          [ scene_66 ]
C:/Users/f_bes/AppData/Local/Temp/_gbsbuild/obj/scene_67_collisions.rel
                                          [ scene_67_collisions ]
C:/Users/f_bes/AppData/Local/Temp/_gbsbuild/obj/scene_67_init.rel
                                          [ scene_67_init ]
C:/Users/f_bes/AppData/Local/Temp/_gbsbuild/obj/scene_67_triggers.rel
                                          [ scene_67_triggers ]
C:/Users/f_bes/AppData/Local/Temp/_gbsbuild/obj/scene_67.rel
                                          [ scene_67 ]
C:/Users/f_bes/AppData/Local/Temp/_gbsbuild/obj/scene_68_actors.rel
                                          [ scene_68_actors ]
C:/Users/f_bes/AppData/Local/Temp/_gbsbuild/obj/scene_68_collisions.rel
                                          [ scene_68_collisions ]
C:/Users/f_bes/AppData/Local/Temp/_gbsbuild/obj/scene_68_init.rel
                                          [ scene_68_init ]
C:/Users/f_bes/AppData/Local/Temp/_gbsbuild/obj/scene_68_sprites.rel
                                          [ scene_68_sprites ]
C:/Users/f_bes/AppData/Local/Temp/_gbsbuild/obj/scene_68_triggers.rel
                                          [ scene_68_triggers ]
C:/Users/f_bes/AppData/Local/Temp/_gbsbuild/obj/scene_68.rel
                                          [ scene_68 ]
C:/Users/f_bes/AppData/Local/Temp/_gbsbuild/obj/scene_7_collisions.rel
                                          [ scene_7_collisions ]
C:/Users/f_bes/AppData/Local/Temp/_gbsbuild/obj/scene_7_init.rel
                                          [ scene_7_init ]
C:/Users/f_bes/AppData/Local/Temp/_gbsbuild/obj/scene_7.rel
                                          [ scene_7 ]
C:/Users/f_bes/AppData/Local/Temp/_gbsbuild/obj/scene_8_collisions.rel
                                          [ scene_8_collisions ]
C:/Users/f_bes/AppData/Local/Temp/_gbsbuild/obj/scene_8_init.rel
                                          [ scene_8_init ]
C:/Users/f_bes/AppData/Local/Temp/_gbsbuild/obj/scene_8.rel
                                          [ scene_8 ]
C:/Users/f_bes/AppData/Local/Temp/_gbsbuild/obj/scene_9_collisions.rel
                                          [ scene_9_collisions ]
C:/Users/f_bes/AppData/Local/Temp/_gbsbuild/obj/scene_9_init.rel
                                          [ scene_9_init ]
C:/Users/f_bes/AppData/Local/Temp/_gbsbuild/obj/scene_9.rel
                                          [ scene_9 ]
C:/Users/f_bes/AppData/Local/Temp/_gbsbuild/obj/scene_logo_collisions.rel
                                          [ scene_logo_collisions ]
C:/Users/f_bes/AppData/Local/Temp/_gbsbuild/obj/scene_logo_init.rel
                                          [ scene_logo_init ]
C:/Users/f_bes/AppData/Local/Temp/_gbsbuild/obj/scene_logo.rel
                                          [ scene_logo ]
C:/Users/f_bes/AppData/Local/Temp/_gbsbuild/obj/script_0.rel
                                          [ script_0 ]
C:/Users/f_bes/AppData/Local/Temp/_gbsbuild/obj/script_1.rel
                                          [ script_1 ]
C:/Users/f_bes/AppData/Local/Temp/_gbsbuild/obj/script_11.rel
                                          [ script_11 ]
C:/Users/f_bes/AppData/Local/Temp/_gbsbuild/obj/script_19.rel
                                          [ script_19 ]
C:/Users/f_bes/AppData/Local/Temp/_gbsbuild/obj/script_2.rel
                                          [ script_2 ]
C:/Users/f_bes/AppData/Local/Temp/_gbsbuild/obj/script_3.rel
                                          [ script_3 ]
C:/Users/f_bes/AppData/Local/Temp/_gbsbuild/obj/script_4.rel
                                          [ script_4 ]
C:/Users/f_bes/AppData/Local/Temp/_gbsbuild/obj/script_5.rel
                                          [ script_5 ]
C:/Users/f_bes/AppData/Local/Temp/_gbsbuild/obj/script_6.rel
                                          [ script_6 ]
C:/Users/f_bes/AppData/Local/Temp/_gbsbuild/obj/script_7.rel
                                          [ script_7 ]
C:/Users/f_bes/AppData/Local/Temp/_gbsbuild/obj/script_8.rel
                                          [ script_8 ]
C:/Users/f_bes/AppData/Local/Temp/_gbsbuild/obj/script_9.rel
                                          [ script_9 ]
C:/Users/f_bes/AppData/Local/Temp/_gbsbuild/obj/script_engine_init.rel
                                          [  ]
C:/Users/f_bes/AppData/Local/Temp/_gbsbuild/obj/script_input_0.rel
                                          [ script_input_0 ]
C:/Users/f_bes/AppData/Local/Temp/_gbsbuild/obj/script_input_1.rel
                                          [ script_input_1 ]
C:/Users/f_bes/AppData/Local/Temp/_gbsbuild/obj/script_input_2.rel
                                          [ script_input_2 ]
C:/Users/f_bes/AppData/Local/Temp/_gbsbuild/obj/script_input_3.rel
                                          [ script_input_3 ]
C:/Users/f_bes/AppData/Local/Temp/_gbsbuild/obj/script_input_4.rel
                                          [ script_input_4 ]
C:/Users/f_bes/AppData/Local/Temp/_gbsbuild/obj/script_input_5.rel
                                          [ script_input_5 ]
C:/Users/f_bes/AppData/Local/Temp/_gbsbuild/obj/script_input_6.rel
                                          [ script_input_6 ]
C:/Users/f_bes/AppData/Local/Temp/_gbsbuild/obj/script_input.rel
                                          [ script_input ]
C:/Users/f_bes/AppData/Local/Temp/_gbsbuild/obj/sound_legacy_0_0.rel
                                          [ sound_legacy_0_0 ]
C:/Users/f_bes/AppData/Local/Temp/_gbsbuild/obj/sound_legacy_0_1.rel
                                          [ sound_legacy_0_1 ]
C:/Users/f_bes/AppData/Local/Temp/_gbsbuild/obj/sound_legacy_0_2.rel
                                          [ sound_legacy_0_2 ]
C:/Users/f_bes/AppData/Local/Temp/_gbsbuild/obj/sound_legacy_0.rel
                                          [ sound_legacy_0 ]
C:/Users/f_bes/AppData/Local/Temp/_gbsbuild/obj/sprite_aplhys_tileset.rel
                                          [ sprite_aplhys_tileset ]
C:/Users/f_bes/AppData/Local/Temp/_gbsbuild/obj/sprite_aplhys.rel
                                          [ sprite_aplhys ]
C:/Users/f_bes/AppData/Local/Temp/_gbsbuild/obj/sprite_can_t_spare_tileset.rel
                                          [ sprite_can_t_spare_tileset ]
C:/Users/f_bes/AppData/Local/Temp/_gbsbuild/obj/sprite_can_t_spare.rel
                                          [ sprite_can_t_spare ]
C:/Users/f_bes/AppData/Local/Temp/_gbsbuild/obj/sprite_cursor_tileset.rel
                                          [ sprite_cursor_tileset ]
C:/Users/f_bes/AppData/Local/Temp/_gbsbuild/obj/sprite_cursor.rel
                                          [ sprite_cursor ]
C:/Users/f_bes/AppData/Local/Temp/_gbsbuild/obj/sprite_cursor2_tileset.rel
                                          [ sprite_cursor2_tileset ]
C:/Users/f_bes/AppData/Local/Temp/_gbsbuild/obj/sprite_cursor2.rel
                                          [ sprite_cursor2 ]
C:/Users/f_bes/AppData/Local/Temp/_gbsbuild/obj/sprite_cursortest_tileset.rel
                                          [ sprite_cursortest_tileset ]
C:/Users/f_bes/AppData/Local/Temp/_gbsbuild/obj/sprite_cursortest.rel
                                          [ sprite_cursortest ]
C:/Users/f_bes/AppData/Local/Temp/_gbsbuild/obj/sprite_dust_piles_tileset.rel
                                          [ sprite_dust_piles_tileset ]
C:/Users/f_bes/AppData/Local/Temp/_gbsbuild/obj/sprite_dust_piles.rel
                                          [ sprite_dust_piles ]
C:/Users/f_bes/AppData/Local/Temp/_gbsbuild/obj/sprite_hax_tileset.rel
                                          [ sprite_hax_tileset ]
C:/Users/f_bes/AppData/Local/Temp/_gbsbuild/obj/sprite_hax.rel
                                          [ sprite_hax ]
C:/Users/f_bes/AppData/Local/Temp/_gbsbuild/obj/sprite_image_tileset.rel
                                          [ sprite_image_tileset ]
C:/Users/f_bes/AppData/Local/Temp/_gbsbuild/obj/sprite_image.rel
                                          [ sprite_image ]
C:/Users/f_bes/AppData/Local/Temp/_gbsbuild/obj/sprite_kris_lightworld_tileset.rel
                                          [ sprite_kris_lightworld_tileset ]
C:/Users/f_bes/AppData/Local/Temp/_gbsbuild/obj/sprite_kris_lightworld.rel
                                          [ sprite_kris_lightworld ]
C:/Users/f_bes/AppData/Local/Temp/_gbsbuild/obj/sprite_krisbattle_tileset.rel
                                          [ sprite_krisbattle_tileset ]
C:/Users/f_bes/AppData/Local/Temp/_gbsbuild/obj/sprite_krisbattle.rel
                                          [ sprite_krisbattle ]
C:/Users/f_bes/AppData/Local/Temp/_gbsbuild/obj/sprite_krisbt2o_tileset.rel
                                          [ sprite_krisbt2o_tileset ]
C:/Users/f_bes/AppData/Local/Temp/_gbsbuild/obj/sprite_krisbt2o.rel
                                          [ sprite_krisbt2o ]
C:/Users/f_bes/AppData/Local/Temp/_gbsbuild/obj/sprite_lacer_shadow_tileset.rel
                                          [ sprite_lacer_shadow_tileset ]
C:/Users/f_bes/AppData/Local/Temp/_gbsbuild/obj/sprite_lacer_shadow.rel
                                          [ sprite_lacer_shadow ]
C:/Users/f_bes/AppData/Local/Temp/_gbsbuild/obj/sprite_lancer_tileset.rel
                                          [ sprite_lancer_tileset ]
C:/Users/f_bes/AppData/Local/Temp/_gbsbuild/obj/sprite_lancer.rel
                                          [ sprite_lancer ]
C:/Users/f_bes/AppData/Local/Temp/_gbsbuild/obj/sprite_lightshard_tileset.rel
                                          [ sprite_lightshard_tileset ]
C:/Users/f_bes/AppData/Local/Temp/_gbsbuild/obj/sprite_lightshard.rel
                                          [ sprite_lightshard ]
C:/Users/f_bes/AppData/Local/Temp/_gbsbuild/obj/sprite_lowercases_tileset.rel
                                          [ sprite_lowercases_tileset ]
C:/Users/f_bes/AppData/Local/Temp/_gbsbuild/obj/sprite_lowercases.rel
                                          [ sprite_lowercases ]
C:/Users/f_bes/AppData/Local/Temp/_gbsbuild/obj/sprite_new_piskel_1_png.rel
                                          [ sprite_new_piskel_1_png ]
C:/Users/f_bes/AppData/Local/Temp/_gbsbuild/obj/sprite_new_piskel_3__tileset.rel
                                          [ sprite_new_piskel_3__tileset ]
C:/Users/f_bes/AppData/Local/Temp/_gbsbuild/obj/sprite_new_piskel_3_.rel
                                          [ sprite_new_piskel_3_ ]
C:/Users/f_bes/AppData/Local/Temp/_gbsbuild/obj/sprite_new_piskel_tileset.rel
                                          [ sprite_new_piskel_tileset ]
C:/Users/f_bes/AppData/Local/Temp/_gbsbuild/obj/sprite_new_piskel.rel
                                          [ sprite_new_piskel ]
C:/Users/f_bes/AppData/Local/Temp/_gbsbuild/obj/sprite_noellee_tileset.rel
                                          [ sprite_noellee_tileset ]
C:/Users/f_bes/AppData/Local/Temp/_gbsbuild/obj/sprite_noellee.rel
                                          [ sprite_noellee ]
C:/Users/f_bes/AppData/Local/Temp/_gbsbuild/obj/sprite_piaf_tileset.rel
                                          [ sprite_piaf_tileset ]
C:/Users/f_bes/AppData/Local/Temp/_gbsbuild/obj/sprite_piaf.rel
                                          [ sprite_piaf ]
C:/Users/f_bes/AppData/Local/Temp/_gbsbuild/obj/sprite_ralsei_tileset.rel
                                          [ sprite_ralsei_tileset ]
C:/Users/f_bes/AppData/Local/Temp/_gbsbuild/obj/sprite_ralsei.rel
                                          [ sprite_ralsei ]
C:/Users/f_bes/AppData/Local/Temp/_gbsbuild/obj/sprite_ralseibt_tileset.rel
                                          [ sprite_ralseibt_tileset ]
C:/Users/f_bes/AppData/Local/Temp/_gbsbuild/obj/sprite_ralseibt.rel
                                          [ sprite_ralseibt ]
C:/Users/f_bes/AppData/Local/Temp/_gbsbuild/obj/sprite_ralsss_tileset.rel
                                          [ sprite_ralsss_tileset ]
C:/Users/f_bes/AppData/Local/Temp/_gbsbuild/obj/sprite_ralsss.rel
                                          [ sprite_ralsss ]
C:/Users/f_bes/AppData/Local/Temp/_gbsbuild/obj/sprite_room2_tilemap_attr.rel
                                          [ sprite_room2_tilemap_attr ]
C:/Users/f_bes/AppData/Local/Temp/_gbsbuild/obj/sprite_room2_tilemap.rel
                                          [ sprite_room2_tilemap ]
C:/Users/f_bes/AppData/Local/Temp/_gbsbuild/obj/sprite_room2_tileset.rel
                                          [ sprite_room2_tileset ]
C:/Users/f_bes/AppData/Local/Temp/_gbsbuild/obj/sprite_room2.rel
                                          [ sprite_room2 ]
C:/Users/f_bes/AppData/Local/Temp/_gbsbuild/obj/sprite_saveae_tileset.rel
                                          [ sprite_saveae_tileset ]
C:/Users/f_bes/AppData/Local/Temp/_gbsbuild/obj/sprite_saveae.rel
                                          [ sprite_saveae ]
C:/Users/f_bes/AppData/Local/Temp/_gbsbuild/obj/sprite_spare_tileset.rel
                                          [ sprite_spare_tileset ]
C:/Users/f_bes/AppData/Local/Temp/_gbsbuild/obj/sprite_spare.rel
                                          [ sprite_spare ]
C:/Users/f_bes/AppData/Local/Temp/_gbsbuild/obj/sprite_susie_tileset.rel
                                          [ sprite_susie_tileset ]
C:/Users/f_bes/AppData/Local/Temp/_gbsbuild/obj/sprite_susie.rel
                                          [ sprite_susie ]
C:/Users/f_bes/AppData/Local/Temp/_gbsbuild/obj/sprite_susiebto2_tileset.rel
                                          [ sprite_susiebto2_tileset ]
C:/Users/f_bes/AppData/Local/Temp/_gbsbuild/obj/sprite_susiebto2.rel
                                          [ sprite_susiebto2 ]
C:/Users/f_bes/AppData/Local/Temp/_gbsbuild/obj/sprite_susiehs_copie_tileset.rel
                                          [ sprite_susiehs_copie_tileset ]
C:/Users/f_bes/AppData/Local/Temp/_gbsbuild/obj/sprite_susiehs_copie.rel
                                          [ sprite_susiehs_copie ]
C:/Users/f_bes/AppData/Local/Temp/_gbsbuild/obj/sprite_sword2o_tileset.rel
                                          [ sprite_sword2o_tileset ]
C:/Users/f_bes/AppData/Local/Temp/_gbsbuild/obj/sprite_sword2o.rel
                                          [ sprite_sword2o ]
C:/Users/f_bes/AppData/Local/Temp/_gbsbuild/obj/sprite_toriel_tileset.rel
                                          [ sprite_toriel_tileset ]
C:/Users/f_bes/AppData/Local/Temp/_gbsbuild/obj/sprite_toriel.rel
                                          [ sprite_toriel ]
C:/Users/f_bes/AppData/Local/Temp/_gbsbuild/obj/spritesheet_none.rel
                                          [ spritesheet_none ]
C:/Users/f_bes/AppData/Local/Temp/_gbsbuild/obj/tileset_default_frame.rel
                                          [ tileset_default_frame ]
C:/Users/f_bes/AppData/Local/Temp/_gbsbuild/obj/tileset_gbs_mono.rel
                                          [ tileset_gbs_mono ]
C:/Users/f_bes/AppData/Local/Temp/_gbsbuild/obj/trigger_0_interact.rel
                                          [ trigger_0_interact ]
C:/Users/f_bes/AppData/Local/Temp/_gbsbuild/obj/trigger_1_interact.rel
                                          [ trigger_1_interact ]
C:/Users/f_bes/AppData/Local/Temp/_gbsbuild/obj/trigger_10_interact.rel
                                          [ trigger_10_interact ]
C:/Users/f_bes/AppData/Local/Temp/_gbsbuild/obj/trigger_11_interact.rel
                                          [ trigger_11_interact ]
C:/Users/f_bes/AppData/Local/Temp/_gbsbuild/obj/trigger_12_interact.rel
                                          [ trigger_12_interact ]
C:/Users/f_bes/AppData/Local/Temp/_gbsbuild/obj/trigger_13_interact.rel
                                          [ trigger_13_interact ]
C:/Users/f_bes/AppData/Local/Temp/_gbsbuild/obj/trigger_14_interact.rel
                                          [ trigger_14_interact ]
C:/Users/f_bes/AppData/Local/Temp/_gbsbuild/obj/trigger_15_interact.rel
                                          [ trigger_15_interact ]
C:/Users/f_bes/AppData/Local/Temp/_gbsbuild/obj/trigger_16_interact.rel
                                          [ trigger_16_interact ]
C:/Users/f_bes/AppData/Local/Temp/_gbsbuild/obj/trigger_17_interact.rel
                                          [ trigger_17_interact ]
C:/Users/f_bes/AppData/Local/Temp/_gbsbuild/obj/trigger_18_interact.rel
                                          [ trigger_18_interact ]
C:/Users/f_bes/AppData/Local/Temp/_gbsbuild/obj/trigger_19_interact.rel
                                          [ trigger_19_interact ]
C:/Users/f_bes/AppData/Local/Temp/_gbsbuild/obj/trigger_2_interact.rel
                                          [ trigger_2_interact ]
C:/Users/f_bes/AppData/Local/Temp/_gbsbuild/obj/trigger_20_interact.rel
                                          [ trigger_20_interact ]
C:/Users/f_bes/AppData/Local/Temp/_gbsbuild/obj/trigger_21_interact.rel
                                          [ trigger_21_interact ]
C:/Users/f_bes/AppData/Local/Temp/_gbsbuild/obj/trigger_22_interact.rel
                                          [ trigger_22_interact ]
C:/Users/f_bes/AppData/Local/Temp/_gbsbuild/obj/trigger_23_interact.rel
                                          [ trigger_23_interact ]
C:/Users/f_bes/AppData/Local/Temp/_gbsbuild/obj/trigger_24_interact.rel
                                          [ trigger_24_interact ]
C:/Users/f_bes/AppData/Local/Temp/_gbsbuild/obj/trigger_25_interact.rel
                                          [ trigger_25_interact ]
C:/Users/f_bes/AppData/Local/Temp/_gbsbuild/obj/trigger_26_interact.rel
                                          [ trigger_26_interact ]
C:/Users/f_bes/AppData/Local/Temp/_gbsbuild/obj/trigger_27_interact.rel
                                          [ trigger_27_interact ]
C:/Users/f_bes/AppData/Local/Temp/_gbsbuild/obj/trigger_28_interact.rel
                                          [ trigger_28_interact ]
C:/Users/f_bes/AppData/Local/Temp/_gbsbuild/obj/trigger_29_interact.rel
                                          [ trigger_29_interact ]
C:/Users/f_bes/AppData/Local/Temp/_gbsbuild/obj/trigger_3_interact.rel
                                          [ trigger_3_interact ]
C:/Users/f_bes/AppData/Local/Temp/_gbsbuild/obj/trigger_30_interact.rel
                                          [ trigger_30_interact ]
C:/Users/f_bes/AppData/Local/Temp/_gbsbuild/obj/trigger_31_interact.rel
                                          [ trigger_31_interact ]
C:/Users/f_bes/AppData/Local/Temp/_gbsbuild/obj/trigger_32_interact.rel
                                          [ trigger_32_interact ]
C:/Users/f_bes/AppData/Local/Temp/_gbsbuild/obj/trigger_33_interact.rel
                                          [ trigger_33_interact ]
C:/Users/f_bes/AppData/Local/Temp/_gbsbuild/obj/trigger_34_interact.rel
                                          [ trigger_34_interact ]
C:/Users/f_bes/AppData/Local/Temp/_gbsbuild/obj/trigger_35_interact.rel
                                          [ trigger_35_interact ]
C:/Users/f_bes/AppData/Local/Temp/_gbsbuild/obj/trigger_36_interact.rel
                                          [ trigger_36_interact ]
C:/Users/f_bes/AppData/Local/Temp/_gbsbuild/obj/trigger_37_interact.rel
                                          [ trigger_37_interact ]
C:/Users/f_bes/AppData/Local/Temp/_gbsbuild/obj/trigger_38_interact.rel
                                          [ trigger_38_interact ]
C:/Users/f_bes/AppData/Local/Temp/_gbsbuild/obj/trigger_39_interact.rel
                                          [ trigger_39_interact ]
C:/Users/f_bes/AppData/Local/Temp/_gbsbuild/obj/trigger_4_interact.rel
                                          [ trigger_4_interact ]
C:/Users/f_bes/AppData/Local/Temp/_gbsbuild/obj/trigger_40_interact.rel
                                          [ trigger_40_interact ]
C:/Users/f_bes/AppData/Local/Temp/_gbsbuild/obj/trigger_41_interact.rel
                                          [ trigger_41_interact ]
C:/Users/f_bes/AppData/Local/Temp/_gbsbuild/obj/trigger_42_interact.rel
                                          [ trigger_42_interact ]
C:/Users/f_bes/AppData/Local/Temp/_gbsbuild/obj/trigger_43_interact.rel
                                          [ trigger_43_interact ]
C:/Users/f_bes/AppData/Local/Temp/_gbsbuild/obj/trigger_5_interact.rel
                                          [ trigger_5_interact ]
C:/Users/f_bes/AppData/Local/Temp/_gbsbuild/obj/trigger_6_interact.rel
                                          [ trigger_6_interact ]
C:/Users/f_bes/AppData/Local/Temp/_gbsbuild/obj/trigger_7_interact.rel
                                          [ trigger_7_interact ]
C:/Users/f_bes/AppData/Local/Temp/_gbsbuild/obj/trigger_8_interact.rel
                                          [ trigger_8_interact ]
C:/Users/f_bes/AppData/Local/Temp/_gbsbuild/obj/trigger_9_interact.rel
                                          [ trigger_9_interact ]
C:/Users/f_bes/AppData/Local/Temp/_gbsbuild/obj/main.rel
                                          [ main ]
C:/Users/f_bes/AppData/Local/Temp/_gbsbuild/obj/logo.rel
                                          [ logo ]
C:/Users/f_bes/AppData/Local/Temp/_gbsbuild/obj/pointnclick.rel
                                          [ pointnclick ]
C:/Users/f_bes/AppData/Local/Temp/_gbsbuild/obj/states_ptrs.rel
                                          [  ]
C:/Users/f_bes/AppData/Local/Temp/_gbsbuild/obj/topdown.rel
                                          [ topdown ]


Libraries Linked                          [ object file ]

C:\Users\f_bes\AppData\Local\Temp/_gbstools/gbdk/lib/gb/gb.lib
                                          [ fill_rect_wi.o ]
C:\Users\f_bes\AppData\Local\Temp/_gbstools/gbdk/lib/sm83/sm83.lib
                                          [ rand.o ]
lib/hUGEDriver.lib                        [ hUGEDriver.o ]
C:\Users\f_bes\AppData\Local\Temp/_gbstools/gbdk/lib/gb/gb.lib
                                          [ sfr.o ]
C:\Users\f_bes\AppData\Local\Temp/_gbstools/gbdk/lib/gb/gb.lib
                                          [ get_data.o ]
C:\Users\f_bes\AppData\Local\Temp/_gbstools/gbdk/lib/gb/gb.lib
                                          [ get_tile.o ]
C:\Users\f_bes\AppData\Local\Temp/_gbstools/gbdk/lib/gb/gb.lib
                                          [ cgb_palettes.o ]
C:\Users\f_bes\AppData\Local\Temp/_gbstools/gbdk/lib/gb/gb.lib
                                          [ metasprites_hide_spr.o ]
C:\Users\f_bes\AppData\Local\Temp/_gbstools/gbdk/lib/sm83/sm83.lib
                                          [ mul.o ]
C:\Users\f_bes\AppData\Local\Temp/_gbstools/gbdk/lib/gb/gb.lib
                                          [ set_tile.o ]
C:\Users\f_bes\AppData\Local\Temp/_gbstools/gbdk/lib/sm83/sm83.lib
                                          [ abs.o ]
C:\Users\f_bes\AppData\Local\Temp/_gbstools/gbdk/lib/gb/gb.lib
                                          [ set_wi_t.o ]
C:\Users\f_bes\AppData\Local\Temp/_gbstools/gbdk/lib/gb/gb.lib
                                          [ set_data.o ]
C:\Users\f_bes\AppData\Local\Temp/_gbstools/gbdk/lib/sm83/sm83.lib
                                          [ reverse.o ]
C:\Users\f_bes\AppData\Local\Temp/_gbstools/gbdk/lib/gb/gb.lib
                                          [ far_ptr.o ]
C:\Users\f_bes\AppData\Local\Temp/_gbstools/gbdk/lib/gb/gb.lib
                                          [ sgb.o ]
C:\Users\f_bes\AppData\Local\Temp/_gbstools/gbdk/lib/gb/gb.lib
                                          [ lcd.o ]
C:\Users\f_bes\AppData\Local\Temp/_gbstools/gbdk/lib/gb/gb.lib
                                          [ fill_rect.o ]
C:\Users\f_bes\AppData\Local\Temp/_gbstools/gbdk/lib/gb/gb.lib
                                          [ cpy_data.o ]
C:\Users\f_bes\AppData\Local\Temp/_gbstools/gbdk/lib/gb/gb.lib
                                          [ fill_rect_bk.o ]
C:\Users\f_bes\AppData\Local\Temp/_gbstools/gbdk/lib/gb/gb.lib
                                          [ pad.o ]
C:\Users\f_bes\AppData\Local\Temp/_gbstools/gbdk/lib/gb/gb.lib
                                          [ metasprites.o ]
C:\Users\f_bes\AppData\Local\Temp/_gbstools/gbdk/lib/sm83/sm83.lib
                                          [ __sdcc_call_hl.o ]
C:\Users\f_bes\AppData\Local\Temp/_gbstools/gbdk/lib/sm83/sm83.lib
                                          [ memcpy.o ]
C:\Users\f_bes\AppData\Local\Temp/_gbstools/gbdk/lib/sm83/sm83.lib
                                          [ _memset.o ]
C:\Users\f_bes\AppData\Local\Temp/_gbstools/gbdk/lib/gb/gb.lib
                                          [ set_xy_t.o ]
C:\Users\f_bes\AppData\Local\Temp/_gbstools/gbdk/lib/gb/gb.lib
                                          [ ___sdcc_bcall_ehl.o ]
C:\Users\f_bes\AppData\Local\Temp/_gbstools/gbdk/lib/gb/gb.lib
                                          [ cgb.o ]
C:\Users\f_bes\AppData\Local\Temp/_gbstools/gbdk/lib/sm83/sm83.lib
                                          [ div.o ]
C:\Users\f_bes\AppData\Local\Temp/_gbstools/gbdk/lib/gb/gb.lib
                                          [ set_bk_t.o ]

ASxxxx Linker V03.00/V05.40 + sdld,  page 140.

User Base Address Definitions

_DATA=0xC0A0
_CODE=0x0200
ASxxxx Linker V03.00/V05.40 + sdld,  page 141.

User Global Definitions

.STACK=0xDF00
_shadow_OAM=0xC000
.refresh_OAM=0xFF80
__start_save=60

