ASxxxx Linker V03.00/V05.40 + sdld,  page 1.
Hexadecimal  [32-Bits]

Area                                    Addr        Size        Decimal Bytes (Attributes)
--------------------------------        ----        ----        ------- ----- ------------
.  .ABS.                            00000000    00000000 =           0. bytes (ABS,CON)

      Value  Global                              Global Defined In Module
      -----  --------------------------------   ------------------------
     00000000  .__.ABS.                           
     00000000  _rRAMG                             
     00000000  l__BASE                         
     00000000  l__BSS                          
     00000000  l__CABS                         
     00000000  l__CODE_0                       
     00000000  l__CRASH_HEADER                 
     00000000  l__CRASH_SCRATCH                
     00000000  l__DABS                         
     00000000  l__HEADER                       
     00000000  l__HEADER_LCD                   
     00000000  l__HEADER_SIO                   
     00000000  l__HEADER_TIMER                 
     00000000  l__HEAP                         
     00000000  l__HEAP_END                     
     00000000  l__HRAM                         
     00000000  l__LIT                          
     00000000  s__CABS                         
     00000000  s__CRASH_HEADER                 
     00000000  s__CRASH_HEADER0                
     00000000  s__CRASH_HEADER1                
     00000000  s__CRASH_SCRATCH                
     00000000  s__CRASH_SCRATCH2               
     00000000  s__DABS                         
     00000000  s__HEADER                       
     00000000  s__HEADER0                      
     00000000  s__HEADER1                      
     00000000  s__HEADER10                     
     00000000  s__HEADER11                     
     00000000  s__HEADER2                      
     00000000  s__HEADER3                      
     00000000  s__HEADER4                      
     00000000  s__HEADER5                      
     00000000  s__HEADER6                      
     00000000  s__HEADER7                      
     00000000  s__HEADER8                      
     00000000  s__HEADER9                      
     00000000  s__HEADER_LCD                   
     00000000  s__HEADER_LCD0                  
     00000000  s__HEADER_SIO                   
     00000000  s__HEADER_SIO0                  
     00000000  s__HEADER_TIMER                 
     00000000  s__HEADER_TIMER0                
     00000000  s__HEADERa                      
     00000000  s__HEADERb                      
     00000000  s__HEADERc                      
     00000000  s__HEADERd                      
     00000000  s__HEADERe                      
     00000000  s__HEADERf                      
     00000000  s__HRAM                         
ASxxxx Linker V03.00/V05.40 + sdld,  page 2.
Hexadecimal  [32-Bits]

Area                                    Addr        Size        Decimal Bytes (Attributes)
--------------------------------        ----        ----        ------- ----- ------------
.  .ABS.                            00000000    00000000 =           0. bytes (ABS,CON)

      Value  Global                              Global Defined In Module
      -----  --------------------------------   ------------------------
     00000000  s__HRAM12                       
     00000001  ___bank_VM_SGB                     vm_sgb
     00000001  ___bank_bg_3_tilemap_attr          bg_3_tilemap_attr
     00000001  ___bank_bg_city2_tileset           bg_city2_tileset
     00000001  ___bank_sprite_new_piskel_1_png    sprite_new_piskel_1_png
     00000001  b_ui_draw_frame                    ui
     00000001  b_ui_draw_text_buffer_char         ui
     00000001  b_ui_init                          ui
     00000001  b_ui_load_tiles                    ui
     00000001  b_ui_run_menu                      ui
     00000001  b_ui_run_modal                     ui
     00000001  b_ui_set_start_tile                ui
     00000001  l__GSFINAL                      
     00000001  l__HEADER0                      
     00000001  l__HEADER5                      
     00000001  l__HEADERa                      
     00000001  l__HEADERb                      
     00000001  l__HEADERc                      
     00000001  l__HEADERe                      
     00000001  l__HEADERf                      
     00000002  ___bank_script_input_3             script_input_3
     00000002  ___bank_song_song_template_Data    song_song_template_Data
     00000002  ___bank_sprite_room2_tileset       sprite_room2_tileset
     00000002  l__HEADER10                     
     00000002  l__HEADER6                      
     00000002  l__HEADERd                      
     00000003  ___bank_VM_MUSIC                   vm_music
     00000003  ___bank_bg_3_tilemap               bg_3_tilemap
     00000003  ___bank_scene_44_sprites           scene_44_sprites
     00000003  ___bank_song_the_real_door_Data    song_the_real_door_Data
     00000003  b_vm_music_mute                    vm_music
     00000003  b_vm_music_play                    vm_music
     00000003  b_vm_music_routine                 vm_music
     00000003  b_vm_music_setpos                  vm_music
     00000003  b_vm_music_stop                    vm_music
     00000003  b_vm_sfx_play                      vm_music
     00000003  b_vm_sound_mastervol               vm_music
     00000003  l__HEADER9                      
     00000003  l__HEADER_LCD0                  
     00000003  l__HRAM12                       
     00000004  ___bank_bg_legend4_tilemap_attr    bg_legend4_tilemap_attr
     00000004  ___bank_scene_14_collisions        scene_14_collisions
     00000004  ___bank_song_susie_Data            song_susie_Data
     00000004  l__CRASH_HEADER1                
     00000004  l__HEADER_SIO0                  
     00000004  l__HEADER_TIMER0                
     00000005  ___bank_bg_4_tilemap_attr          bg_4_tilemap_attr
     00000005  ___bank_song_beginning_Data        song_beginning_Data
     00000005  ___bank_trigger_15_interact        trigger_15_interact
     00000005  l__CRASH_HEADER0                
     00000005  l__HEADER1                      
ASxxxx Linker V03.00/V05.40 + sdld,  page 3.
Hexadecimal  [32-Bits]

Area                                    Addr        Size        Decimal Bytes (Attributes)
--------------------------------        ----        ----        ------- ----- ------------
.  .ABS.                            00000000    00000000 =           0. bytes (ABS,CON)

      Value  Global                              Global Defined In Module
      -----  --------------------------------   ------------------------
     00000006  ___bank_bg_4_tilemap               bg_4_tilemap
     00000006  ___bank_song_savetransfer_Data     song_savetransfer_Data
     00000006  b_CGBZeroPalette                   palette
     00000006  b_palette_init                     palette
     00000006  l__HEADER8                      
     00000007  ___bank_scene_13_sprites           scene_13_sprites
     00000007  ___bank_scene_25_collisions        scene_25_collisions
     00000007  ___bank_song_school_Data           song_school_Data
     00000007  b_gbprinter_detect                 gbprinter
     00000007  b_gbprinter_print_overlay          gbprinter
     00000007  l__HEADER2                      
     00000008  ___bank_actor_33_interact          actor_33_interact
     00000008  ___bank_scene_14_sprites           scene_14_sprites
     00000008  ___bank_scene_65_init              scene_65_init
     00000008  ___bank_song_lancervsvr_Data       song_lancervsvr_Data
     00000008  ___mute_mask_sound_legacy_0        sound_legacy_0
     00000008  ___mute_mask_sound_legacy_0_0      sound_legacy_0_0
     00000008  ___mute_mask_sound_legacy_0_1      sound_legacy_0_1
     00000008  ___mute_mask_sound_legacy_0_2      sound_legacy_0_2
     00000008  l__HEADER3                      
     00000009  ___bank_actor_84_interact          actor_84_interact
     00000009  ___bank_font_gbsmono20             font_gbsmono20
     00000009  ___bank_song_anothergameover_Dat   song_anothergameover_Data
     00000009  ___bank_song_song_template_0_Dat   song_song_template_0_Data
     0000000A  ___bank_script_3                   script_3
     0000000A  ___bank_script_3_0                 script_3_0
     0000000A  ___bank_song_emptytown_Data        song_emptytown_Data
     0000000A  ___bank_sprite_image_tileset       sprite_image_tileset
     0000000B  ___bank_ACTOR                      actor
     0000000B  ___bank_VM_ACTOR                   vm_actor
     0000000B  ___bank_bg_9_tilemap_attr          bg_9_tilemap_attr
     0000000B  ___bank_bg_worldddd_tileset        bg_worldddd_tileset
     0000000B  b_activate_actor                   actor
     0000000B  b_activate_actors_in_col           actor
     0000000B  b_activate_actors_in_row           actor
     0000000B  b_actor_at_tile                    actor
     0000000B  b_actor_get_frame_offset           actor
     0000000B  b_actor_in_front_of_player         actor
     0000000B  b_actor_overlapping_bb             actor
     0000000B  b_actor_overlapping_player         actor
     0000000B  b_actor_set_anim_idle              actor
     0000000B  b_actor_set_anim_moving            actor
     0000000B  b_actor_set_dir                    actor
     0000000B  b_actor_set_frame_offset           actor
     0000000B  b_actor_set_frames                 actor
     0000000B  b_actors_handle_player_collision   actor
     0000000B  b_actors_init                      actor
     0000000B  b_check_collision_in_direction     actor
     0000000B  b_deactivate_actor                 actor
     0000000B  b_player_init                      actor
     0000000B  b_vm_actor_activate                vm_actor
ASxxxx Linker V03.00/V05.40 + sdld,  page 4.
Hexadecimal  [32-Bits]

Area                                    Addr        Size        Decimal Bytes (Attributes)
--------------------------------        ----        ----        ------- ----- ------------
.  .ABS.                            00000000    00000000 =           0. bytes (ABS,CON)

      Value  Global                              Global Defined In Module
      -----  --------------------------------   ------------------------
     0000000B  b_vm_actor_begin_update            vm_actor
     0000000B  b_vm_actor_deactivate              vm_actor
     0000000B  b_vm_actor_emote                   vm_actor
     0000000B  b_vm_actor_get_angle               vm_actor
     0000000B  b_vm_actor_get_anim_frame          vm_actor
     0000000B  b_vm_actor_get_dir                 vm_actor
     0000000B  b_vm_actor_get_pos                 vm_actor
     0000000B  b_vm_actor_move_cancel             vm_actor
     0000000B  b_vm_actor_move_to                 vm_actor
     0000000B  b_vm_actor_replace_tile            vm_actor
     0000000B  b_vm_actor_set_anim                vm_actor
     0000000B  b_vm_actor_set_anim_frame          vm_actor
     0000000B  b_vm_actor_set_anim_set            vm_actor
     0000000B  b_vm_actor_set_anim_tick           vm_actor
     0000000B  b_vm_actor_set_bounds              vm_actor
     0000000B  b_vm_actor_set_dir                 vm_actor
     0000000B  b_vm_actor_set_flags               vm_actor
     0000000B  b_vm_actor_set_move_speed          vm_actor
     0000000B  b_vm_actor_set_pos                 vm_actor
     0000000B  b_vm_actor_set_spritesheet         vm_actor
     0000000B  b_vm_actor_set_spritesheet_by_re   vm_actor
     0000000B  b_vm_actor_terminate_update        vm_actor
     0000000C  ___bank_bg_8_tilemap               bg_8_tilemap
     0000000C  ___bank_bg_8_tilemap_attr          bg_8_tilemap_attr
     0000000C  ___bank_bg_9_tilemap               bg_9_tilemap
     0000000C  ___bank_scene_61_collisions        scene_61_collisions
     0000000C  b_erase_flash                      
     0000000C  b_save_sram_banks                  
     0000000D  ___bank_VM_MAIN                    vm
     0000000D  ___bank_bg_chamberkriso2_tileset   bg_chamberkriso2_tileset
     0000000D  ___bank_font_gbs_mono              font_gbs_mono
     0000000D  ___bank_font_gbs_mono_copie        font_gbs_mono_copie
     0000000D  ___bank_scene_28_sprites           scene_28_sprites
     0000000D  ___bank_scene_60_collisions        scene_60_collisions
     0000000D  b_script_detach_hthread            vm
     0000000D  b_script_execute                   vm
     0000000D  b_script_runner_init               vm
     0000000D  b_script_terminate                 vm
     0000000D  b_vm_call                          vm
     0000000D  b_vm_call_far                      vm
     0000000D  b_vm_get_indirect                  vm
     0000000D  b_vm_get_tlocal                    vm
     0000000D  b_vm_idle                          vm
     0000000D  b_vm_if                            vm
     0000000D  b_vm_if_const                      vm
     0000000D  b_vm_init_rng                      vm
     0000000D  b_vm_invoke                        vm
     0000000D  b_vm_join                          vm
     0000000D  b_vm_jump                          vm
     0000000D  b_vm_lock                          vm
     0000000D  b_vm_loop                          vm
ASxxxx Linker V03.00/V05.40 + sdld,  page 5.
Hexadecimal  [32-Bits]

Area                                    Addr        Size        Decimal Bytes (Attributes)
--------------------------------        ----        ----        ------- ----- ------------
.  .ABS.                            00000000    00000000 =           0. bytes (ABS,CON)

      Value  Global                              Global Defined In Module
      -----  --------------------------------   ------------------------
     0000000D  b_vm_memcpy                        vm
     0000000D  b_vm_memset                        vm
     0000000D  b_vm_poll_loaded                   vm
     0000000D  b_vm_pop                           vm
     0000000D  b_vm_push                          vm
     0000000D  b_vm_push_reference                vm
     0000000D  b_vm_push_value                    vm
     0000000D  b_vm_push_value_ind                vm
     0000000D  b_vm_raise                         vm
     0000000D  b_vm_rand                          vm
     0000000D  b_vm_reserve                       vm
     0000000D  b_vm_ret                           vm
     0000000D  b_vm_ret_far                       vm
     0000000D  b_vm_set                           vm
     0000000D  b_vm_set_const                     vm
     0000000D  b_vm_set_indirect                  vm
     0000000D  b_vm_terminate                     vm
     0000000D  b_vm_test_terminate                vm
     0000000D  b_vm_unlock                        vm
     0000000D  b_wait_frames                      vm
     0000000E  ___bank_bg_room_tileset            bg_room_tileset
     0000000E  ___bank_bg_schoolint_tileset       bg_schoolint_tileset
     0000000E  ___bank_font_gbs_portrait          font_gbs_portrait
     0000000E  ___bank_font_gbs_portrait_copie    font_gbs_portrait_copie
     0000000E  ___bank_scene_13_triggers          scene_13_triggers
     0000000E  ___bank_song_anotherhim_Data       song_anotherhim_Data
     0000000F  ___bank_bg_exterior_tileset        bg_exterior_tileset
     0000000F  ___bank_bg_kris_s_tileset          bg_kris_s_tileset
     0000000F  ___bank_bg_kris_ss_tileset         bg_kris_ss_tileset
     0000000F  ___bank_bg_secoundfountain_tiles   bg_secoundfountain_tileset
     0000000F  ___bank_bg_thetle_tileset          bg_thetle_tileset
     0000000F  b_projectile_launch                projectiles
     0000000F  b_projectiles_init                 projectiles
     0000000F  b_remove_LCD_ISRs                  interrupts
     00000010  ___bank_bg_fountaincastle_tilese   bg_fountaincastle_tileset
     00000010  ___bank_bg_legend4_tileset         bg_legend4_tileset
     00000010  ___bank_bg_ralseilegend_tileset    bg_ralseilegend_tileset
     00000010  ___bank_bg_schoolcorridor1_tiles   bg_schoolcorridor1_tileset
     00000010  ___bank_bg_the_castle_copie_tile   bg_the_castle_copie_tileset
     00000010  ___bank_scene_13_init              scene_13_init
     00000010  ___bank_scene_56_sprites           scene_56_sprites
     00000011  ___bank_bg_9_1__tilemap            bg_9_1__tilemap
     00000011  ___bank_bg_9_1__tilemap_attr       bg_9_1__tilemap_attr
     00000011  ___bank_bg_gameover_tileset        bg_gameover_tileset
     00000011  ___bank_bg_quelesttonnom_tileset   bg_quelesttonnom_tileset
     00000011  ___bank_bg_schoolext_tileset       bg_schoolext_tileset
     00000011  ___bank_scene_62_collisions        scene_62_collisions
     00000011  b_music_events_poll                music_manager
     00000011  b_music_init_driver                music_manager
     00000011  b_music_init_events                music_manager
     00000012  ___bank_actor_62_interact          actor_62_interact
ASxxxx Linker V03.00/V05.40 + sdld,  page 6.
Hexadecimal  [32-Bits]

Area                                    Addr        Size        Decimal Bytes (Attributes)
--------------------------------        ----        ----        ------- ----- ------------
.  .ABS.                            00000000    00000000 =           0. bytes (ABS,CON)

      Value  Global                              Global Defined In Module
      -----  --------------------------------   ------------------------
     00000012  ___bank_bg_krislegend_tileset      bg_krislegend_tileset
     00000012  ___bank_bg_legend2_tileset         bg_legend2_tileset
     00000012  ___bank_bg_legend5d_tileset        bg_legend5d_tileset
     00000012  ___bank_song_fallinggg_Data        song_fallinggg_Data
     00000012  ___bank_song_song_templateffrzre   song_song_templateffrzref_Da
     00000012  ___bank_trigger_0_interact         trigger_0_interact
     00000012  b_do_load_palette                  data_manager
     00000012  b_load_background                  data_manager
     00000012  b_load_bkg_tileset                 data_manager
     00000012  b_load_bounds                      data_manager
     00000012  b_load_emote                       data_manager
     00000012  b_load_init                        data_manager
     00000012  b_load_player                      data_manager
     00000012  b_load_scene                       data_manager
     00000012  b_load_sprite                      data_manager
     00000013  ___bank_actor_52_interact          actor_52_interact
     00000013  ___bank_bg_city1_tileset           bg_city1_tileset
     00000013  ___bank_bg_legend1d_tileset        bg_legend1d_tileset
     00000013  ___bank_bg_schoolcorridor1_tilem   bg_schoolcorridor1_tilemap
     00000013  ___bank_bg_schoolcorridor1_tilem   bg_schoolcorridor1_tilemap_a
     00000013  ___bank_bg_susielegend_tileset     bg_susielegend_tileset
     00000013  ___bank_bg_toilet2_tileset         bg_toilet2_tileset
     00000013  ___bank_scene_13_collisions        scene_13_collisions
     00000013  ___bank_scene_42_init              scene_42_init
     00000014  ___bank_VM_UI                      vm_ui
     00000014  ___bank_bg_avcclaude_tileset       bg_avcclaude_tileset
     00000014  ___bank_bg_dogchecksavedata_tile   bg_dogchecksavedata_tileset
     00000014  ___bank_bg_legendsealfountain_ti   bg_legendsealfountain_tilese
     00000014  ___bank_bg_quelesttonnom_copie_t   bg_quelesttonnom_copie_tiles
     00000014  ___bank_bg_untitled_tileset        bg_untitled_tileset
     00000014  ___bank_script_5                   script_5
     00000014  ___bank_script_5_0                 script_5_0
     00000014  ___bank_sound_legacy_0_0           sound_legacy_0_0
     00000014  b_scroll_init                      scroll
     00000014  b_scroll_repaint                   scroll
     00000014  b_scroll_reset                     scroll
     00000014  b_scroll_update                    scroll
     00000014  b_vm_choice                        vm_ui
     00000014  b_vm_display_text                  vm_ui
     00000014  b_vm_overlay_clear                 vm_ui
     00000014  b_vm_overlay_move_to               vm_ui
     00000014  b_vm_overlay_scroll                vm_ui
     00000014  b_vm_overlay_set_map               vm_ui
     00000014  b_vm_overlay_set_scroll            vm_ui
     00000014  b_vm_overlay_set_submap            vm_ui
     00000014  b_vm_overlay_set_submap_ex         vm_ui
     00000014  b_vm_overlay_setpos                vm_ui
     00000014  b_vm_overlay_show                  vm_ui
     00000014  b_vm_overlay_wait                  vm_ui
     00000014  b_vm_set_font                      vm_ui
     00000014  b_vm_set_text_sound                vm_ui
ASxxxx Linker V03.00/V05.40 + sdld,  page 7.
Hexadecimal  [32-Bits]

Area                                    Addr        Size        Decimal Bytes (Attributes)
--------------------------------        ----        ----        ------- ----- ------------
.  .ABS.                            00000000    00000000 =           0. bytes (ABS,CON)

      Value  Global                              Global Defined In Module
      -----  --------------------------------   ------------------------
     00000014  b_vm_switch_text_layer             vm_ui
     00000015  ___bank_VM_GAMEBOY                 vm_gameboy
     00000015  ___bank_bg_3_tileset               bg_3_tileset
     00000015  ___bank_bg_4_tileset               bg_4_tileset
     00000015  ___bank_bg_5_tileset               bg_5_tileset
     00000015  ___bank_bg_8_tileset               bg_8_tileset
     00000015  ___bank_bg_dogchecksavedata_copi   bg_dogchecksavedata_copie_ti
     00000015  ___bank_bg_legend6d_tileset        bg_legend6d_tileset
     00000015  ___bank_bg_toilet_tileset          bg_toilet_tileset
     00000015  ___bank_scene_29_init              scene_29_init
     00000015  b_topdown_init                     topdown
     00000015  b_topdown_update                   topdown
     00000015  b_vm_context_prepare               vm_gameboy
     00000015  b_vm_fade                          vm_gameboy
     00000015  b_vm_get_tile_xy                   vm_gameboy
     00000015  b_vm_input_attach                  vm_gameboy
     00000015  b_vm_input_detach                  vm_gameboy
     00000015  b_vm_input_get                     vm_gameboy
     00000015  b_vm_input_wait                    vm_gameboy
     00000015  b_vm_load_tileset                  vm_gameboy
     00000015  b_vm_poll                          vm_gameboy
     00000015  b_vm_replace_tile                  vm_gameboy
     00000015  b_vm_replace_tile_xy               vm_gameboy
     00000015  b_vm_rumble                        vm_gameboy
     00000015  b_vm_set_sprite_mode               vm_gameboy
     00000015  b_vm_set_sprites_visible           vm_gameboy
     00000015  b_vm_timer_prepare                 vm_gameboy
     00000015  b_vm_timer_reset                   vm_gameboy
     00000015  b_vm_timer_set                     vm_gameboy
     00000015  b_vm_timer_stop                    vm_gameboy
     00000016  ___bank_bg_10_tilemap              bg_10_tilemap
     00000016  ___bank_bg_10_tilemap_attr         bg_10_tilemap_attr
     00000016  ___bank_bg_6_1__tilemap            bg_6_1__tilemap
     00000016  ___bank_bg_6_1__tilemap_attr       bg_6_1__tilemap_attr
     00000016  ___bank_bg_6_tilemap               bg_6_tilemap
     00000016  ___bank_bg_6_tilemap_attr          bg_6_tilemap_attr
     00000016  ___bank_scene_28_init              scene_28_init
     00000016  ___bank_scene_57_collisions        scene_57_collisions
     00000016  ___bank_scene_58_collisions        scene_58_collisions
     00000016  ___bank_scene_63_collisions        scene_63_collisions
     00000016  ___bank_script_11                  script_11
     00000016  b_atan2                            math_atan2
     00000017  ___bank_bg_7_tilemap               bg_7_tilemap
     00000017  ___bank_bg_7_tilemap_attr          bg_7_tilemap_attr
     00000017  ___bank_bg_7_tileset               bg_7_tileset
     00000017  ___bank_bg_9_tileset               bg_9_tileset
     00000017  ___bank_bg_b0027_copie_tileset     bg_b0027_copie_tileset
     00000017  ___bank_bg_legend3_tileset         bg_legend3_tileset
     00000017  ___bank_bg_legend7f_tileset        bg_legend7f_tileset
     00000017  ___bank_bg_worldddd_tilemap        bg_worldddd_tilemap
     00000017  ___bank_bg_worldddd_tilemap_attr   bg_worldddd_tilemap_attr
ASxxxx Linker V03.00/V05.40 + sdld,  page 8.
Hexadecimal  [32-Bits]

Area                                    Addr        Size        Decimal Bytes (Attributes)
--------------------------------        ----        ----        ------- ----- ------------
.  .ABS.                            00000000    00000000 =           0. bytes (ABS,CON)

      Value  Global                              Global Defined In Module
      -----  --------------------------------   ------------------------
     00000017  ___bank_bg_worldddddark_tileset    bg_worldddddark_tileset
     00000017  ___bank_scene_24_init              scene_24_init
     00000017  ___bank_scene_59_collisions        scene_59_collisions
     00000017  ___bank_script_engine_init         
     00000018  ___bank_bg_black_tileset           bg_black_tileset
     00000018  ___bank_bg_blackdoor_tilemap       bg_blackdoor_tilemap
     00000018  ___bank_bg_blackdoor_tilemap_att   bg_blackdoor_tilemap_attr
     00000018  ___bank_bg_dogchecksavedata_copi   bg_dogchecksavedata_copie_0_
     00000018  ___bank_bg_worldddddark_tilemap    bg_worldddddark_tilemap
     00000018  ___bank_bg_worldddddark_tilemap_   bg_worldddddark_tilemap_attr
     00000018  ___bank_scene_32_collisions        scene_32_collisions
     00000018  ___bank_scene_46_collisions        scene_46_collisions
     00000018  ___bank_scene_47_collisions        scene_47_collisions
     00000018  ___bank_scene_51_collisions        scene_51_collisions
     00000018  ___bank_script_2_0                 script_2_0
     00000018  ___bank_sprite_room2_tilemap       sprite_room2_tilemap
     00000018  ___bank_sprite_room2_tilemap_att   sprite_room2_tilemap_attr
     00000018  b_core_reset                       core
     00000018  b_core_run                         core
     00000019  ___bank_VM_CAMERA                  vm_camera
     00000019  ___bank_bg_10_tileset              bg_10_tileset
     00000019  ___bank_bg_2_tilemap               bg_2_tilemap
     00000019  ___bank_bg_2_tilemap_attr          bg_2_tilemap_attr
     00000019  ___bank_bg_2_tileset               bg_2_tileset
     00000019  ___bank_bg_castle_town_map2_tile   bg_castle_town_map2_tilemap
     00000019  ___bank_bg_castle_town_map2_tile   bg_castle_town_map2_tilemap_
     00000019  ___bank_bg_untitled_tilemap        bg_untitled_tilemap
     00000019  ___bank_bg_untitled_tilemap_attr   bg_untitled_tilemap_attr
     00000019  ___bank_scene_54_collisions        scene_54_collisions
     00000019  ___bank_scene_55_collisions        scene_55_collisions
     00000019  ___bank_scene_64_collisions        scene_64_collisions
     00000019  ___bank_script_2                   script_2
     00000019  ___bank_script_7                   script_7
     00000019  ___bank_script_input               script_input
     00000019  ___bank_trigger_11_interact        trigger_11_interact
     00000019  b_camera_shake_frames              vm_camera
     00000019  b_data_clear                       load_save
     00000019  b_data_init                        load_save
     00000019  b_data_load                        load_save
     00000019  b_data_peek                        load_save
     00000019  b_data_save                        load_save
     00000019  b_trigger_activate_at              trigger
     00000019  b_trigger_activate_at_intersecti   trigger
     00000019  b_trigger_at_intersection          trigger
     00000019  b_trigger_at_tile                  trigger
     00000019  b_trigger_interact                 trigger
     00000019  b_trigger_reset                    trigger
     00000019  b_vm_camera_move_to                vm_camera
     00000019  b_vm_camera_set_pos                vm_camera
     00000019  l__INITIALIZED                  
     00000019  l__INITIALIZER                  
ASxxxx Linker V03.00/V05.40 + sdld,  page 9.
Hexadecimal  [32-Bits]

Area                                    Addr        Size        Decimal Bytes (Attributes)
--------------------------------        ----        ----        ------- ----- ------------
.  .ABS.                            00000000    00000000 =           0. bytes (ABS,CON)

      Value  Global                              Global Defined In Module
      -----  --------------------------------   ------------------------
     0000001A  ___bank_VM_SIO                     vm_sio
     0000001A  ___bank_bg_b0027_copie_tilemap     bg_b0027_copie_tilemap
     0000001A  ___bank_bg_b0027_copie_tilemap_a   bg_b0027_copie_tilemap_attr
     0000001A  ___bank_bg_castle_town_tileset     bg_castle_town_tileset
     0000001A  ___bank_bg_gameover_tilemap        bg_gameover_tilemap
     0000001A  ___bank_bg_gameover_tilemap_attr   bg_gameover_tilemap_attr
     0000001A  ___bank_bg_kris_s_tilemap          bg_kris_s_tilemap
     0000001A  ___bank_bg_kris_s_tilemap_attr     bg_kris_s_tilemap_attr
     0000001A  ___bank_bg_legend2_tilemap         bg_legend2_tilemap
     0000001A  ___bank_bg_legend2_tilemap_attr    bg_legend2_tilemap_attr
     0000001A  ___bank_bg_schoolint_tilemap       bg_schoolint_tilemap
     0000001A  ___bank_bg_schoolint_tilemap_att   bg_schoolint_tilemap_attr
     0000001A  ___bank_bg_title_tileset           bg_title_tileset
     0000001A  ___bank_scene_11_init              scene_11_init
     0000001A  ___bank_scene_28_collisions        scene_28_collisions
     0000001A  ___bank_scene_29_collisions        scene_29_collisions
     0000001A  ___bank_scene_30_collisions        scene_30_collisions
     0000001A  ___bank_scene_33_collisions        scene_33_collisions
     0000001A  ___bank_scene_45_collisions        scene_45_collisions
     0000001A  ___bank_scene_4_collisions         scene_4_collisions
     0000001A  b___HandleCrash_banked             
     0000001A  b_pointnclick_init                 pointnclick
     0000001A  b_pointnclick_update               pointnclick
     0000001A  b_vm_sio_exchange                  vm_sio
     0000001A  b_vm_sio_set_mode                  vm_sio
     0000001B  ___bank_actor_3_interact           actor_3_interact
     0000001B  ___bank_actor_55_interact          actor_55_interact
     0000001B  ___bank_actor_59_interact          actor_59_interact
     0000001B  ___bank_actor_78_interact          actor_78_interact
     0000001B  ___bank_actor_79_interact          actor_79_interact
     0000001B  ___bank_bg_5_tilemap               bg_5_tilemap
     0000001B  ___bank_bg_5_tilemap_attr          bg_5_tilemap_attr
     0000001B  ___bank_bg_6_tileset               bg_6_tileset
     0000001B  ___bank_bg_city2_tilemap           bg_city2_tilemap
     0000001B  ___bank_bg_city2_tilemap_attr      bg_city2_tilemap_attr
     0000001B  ___bank_bg_exterior_tilemap        bg_exterior_tilemap
     0000001B  ___bank_bg_exterior_tilemap_attr   bg_exterior_tilemap_attr
     0000001B  ___bank_bg_kris_ss_tilemap         bg_kris_ss_tilemap
     0000001B  ___bank_bg_kris_ss_tilemap_attr    bg_kris_ss_tilemap_attr
     0000001B  ___bank_bg_legend7f_tilemap        bg_legend7f_tilemap
     0000001B  ___bank_bg_legend7f_tilemap_attr   bg_legend7f_tilemap_attr
     0000001B  ___bank_scene_12_init              scene_12_init
     0000001B  ___bank_scene_32_actors            scene_32_actors
     0000001B  ___bank_scene_34_collisions        scene_34_collisions
     0000001B  ___bank_scene_37_collisions        scene_37_collisions
     0000001B  ___bank_scene_40_collisions        scene_40_collisions
     0000001B  ___bank_scene_51_init              scene_51_init
     0000001B  ___bank_scene_56_collisions        scene_56_collisions
     0000001B  ___bank_scene_9_collisions         scene_9_collisions
     0000001B  ___bank_sprite_susiehs_copie_til   sprite_susiehs_copie_tileset
     0000001B  ___bank_trigger_16_interact        trigger_16_interact
ASxxxx Linker V03.00/V05.40 + sdld,  page 10.
Hexadecimal  [32-Bits]

Area                                    Addr        Size        Decimal Bytes (Attributes)
--------------------------------        ----        ----        ------- ----- ------------
.  .ABS.                            00000000    00000000 =           0. bytes (ABS,CON)

      Value  Global                              Global Defined In Module
      -----  --------------------------------   ------------------------
     0000001B  b_fade_applypalettechange          fade_manager
     0000001B  b_fade_in                          fade_manager
     0000001B  b_fade_in_modal                    fade_manager
     0000001B  b_fade_init                        fade_manager
     0000001B  b_fade_out                         fade_manager
     0000001B  b_fade_out_modal                   fade_manager
     0000001B  b_fade_setspeed                    fade_manager
     0000001B  b_fade_update                      fade_manager
     0000001C  ___bank_bg_castle_town_tilemap     bg_castle_town_tilemap
     0000001C  ___bank_bg_castle_town_tilemap_a   bg_castle_town_tilemap_attr
     0000001C  ___bank_bg_dogchecksavedata_copi   bg_dogchecksavedata_copie_0_
     0000001C  ___bank_bg_dogchecksavedata_copi   bg_dogchecksavedata_copie_0_
     0000001C  ___bank_bg_fountaincastle_tilema   bg_fountaincastle_tilemap
     0000001C  ___bank_bg_fountaincastle_tilema   bg_fountaincastle_tilemap_at
     0000001C  ___bank_bg_legend5d_tilemap        bg_legend5d_tilemap
     0000001C  ___bank_bg_legend5d_tilemap_attr   bg_legend5d_tilemap_attr
     0000001C  ___bank_bg_legendsealfountain_ti   bg_legendsealfountain_tilema
     0000001C  ___bank_bg_legendsealfountain_ti   bg_legendsealfountain_tilema
     0000001C  ___bank_bg_quelesttonnom_copie_t   bg_quelesttonnom_copie_tilem
     0000001C  ___bank_bg_room_tilemap            bg_room_tilemap
     0000001C  ___bank_bg_room_tilemap_attr       bg_room_tilemap_attr
     0000001C  ___bank_bg_secoundfountain_tilem   bg_secoundfountain_tilemap
     0000001C  ___bank_bg_secoundfountain_tilem   bg_secoundfountain_tilemap_a
     0000001C  ___bank_bg_title_tilemap           bg_title_tilemap
     0000001C  ___bank_bg_title_tilemap_attr      bg_title_tilemap_attr
     0000001C  ___bank_scene_0_collisions         scene_0_collisions
     0000001C  ___bank_scene_10_collisions        scene_10_collisions
     0000001C  ___bank_scene_10_init              scene_10_init
     0000001C  ___bank_scene_1_collisions         scene_1_collisions
     0000001C  ___bank_scene_26_init              scene_26_init
     0000001C  ___bank_scene_2_collisions         scene_2_collisions
     0000001C  ___bank_scene_37_init              scene_37_init
     0000001C  ___bank_scene_3_collisions         scene_3_collisions
     0000001C  ___bank_scene_49_collisions        scene_49_collisions
     0000001C  ___bank_scene_65_collisions        scene_65_collisions
     0000001C  ___bank_scene_67_collisions        scene_67_collisions
     0000001C  ___bank_script_0                   script_0
     0000001C  ___bank_script_0_0                 script_0_0
     0000001C  ___bank_sprite_toriel_tileset      sprite_toriel_tileset
     0000001C  b_set_sgb_border                   sgb_border
     0000001D  ___bank_VM_PALETTE                 vm_palette
     0000001D  ___bank_actor_17_interact          actor_17_interact
     0000001D  ___bank_actor_18_interact          actor_18_interact
     0000001D  ___bank_actor_19_interact          actor_19_interact
     0000001D  ___bank_actor_73_interact          actor_73_interact
     0000001D  ___bank_actor_85_interact          actor_85_interact
     0000001D  ___bank_bg_avcclaude_tilemap       bg_avcclaude_tilemap
     0000001D  ___bank_bg_avcclaude_tilemap_att   bg_avcclaude_tilemap_attr
     0000001D  ___bank_bg_castle_town_map2_tile   bg_castle_town_map2_tileset
     0000001D  ___bank_bg_chamberkriso2_tilemap   bg_chamberkriso2_tilemap_att
     0000001D  ___bank_bg_city1_tilemap           bg_city1_tilemap
ASxxxx Linker V03.00/V05.40 + sdld,  page 11.
Hexadecimal  [32-Bits]

Area                                    Addr        Size        Decimal Bytes (Attributes)
--------------------------------        ----        ----        ------- ----- ------------
.  .ABS.                            00000000    00000000 =           0. bytes (ABS,CON)

      Value  Global                              Global Defined In Module
      -----  --------------------------------   ------------------------
     0000001D  ___bank_bg_city1_tilemap_attr      bg_city1_tilemap_attr
     0000001D  ___bank_bg_dogchecksavedata_copi   bg_dogchecksavedata_copie_ti
     0000001D  ___bank_bg_dogchecksavedata_copi   bg_dogchecksavedata_copie_ti
     0000001D  ___bank_bg_dogchecksavedata_tile   bg_dogchecksavedata_tilemap
     0000001D  ___bank_bg_dogchecksavedata_tile   bg_dogchecksavedata_tilemap_
     0000001D  ___bank_bg_legend3_tilemap         bg_legend3_tilemap
     0000001D  ___bank_bg_legend3_tilemap_attr    bg_legend3_tilemap_attr
     0000001D  ___bank_bg_new_piskel_43__tilese   bg_new_piskel_43__tileset
     0000001D  ___bank_bg_quelesttonnom_copie_t   bg_quelesttonnom_copie_tilem
     0000001D  ___bank_bg_quelesttonnom_tilemap   bg_quelesttonnom_tilemap
     0000001D  ___bank_bg_quelesttonnom_tilemap   bg_quelesttonnom_tilemap_att
     0000001D  ___bank_bg_schoolext_tilemap       bg_schoolext_tilemap
     0000001D  ___bank_bg_schoolext_tilemap_att   bg_schoolext_tilemap_attr
     0000001D  ___bank_scene_11_collisions        scene_11_collisions
     0000001D  ___bank_scene_12_collisions        scene_12_collisions
     0000001D  ___bank_scene_21_actors            scene_21_actors
     0000001D  ___bank_scene_23_collisions        scene_23_collisions
     0000001D  ___bank_scene_24_collisions        scene_24_collisions
     0000001D  ___bank_scene_25_sprites           scene_25_sprites
     0000001D  ___bank_scene_26_collisions        scene_26_collisions
     0000001D  ___bank_scene_39_collisions        scene_39_collisions
     0000001D  ___bank_scene_41_collisions        scene_41_collisions
     0000001D  ___bank_scene_42_collisions        scene_42_collisions
     0000001D  ___bank_scene_43_collisions        scene_43_collisions
     0000001D  ___bank_scene_44_init              scene_44_init
     0000001D  ___bank_scene_45_actors            scene_45_actors
     0000001D  ___bank_scene_5_collisions         scene_5_collisions
     0000001D  b_vm_load_palette                  vm_palette
     0000001E  ___bank_actor_1_interact           actor_1_interact
     0000001E  ___bank_actor_21_interact          actor_21_interact
     0000001E  ___bank_actor_23_interact          actor_23_interact
     0000001E  ___bank_actor_32_interact          actor_32_interact
     0000001E  ___bank_bg_black_copie_tilemap     bg_black_copie_tilemap
     0000001E  ___bank_bg_black_copie_tilemap_a   bg_black_copie_tilemap_attr
     0000001E  ___bank_bg_black_tilemap           bg_black_tilemap
     0000001E  ___bank_bg_black_tilemap_attr      bg_black_tilemap_attr
     0000001E  ___bank_bg_chamberkriso2_tilemap   bg_chamberkriso2_tilemap
     0000001E  ___bank_bg_krislegend_tilemap      bg_krislegend_tilemap
     0000001E  ___bank_bg_krislegend_tilemap_at   bg_krislegend_tilemap_attr
     0000001E  ___bank_bg_legend1d_tilemap        bg_legend1d_tilemap
     0000001E  ___bank_bg_legend1d_tilemap_attr   bg_legend1d_tilemap_attr
     0000001E  ___bank_bg_legend4_tilemap         bg_legend4_tilemap
     0000001E  ___bank_bg_ralseilegend_tilemap    bg_ralseilegend_tilemap
     0000001E  ___bank_bg_ralseilegend_tilemap_   bg_ralseilegend_tilemap_attr
     0000001E  ___bank_bg_susielegend_tilemap     bg_susielegend_tilemap
     0000001E  ___bank_bg_susielegend_tilemap_a   bg_susielegend_tilemap_attr
     0000001E  ___bank_bg_thetle_tilemap          bg_thetle_tilemap
     0000001E  ___bank_bg_thetle_tilemap_attr     bg_thetle_tilemap_attr
     0000001E  ___bank_scene_15_collisions        scene_15_collisions
     0000001E  ___bank_scene_16_collisions        scene_16_collisions
     0000001E  ___bank_scene_17_collisions        scene_17_collisions
ASxxxx Linker V03.00/V05.40 + sdld,  page 12.
Hexadecimal  [32-Bits]

Area                                    Addr        Size        Decimal Bytes (Attributes)
--------------------------------        ----        ----        ------- ----- ------------
.  .ABS.                            00000000    00000000 =           0. bytes (ABS,CON)

      Value  Global                              Global Defined In Module
      -----  --------------------------------   ------------------------
     0000001E  ___bank_scene_18_collisions        scene_18_collisions
     0000001E  ___bank_scene_19_collisions        scene_19_collisions
     0000001E  ___bank_scene_20_collisions        scene_20_collisions
     0000001E  ___bank_scene_22_collisions        scene_22_collisions
     0000001E  ___bank_scene_27_collisions        scene_27_collisions
     0000001E  ___bank_scene_31_collisions        scene_31_collisions
     0000001E  ___bank_scene_38_collisions        scene_38_collisions
     0000001E  ___bank_scene_45_init              scene_45_init
     0000001E  ___bank_scene_48_collisions        scene_48_collisions
     0000001E  ___bank_scene_48_init              scene_48_init
     0000001E  ___bank_scene_50_collisions        scene_50_collisions
     0000001E  ___bank_scene_66_collisions        scene_66_collisions
     0000001E  ___bank_scene_6_collisions         scene_6_collisions
     0000001E  ___bank_scene_7_collisions         scene_7_collisions
     0000001E  ___bank_scene_logo_collisions      scene_logo_collisions
     0000001E  ___bank_sprite_dust_piles_tilese   sprite_dust_piles_tileset
     0000001E  ___bank_sprite_kris_lightworld_t   sprite_kris_lightworld_tiles
     0000001E  ___bank_sprite_ralsei_tileset      sprite_ralsei_tileset
     0000001E  ___bank_sprite_susie_tileset       sprite_susie_tileset
     0000001E  ___bank_trigger_37_interact        trigger_37_interact
     0000001F  ___bank_VM_MATH                    vm_math
     0000001F  ___bank_VM_PROJECTILE              vm_projectiles
     0000001F  ___bank_VM_RTC                     vm_rtc
     0000001F  ___bank_actor_31_interact          actor_31_interact
     0000001F  ___bank_actor_56_interact          actor_56_interact
     0000001F  ___bank_actor_57_interact          actor_57_interact
     0000001F  ___bank_actor_67_interact          actor_67_interact
     0000001F  ___bank_actor_70_interact          actor_70_interact
     0000001F  ___bank_bg_blackdoor_tileset       bg_blackdoor_tileset
     0000001F  ___bank_bg_legend6d_tilemap        bg_legend6d_tilemap
     0000001F  ___bank_bg_legend6d_tilemap_attr   bg_legend6d_tilemap_attr
     0000001F  ___bank_bg_new_piskel_43__tilema   bg_new_piskel_43__tilemap
     0000001F  ___bank_bg_new_piskel_43__tilema   bg_new_piskel_43__tilemap_at
     0000001F  ___bank_bg_the_castle_copie_tile   bg_the_castle_copie_tilemap
     0000001F  ___bank_bg_the_castle_copie_tile   bg_the_castle_copie_tilemap_
     0000001F  ___bank_bg_toilet2_tilemap         bg_toilet2_tilemap
     0000001F  ___bank_bg_toilet2_tilemap_attr    bg_toilet2_tilemap_attr
     0000001F  ___bank_bg_toilet_tilemap          bg_toilet_tilemap
     0000001F  ___bank_bg_toilet_tilemap_attr     bg_toilet_tilemap_attr
     0000001F  ___bank_scene_0_init               scene_0_init
     0000001F  ___bank_scene_15_init              scene_15_init
     0000001F  ___bank_scene_1_init               scene_1_init
     0000001F  ___bank_scene_21_collisions        scene_21_collisions
     0000001F  ___bank_scene_21_init              scene_21_init
     0000001F  ___bank_scene_22_init              scene_22_init
     0000001F  ___bank_scene_27_init              scene_27_init
     0000001F  ___bank_scene_29_actors            scene_29_actors
     0000001F  ___bank_scene_2_init               scene_2_init
     0000001F  ___bank_scene_30_init              scene_30_init
     0000001F  ___bank_scene_35_collisions        scene_35_collisions
     0000001F  ___bank_scene_36_collisions        scene_36_collisions
ASxxxx Linker V03.00/V05.40 + sdld,  page 13.
Hexadecimal  [32-Bits]

Area                                    Addr        Size        Decimal Bytes (Attributes)
--------------------------------        ----        ----        ------- ----- ------------
.  .ABS.                            00000000    00000000 =           0. bytes (ABS,CON)

      Value  Global                              Global Defined In Module
      -----  --------------------------------   ------------------------
     0000001F  ___bank_scene_3_init               scene_3_init
     0000001F  ___bank_scene_41_init              scene_41_init
     0000001F  ___bank_scene_44_actors            scene_44_actors
     0000001F  ___bank_scene_44_collisions        scene_44_collisions
     0000001F  ___bank_scene_46_init              scene_46_init
     0000001F  ___bank_scene_47_init              scene_47_init
     0000001F  ___bank_scene_4_init               scene_4_init
     0000001F  ___bank_scene_5_init               scene_5_init
     0000001F  ___bank_scene_60_actors            scene_60_actors
     0000001F  ___bank_scene_63_init              scene_63_init
     0000001F  ___bank_scene_68_collisions        scene_68_collisions
     0000001F  ___bank_scene_8_collisions         scene_8_collisions
     0000001F  ___bank_scene_logo_init            scene_logo_init
     0000001F  ___bank_script_8                   script_8
     0000001F  ___bank_script_input_1             script_input_1
     0000001F  ___bank_script_input_5             script_input_5
     0000001F  ___bank_sprite_aplhys_tileset      sprite_aplhys_tileset
     0000001F  ___bank_sprite_can_t_spare         sprite_can_t_spare
     0000001F  ___bank_sprite_krisbattle_tilese   sprite_krisbattle_tileset
     0000001F  ___bank_sprite_lancer_tileset      sprite_lancer_tileset
     0000001F  ___bank_sprite_new_piskel_3__til   sprite_new_piskel_3__tileset
     0000001F  ___bank_sprite_noellee_tileset     sprite_noellee_tileset
     0000001F  ___bank_sprite_piaf_tileset        sprite_piaf_tileset
     0000001F  ___bank_sprite_ralseibt_tileset    sprite_ralseibt_tileset
     0000001F  ___bank_sprite_susiebt_tileset     sprite_susiebt_tileset
     0000001F  ___bank_sprite_susiehs_copie       sprite_susiehs_copie
     0000001F  ___bank_sprite_toriel              sprite_toriel
     0000001F  ___bank_trigger_21_interact        trigger_21_interact
     0000001F  b_itoa_fmt                         vm_ui_a
     0000001F  b_vm_cos_scale                     vm_math
     0000001F  b_vm_projectile_launch             vm_projectiles
     0000001F  b_vm_projectile_load_type          vm_projectiles
     0000001F  b_vm_rtc_get                       vm_rtc
     0000001F  b_vm_rtc_latch                     vm_rtc
     0000001F  b_vm_rtc_set                       vm_rtc
     0000001F  b_vm_rtc_start                     vm_rtc
     0000001F  b_vm_sin_scale                     vm_math
     00000020  ___bank_VM_GBPRINTER               vm_gbprinter
     00000020  ___bank_VM_LOAD_SAVE               vm_load_save
     00000020  ___bank_VM_SCENE                   vm_scene
     00000020  ___bank_actor_11_interact          actor_11_interact
     00000020  ___bank_actor_12_interact          actor_12_interact
     00000020  ___bank_actor_13_interact          actor_13_interact
     00000020  ___bank_actor_14_interact          actor_14_interact
     00000020  ___bank_actor_20_interact          actor_20_interact
     00000020  ___bank_actor_34_interact          actor_34_interact
     00000020  ___bank_actor_37_interact          actor_37_interact
     00000020  ___bank_actor_58_interact          actor_58_interact
     00000020  ___bank_bg_black_copie_tileset     bg_black_copie_tileset
     00000020  ___bank_emote_shock                emote_shock
     00000020  ___bank_frame_image                frame_image
ASxxxx Linker V03.00/V05.40 + sdld,  page 14.
Hexadecimal  [32-Bits]

Area                                    Addr        Size        Decimal Bytes (Attributes)
--------------------------------        ----        ----        ------- ----- ------------
.  .ABS.                            00000000    00000000 =           0. bytes (ABS,CON)

      Value  Global                              Global Defined In Module
      -----  --------------------------------   ------------------------
     00000020  ___bank_palette_0                  palette_0
     00000020  ___bank_palette_1                  palette_1
     00000020  ___bank_palette_10                 palette_10
     00000020  ___bank_palette_11                 palette_11
     00000020  ___bank_palette_12                 palette_12
     00000020  ___bank_palette_13                 palette_13
     00000020  ___bank_palette_14                 palette_14
     00000020  ___bank_palette_15                 palette_15
     00000020  ___bank_palette_16                 palette_16
     00000020  ___bank_palette_17                 palette_17
     00000020  ___bank_palette_18                 palette_18
     00000020  ___bank_palette_19                 palette_19
     00000020  ___bank_palette_2                  palette_2
     00000020  ___bank_palette_20                 palette_20
     00000020  ___bank_palette_21                 palette_21
     00000020  ___bank_palette_22                 palette_22
     00000020  ___bank_palette_23                 palette_23
     00000020  ___bank_palette_24                 palette_24
     00000020  ___bank_palette_25                 palette_25
     00000020  ___bank_palette_26                 palette_26
     00000020  ___bank_palette_27                 palette_27
     00000020  ___bank_palette_28                 palette_28
     00000020  ___bank_palette_29                 palette_29
     00000020  ___bank_palette_3                  palette_3
     00000020  ___bank_palette_30                 palette_30
     00000020  ___bank_palette_31                 palette_31
     00000020  ___bank_palette_32                 palette_32
     00000020  ___bank_palette_33                 palette_33
     00000020  ___bank_palette_34                 palette_34
     00000020  ___bank_palette_35                 palette_35
     00000020  ___bank_palette_36                 palette_36
     00000020  ___bank_palette_37                 palette_37
     00000020  ___bank_palette_38                 palette_38
     00000020  ___bank_palette_39                 palette_39
     00000020  ___bank_palette_4                  palette_4
     00000020  ___bank_palette_40                 palette_40
     00000020  ___bank_palette_41                 palette_41
     00000020  ___bank_palette_42                 palette_42
     00000020  ___bank_palette_43                 palette_43
     00000020  ___bank_palette_44                 palette_44
     00000020  ___bank_palette_45                 palette_45
     00000020  ___bank_palette_46                 palette_46
     00000020  ___bank_palette_47                 palette_47
     00000020  ___bank_palette_48                 palette_48
     00000020  ___bank_palette_49                 palette_49
     00000020  ___bank_palette_5                  palette_5
     00000020  ___bank_palette_50                 palette_50
     00000020  ___bank_palette_51                 palette_51
     00000020  ___bank_palette_52                 palette_52
     00000020  ___bank_palette_53                 palette_53
     00000020  ___bank_palette_54                 palette_54
ASxxxx Linker V03.00/V05.40 + sdld,  page 15.
Hexadecimal  [32-Bits]

Area                                    Addr        Size        Decimal Bytes (Attributes)
--------------------------------        ----        ----        ------- ----- ------------
.  .ABS.                            00000000    00000000 =           0. bytes (ABS,CON)

      Value  Global                              Global Defined In Module
      -----  --------------------------------   ------------------------
     00000020  ___bank_palette_55                 palette_55
     00000020  ___bank_palette_56                 palette_56
     00000020  ___bank_palette_57                 palette_57
     00000020  ___bank_palette_58                 palette_58
     00000020  ___bank_palette_59                 palette_59
     00000020  ___bank_palette_6                  palette_6
     00000020  ___bank_palette_60                 palette_60
     00000020  ___bank_palette_61                 palette_61
     00000020  ___bank_palette_62                 palette_62
     00000020  ___bank_palette_63                 palette_63
     00000020  ___bank_palette_7                  palette_7
     00000020  ___bank_palette_8                  palette_8
     00000020  ___bank_palette_9                  palette_9
     00000020  ___bank_scene_0                    scene_0
     00000020  ___bank_scene_1                    scene_1
     00000020  ___bank_scene_10                   scene_10
     00000020  ___bank_scene_11                   scene_11
     00000020  ___bank_scene_12                   scene_12
     00000020  ___bank_scene_13                   scene_13
     00000020  ___bank_scene_13_actors            scene_13_actors
     00000020  ___bank_scene_14                   scene_14
     00000020  ___bank_scene_15                   scene_15
     00000020  ___bank_scene_16                   scene_16
     00000020  ___bank_scene_16_init              scene_16_init
     00000020  ___bank_scene_17                   scene_17
     00000020  ___bank_scene_17_init              scene_17_init
     00000020  ___bank_scene_18                   scene_18
     00000020  ___bank_scene_18_init              scene_18_init
     00000020  ___bank_scene_19                   scene_19
     00000020  ___bank_scene_19_init              scene_19_init
     00000020  ___bank_scene_2                    scene_2
     00000020  ___bank_scene_20                   scene_20
     00000020  ___bank_scene_20_init              scene_20_init
     00000020  ___bank_scene_21                   scene_21
     00000020  ___bank_scene_22                   scene_22
     00000020  ___bank_scene_23                   scene_23
     00000020  ___bank_scene_23_init              scene_23_init
     00000020  ___bank_scene_24                   scene_24
     00000020  ___bank_scene_25                   scene_25
     00000020  ___bank_scene_26                   scene_26
     00000020  ___bank_scene_27                   scene_27
     00000020  ___bank_scene_28                   scene_28
     00000020  ___bank_scene_28_actors            scene_28_actors
     00000020  ___bank_scene_29                   scene_29
     00000020  ___bank_scene_3                    scene_3
     00000020  ___bank_scene_30                   scene_30
     00000020  ___bank_scene_31                   scene_31
     00000020  ___bank_scene_31_init              scene_31_init
     00000020  ___bank_scene_32                   scene_32
     00000020  ___bank_scene_33                   scene_33
     00000020  ___bank_scene_34                   scene_34
ASxxxx Linker V03.00/V05.40 + sdld,  page 16.
Hexadecimal  [32-Bits]

Area                                    Addr        Size        Decimal Bytes (Attributes)
--------------------------------        ----        ----        ------- ----- ------------
.  .ABS.                            00000000    00000000 =           0. bytes (ABS,CON)

      Value  Global                              Global Defined In Module
      -----  --------------------------------   ------------------------
     00000020  ___bank_scene_34_actors            scene_34_actors
     00000020  ___bank_scene_35                   scene_35
     00000020  ___bank_scene_36                   scene_36
     00000020  ___bank_scene_36_actors            scene_36_actors
     00000020  ___bank_scene_37                   scene_37
     00000020  ___bank_scene_37_actors            scene_37_actors
     00000020  ___bank_scene_38                   scene_38
     00000020  ___bank_scene_38_init              scene_38_init
     00000020  ___bank_scene_39                   scene_39
     00000020  ___bank_scene_39_init              scene_39_init
     00000020  ___bank_scene_4                    scene_4
     00000020  ___bank_scene_40                   scene_40
     00000020  ___bank_scene_40_init              scene_40_init
     00000020  ___bank_scene_41                   scene_41
     00000020  ___bank_scene_41_actors            scene_41_actors
     00000020  ___bank_scene_42                   scene_42
     00000020  ___bank_scene_43                   scene_43
     00000020  ___bank_scene_44                   scene_44
     00000020  ___bank_scene_45                   scene_45
     00000020  ___bank_scene_46                   scene_46
     00000020  ___bank_scene_47                   scene_47
     00000020  ___bank_scene_48                   scene_48
     00000020  ___bank_scene_49                   scene_49
     00000020  ___bank_scene_49_init              scene_49_init
     00000020  ___bank_scene_5                    scene_5
     00000020  ___bank_scene_50                   scene_50
     00000020  ___bank_scene_50_init              scene_50_init
     00000020  ___bank_scene_51                   scene_51
     00000020  ___bank_scene_56_actors            scene_56_actors
     00000020  ___bank_scene_61_actors            scene_61_actors
     00000020  ___bank_scene_65_actors            scene_65_actors
     00000020  ___bank_scene_66_init              scene_66_init
     00000020  ___bank_scene_6_init               scene_6_init
     00000020  ___bank_scene_7_init               scene_7_init
     00000020  ___bank_scene_8_init               scene_8_init
     00000020  ___bank_scene_9_init               scene_9_init
     00000020  ___bank_script_9                   script_9
     00000020  ___bank_script_input_0             script_input_0
     00000020  ___bank_script_input_2             script_input_2
     00000020  ___bank_script_input_4             script_input_4
     00000020  ___bank_script_input_6             script_input_6
     00000020  ___bank_sprite_aplhys              sprite_aplhys
     00000020  ___bank_sprite_can_t_spare_tiles   sprite_can_t_spare_tileset
     00000020  ___bank_sprite_cursor_tileset      sprite_cursor_tileset
     00000020  ___bank_sprite_dust_piles          sprite_dust_piles
     00000020  ___bank_sprite_image               sprite_image
     00000020  ___bank_sprite_kris_lightworld     sprite_kris_lightworld
     00000020  ___bank_sprite_krisbattle          sprite_krisbattle
     00000020  ___bank_sprite_krisbt2o_tileset    sprite_krisbt2o_tileset
     00000020  ___bank_sprite_lacer_shadow_tile   sprite_lacer_shadow_tileset
     00000020  ___bank_sprite_lancer              sprite_lancer
ASxxxx Linker V03.00/V05.40 + sdld,  page 17.
Hexadecimal  [32-Bits]

Area                                    Addr        Size        Decimal Bytes (Attributes)
--------------------------------        ----        ----        ------- ----- ------------
.  .ABS.                            00000000    00000000 =           0. bytes (ABS,CON)

      Value  Global                              Global Defined In Module
      -----  --------------------------------   ------------------------
     00000020  ___bank_sprite_lightshard_tilese   sprite_lightshard_tileset
     00000020  ___bank_sprite_new_piskel          sprite_new_piskel
     00000020  ___bank_sprite_new_piskel_3_       sprite_new_piskel_3_
     00000020  ___bank_sprite_new_piskel_tilese   sprite_new_piskel_tileset
     00000020  ___bank_sprite_noellee             sprite_noellee
     00000020  ___bank_sprite_piaf                sprite_piaf
     00000020  ___bank_sprite_ralsei              sprite_ralsei
     00000020  ___bank_sprite_ralseibt            sprite_ralseibt
     00000020  ___bank_sprite_ralsss_tileset      sprite_ralsss_tileset
     00000020  ___bank_sprite_spare               sprite_spare
     00000020  ___bank_sprite_spare_tileset       sprite_spare_tileset
     00000020  ___bank_sprite_susie               sprite_susie
     00000020  ___bank_sprite_susiebt             sprite_susiebt
     00000020  ___bank_sprite_sword2o_tileset     sprite_sword2o_tileset
     00000020  ___bank_tileset_default_frame      tileset_default_frame
     00000020  ___bank_trigger_12_interact        trigger_12_interact
     00000020  ___bank_trigger_13_interact        trigger_13_interact
     00000020  ___bank_trigger_14_interact        trigger_14_interact
     00000020  ___bank_trigger_39_interact        trigger_39_interact
     00000020  ___bank_trigger_40_interact        trigger_40_interact
     00000020  ___bank_trigger_41_interact        trigger_41_interact
     00000020  ___bank_trigger_43_interact        trigger_43_interact
     00000020  b_events_init                      events
     00000020  b_restore_sram                     flasher
     00000020  b_restore_sram_bank                flasher
     00000020  b_save_sram                        flasher
     00000020  b_scroll_rect                      
     00000020  b_timers_init                      events
     00000020  b_vm_print_detect                  vm_gbprinter
     00000020  b_vm_print_overlay                 vm_gbprinter
     00000020  b_vm_save_clear                    vm_load_save
     00000020  b_vm_save_peek                     vm_load_save
     00000020  b_vm_scene_pop                     vm_scene
     00000020  b_vm_scene_pop_all                 vm_scene
     00000020  b_vm_scene_push                    vm_scene
     00000020  b_vm_scene_stack_reset             vm_scene
     00000021  ___bank_actor_10_interact          actor_10_interact
     00000021  ___bank_actor_15_interact          actor_15_interact
     00000021  ___bank_actor_16_interact          actor_16_interact
     00000021  ___bank_actor_9_interact           actor_9_interact
     00000021  ___bank_bg_10                      bg_10
     00000021  ___bank_bg_2                       bg_2
     00000021  ___bank_bg_3                       bg_3
     00000021  ___bank_bg_4                       bg_4
     00000021  ___bank_bg_5                       bg_5
     00000021  ___bank_bg_6                       bg_6
     00000021  ___bank_bg_6_1_                    bg_6_1_
     00000021  ___bank_bg_6_1__tileset            bg_6_1__tileset
     00000021  ___bank_bg_7                       bg_7
     00000021  ___bank_bg_8                       bg_8
     00000021  ___bank_bg_9                       bg_9
ASxxxx Linker V03.00/V05.40 + sdld,  page 18.
Hexadecimal  [32-Bits]

Area                                    Addr        Size        Decimal Bytes (Attributes)
--------------------------------        ----        ----        ------- ----- ------------
.  .ABS.                            00000000    00000000 =           0. bytes (ABS,CON)

      Value  Global                              Global Defined In Module
      -----  --------------------------------   ------------------------
     00000021  ___bank_bg_9_1_                    bg_9_1_
     00000021  ___bank_bg_9_1__tileset            bg_9_1__tileset
     00000021  ___bank_bg_avcclaude               bg_avcclaude
     00000021  ___bank_bg_b0027_copie             bg_b0027_copie
     00000021  ___bank_bg_black                   bg_black
     00000021  ___bank_bg_black_copie             bg_black_copie
     00000021  ___bank_bg_blackdoor               bg_blackdoor
     00000021  ___bank_bg_castle_town             bg_castle_town
     00000021  ___bank_bg_castle_town_map2        bg_castle_town_map2
     00000021  ___bank_bg_chamberkriso2           bg_chamberkriso2
     00000021  ___bank_bg_city1                   bg_city1
     00000021  ___bank_bg_city2                   bg_city2
     00000021  ___bank_bg_dogchecksavedata        bg_dogchecksavedata
     00000021  ___bank_bg_dogchecksavedata_copi   bg_dogchecksavedata_copie
     00000021  ___bank_bg_dogchecksavedata_copi   bg_dogchecksavedata_copie_0
     00000021  ___bank_bg_exterior                bg_exterior
     00000021  ___bank_bg_fountaincastle          bg_fountaincastle
     00000021  ___bank_bg_gameover                bg_gameover
     00000021  ___bank_bg_kris_s                  bg_kris_s
     00000021  ___bank_bg_kris_ss                 bg_kris_ss
     00000021  ___bank_bg_krislegend              bg_krislegend
     00000021  ___bank_bg_legend1d                bg_legend1d
     00000021  ___bank_bg_legend2                 bg_legend2
     00000021  ___bank_bg_legend3                 bg_legend3
     00000021  ___bank_bg_legend4                 bg_legend4
     00000021  ___bank_bg_legend5d                bg_legend5d
     00000021  ___bank_bg_legend6d                bg_legend6d
     00000021  ___bank_bg_legend7f                bg_legend7f
     00000021  ___bank_bg_legendsealfountain      bg_legendsealfountain
     00000021  ___bank_bg_new_piskel_43_          bg_new_piskel_43_
     00000021  ___bank_bg_quelesttonnom           bg_quelesttonnom
     00000021  ___bank_bg_quelesttonnom_copie     bg_quelesttonnom_copie
     00000021  ___bank_bg_ralseilegend            bg_ralseilegend
     00000021  ___bank_bg_room                    bg_room
     00000021  ___bank_bg_schoolcorridor1         bg_schoolcorridor1
     00000021  ___bank_bg_schoolext               bg_schoolext
     00000021  ___bank_bg_schoolint               bg_schoolint
     00000021  ___bank_bg_secoundfountain         bg_secoundfountain
     00000021  ___bank_bg_susielegend             bg_susielegend
     00000021  ___bank_bg_the_castle_copie        bg_the_castle_copie
     00000021  ___bank_bg_thetle                  bg_thetle
     00000021  ___bank_bg_title                   bg_title
     00000021  ___bank_bg_toilet                  bg_toilet
     00000021  ___bank_bg_toilet2                 bg_toilet2
     00000021  ___bank_bg_untitled                bg_untitled
     00000021  ___bank_bg_worldddd                bg_worldddd
     00000021  ___bank_bg_worldddddark            bg_worldddddark
     00000021  ___bank_bootstrap_script           
     00000021  ___bank_cursor_image               cursor_image
     00000021  ___bank_scene_14_actors            scene_14_actors
     00000021  ___bank_scene_14_init              scene_14_init
ASxxxx Linker V03.00/V05.40 + sdld,  page 19.
Hexadecimal  [32-Bits]

Area                                    Addr        Size        Decimal Bytes (Attributes)
--------------------------------        ----        ----        ------- ----- ------------
.  .ABS.                            00000000    00000000 =           0. bytes (ABS,CON)

      Value  Global                              Global Defined In Module
      -----  --------------------------------   ------------------------
     00000021  ___bank_scene_14_triggers          scene_14_triggers
     00000021  ___bank_scene_21_sprites           scene_21_sprites
     00000021  ___bank_scene_25_actors            scene_25_actors
     00000021  ___bank_scene_25_init              scene_25_init
     00000021  ___bank_scene_25_triggers          scene_25_triggers
     00000021  ___bank_scene_29_sprites           scene_29_sprites
     00000021  ___bank_scene_32_init              scene_32_init
     00000021  ___bank_scene_32_sprites           scene_32_sprites
     00000021  ___bank_scene_32_triggers          scene_32_triggers
     00000021  ___bank_scene_33_init              scene_33_init
     00000021  ___bank_scene_33_triggers          scene_33_triggers
     00000021  ___bank_scene_34_init              scene_34_init
     00000021  ___bank_scene_34_sprites           scene_34_sprites
     00000021  ___bank_scene_34_triggers          scene_34_triggers
     00000021  ___bank_scene_35_actors            scene_35_actors
     00000021  ___bank_scene_35_init              scene_35_init
     00000021  ___bank_scene_35_sprites           scene_35_sprites
     00000021  ___bank_scene_35_triggers          scene_35_triggers
     00000021  ___bank_scene_36_init              scene_36_init
     00000021  ___bank_scene_36_sprites           scene_36_sprites
     00000021  ___bank_scene_36_triggers          scene_36_triggers
     00000021  ___bank_scene_37_sprites           scene_37_sprites
     00000021  ___bank_scene_41_sprites           scene_41_sprites
     00000021  ___bank_scene_43_init              scene_43_init
     00000021  ___bank_scene_44_triggers          scene_44_triggers
     00000021  ___bank_scene_45_sprites           scene_45_sprites
     00000021  ___bank_scene_45_triggers          scene_45_triggers
     00000021  ___bank_scene_46_actors            scene_46_actors
     00000021  ___bank_scene_46_sprites           scene_46_sprites
     00000021  ___bank_scene_47_actors            scene_47_actors
     00000021  ___bank_scene_47_sprites           scene_47_sprites
     00000021  ___bank_scene_47_triggers          scene_47_triggers
     00000021  ___bank_scene_48_actors            scene_48_actors
     00000021  ___bank_scene_48_sprites           scene_48_sprites
     00000021  ___bank_scene_51_actors            scene_51_actors
     00000021  ___bank_scene_51_sprites           scene_51_sprites
     00000021  ___bank_scene_54                   scene_54
     00000021  ___bank_scene_54_init              scene_54_init
     00000021  ___bank_scene_54_triggers          scene_54_triggers
     00000021  ___bank_scene_55                   scene_55
     00000021  ___bank_scene_55_actors            scene_55_actors
     00000021  ___bank_scene_55_init              scene_55_init
     00000021  ___bank_scene_55_sprites           scene_55_sprites
     00000021  ___bank_scene_55_triggers          scene_55_triggers
     00000021  ___bank_scene_56                   scene_56
     00000021  ___bank_scene_56_init              scene_56_init
     00000021  ___bank_scene_56_triggers          scene_56_triggers
     00000021  ___bank_scene_57                   scene_57
     00000021  ___bank_scene_57_init              scene_57_init
     00000021  ___bank_scene_57_triggers          scene_57_triggers
     00000021  ___bank_scene_58                   scene_58
ASxxxx Linker V03.00/V05.40 + sdld,  page 20.
Hexadecimal  [32-Bits]

Area                                    Addr        Size        Decimal Bytes (Attributes)
--------------------------------        ----        ----        ------- ----- ------------
.  .ABS.                            00000000    00000000 =           0. bytes (ABS,CON)

      Value  Global                              Global Defined In Module
      -----  --------------------------------   ------------------------
     00000021  ___bank_scene_58_init              scene_58_init
     00000021  ___bank_scene_59                   scene_59
     00000021  ___bank_scene_59_actors            scene_59_actors
     00000021  ___bank_scene_59_init              scene_59_init
     00000021  ___bank_scene_59_sprites           scene_59_sprites
     00000021  ___bank_scene_59_triggers          scene_59_triggers
     00000021  ___bank_scene_6                    scene_6
     00000021  ___bank_scene_60                   scene_60
     00000021  ___bank_scene_60_init              scene_60_init
     00000021  ___bank_scene_60_sprites           scene_60_sprites
     00000021  ___bank_scene_60_triggers          scene_60_triggers
     00000021  ___bank_scene_61                   scene_61
     00000021  ___bank_scene_61_init              scene_61_init
     00000021  ___bank_scene_61_sprites           scene_61_sprites
     00000021  ___bank_scene_61_triggers          scene_61_triggers
     00000021  ___bank_scene_62                   scene_62
     00000021  ___bank_scene_62_init              scene_62_init
     00000021  ___bank_scene_63                   scene_63
     00000021  ___bank_scene_63_actors            scene_63_actors
     00000021  ___bank_scene_63_sprites           scene_63_sprites
     00000021  ___bank_scene_63_triggers          scene_63_triggers
     00000021  ___bank_scene_64                   scene_64
     00000021  ___bank_scene_64_init              scene_64_init
     00000021  ___bank_scene_64_triggers          scene_64_triggers
     00000021  ___bank_scene_65                   scene_65
     00000021  ___bank_scene_65_sprites           scene_65_sprites
     00000021  ___bank_scene_65_triggers          scene_65_triggers
     00000021  ___bank_scene_66                   scene_66
     00000021  ___bank_scene_66_actors            scene_66_actors
     00000021  ___bank_scene_66_sprites           scene_66_sprites
     00000021  ___bank_scene_66_triggers          scene_66_triggers
     00000021  ___bank_scene_67                   scene_67
     00000021  ___bank_scene_67_init              scene_67_init
     00000021  ___bank_scene_67_triggers          scene_67_triggers
     00000021  ___bank_scene_68                   scene_68
     00000021  ___bank_scene_68_actors            scene_68_actors
     00000021  ___bank_scene_68_init              scene_68_init
     00000021  ___bank_scene_68_sprites           scene_68_sprites
     00000021  ___bank_scene_68_triggers          scene_68_triggers
     00000021  ___bank_scene_7                    scene_7
     00000021  ___bank_scene_8                    scene_8
     00000021  ___bank_scene_9                    scene_9
     00000021  ___bank_scene_logo                 scene_logo
     00000021  ___bank_sound_legacy_0             sound_legacy_0
     00000021  ___bank_sound_legacy_0_1           sound_legacy_0_1
     00000021  ___bank_sound_legacy_0_2           sound_legacy_0_2
     00000021  ___bank_sprite_cursor              sprite_cursor
     00000021  ___bank_sprite_krisbt2o            sprite_krisbt2o
     00000021  ___bank_sprite_lacer_shadow        sprite_lacer_shadow
     00000021  ___bank_sprite_lightshard          sprite_lightshard
     00000021  ___bank_sprite_ralsss              sprite_ralsss
ASxxxx Linker V03.00/V05.40 + sdld,  page 21.
Hexadecimal  [32-Bits]

Area                                    Addr        Size        Decimal Bytes (Attributes)
--------------------------------        ----        ----        ------- ----- ------------
.  .ABS.                            00000000    00000000 =           0. bytes (ABS,CON)

      Value  Global                              Global Defined In Module
      -----  --------------------------------   ------------------------
     00000021  ___bank_sprite_room2               sprite_room2
     00000021  ___bank_sprite_sword2o             sprite_sword2o
     00000021  ___bank_spritesheet_none           spritesheet_none
     00000021  ___bank_trigger_10_interact        trigger_10_interact
     00000021  ___bank_trigger_17_interact        trigger_17_interact
     00000021  ___bank_trigger_18_interact        trigger_18_interact
     00000021  ___bank_trigger_19_interact        trigger_19_interact
     00000021  ___bank_trigger_1_interact         trigger_1_interact
     00000021  ___bank_trigger_20_interact        trigger_20_interact
     00000021  ___bank_trigger_22_interact        trigger_22_interact
     00000021  ___bank_trigger_23_interact        trigger_23_interact
     00000021  ___bank_trigger_24_interact        trigger_24_interact
     00000021  ___bank_trigger_25_interact        trigger_25_interact
     00000021  ___bank_trigger_26_interact        trigger_26_interact
     00000021  ___bank_trigger_27_interact        trigger_27_interact
     00000021  ___bank_trigger_28_interact        trigger_28_interact
     00000021  ___bank_trigger_29_interact        trigger_29_interact
     00000021  ___bank_trigger_2_interact         trigger_2_interact
     00000021  ___bank_trigger_30_interact        trigger_30_interact
     00000021  ___bank_trigger_31_interact        trigger_31_interact
     00000021  ___bank_trigger_32_interact        trigger_32_interact
     00000021  ___bank_trigger_33_interact        trigger_33_interact
     00000021  ___bank_trigger_34_interact        trigger_34_interact
     00000021  ___bank_trigger_35_interact        trigger_35_interact
     00000021  ___bank_trigger_36_interact        trigger_36_interact
     00000021  ___bank_trigger_38_interact        trigger_38_interact
     00000021  ___bank_trigger_3_interact         trigger_3_interact
     00000021  ___bank_trigger_42_interact        trigger_42_interact
     00000021  ___bank_trigger_4_interact         trigger_4_interact
     00000021  ___bank_trigger_5_interact         trigger_5_interact
     00000021  ___bank_trigger_6_interact         trigger_6_interact
     00000021  ___bank_trigger_7_interact         trigger_7_interact
     00000021  ___bank_trigger_8_interact         trigger_8_interact
     00000021  ___bank_trigger_9_interact         trigger_9_interact
     00000021  b_SIO_init                         sio
     00000021  b_camera_init                      camera
     00000021  b_input_init                       input
     00000021  b_logo_init                        logo
     00000021  b_logo_update                      logo
     00000021  b_parallax_init                    parallax
     00000027  l__GSINIT                       
     00000030  l__HEADER7                      
     0000003C  __start_save                    
     00000060  l__HEADER4                      
     000000AB  l__HEADER11                     
     000001CB  l__CRASH_SCRATCH2               
     00000200  s__CODE                         
     00000ECB  l__CODE                         
     000010CB  s__HOME                         
     0000173B  l__CODE_33                      
     00001971  l__DATA                         
ASxxxx Linker V03.00/V05.40 + sdld,  page 22.
Hexadecimal  [32-Bits]

Area                                    Addr        Size        Decimal Bytes (Attributes)
--------------------------------        ----        ----        ------- ----- ------------
.  .ABS.                            00000000    00000000 =           0. bytes (ABS,CON)

      Value  Global                              Global Defined In Module
      -----  --------------------------------   ------------------------
     00002000  _rROMB0                            
     00002D53  l__HOME                         
     00003000  _rROMB1                            
     00003E1E  s__BASE                         
     00003E1E  s__CODE_0                       
     00003E1E  s__INITIALIZER                  
     00003E1E  s__LIT                          
     00003E37  s__GSINIT                       
     00003E5E  s__GSFINAL                      
     00003FFE  l__CODE_11                      
     00003FFE  l__CODE_12                      
     00003FFE  l__CODE_15                      
     00003FFE  l__CODE_19                      
     00003FFE  l__CODE_26                      
     00003FFF  l__CODE_1                       
     00003FFF  l__CODE_13                      
     00003FFF  l__CODE_16                      
     00003FFF  l__CODE_18                      
     00003FFF  l__CODE_8                       
     00004000  _RTC_SELECT_REG                    vm_rtc
     00004000  _rRAMB                             
     00004000  l__CODE_10                      
     00004000  l__CODE_14                      
     00004000  l__CODE_17                      
     00004000  l__CODE_2                       
     00004000  l__CODE_20                      
     00004000  l__CODE_21                      
     00004000  l__CODE_22                      
     00004000  l__CODE_23                      
     00004000  l__CODE_24                      
     00004000  l__CODE_25                      
     00004000  l__CODE_27                      
     00004000  l__CODE_28                      
     00004000  l__CODE_29                      
     00004000  l__CODE_3                       
     00004000  l__CODE_30                      
     00004000  l__CODE_31                      
     00004000  l__CODE_32                      
     00004000  l__CODE_4                       
     00004000  l__CODE_5                       
     00004000  l__CODE_6                       
     00004000  l__CODE_7                       
     00004000  l__CODE_9                       
     00006000  _RTC_LATCH_REG                     vm_rtc
     00008000  __VRAM                             
     00008000  __VRAM8000                         
     00008800  __VRAM8800                         
     00009000  __VRAM9000                         
     00009800  __SCRN0                            
     00009C00  __SCRN1                            
     0000A000  _RTC_VALUE_REG                     vm_rtc
ASxxxx Linker V03.00/V05.40 + sdld,  page 23.
Hexadecimal  [32-Bits]

Area                                    Addr        Size        Decimal Bytes (Attributes)
--------------------------------        ----        ----        ------- ----- ------------
.  .ABS.                            00000000    00000000 =           0. bytes (ABS,CON)

      Value  Global                              Global Defined In Module
      -----  --------------------------------   ------------------------
     0000A000  __SRAM                             
     0000C000  __RAM                              
     0000C000  _shadow_OAM                     
     0000C0A0  s__DATA                         
     0000D000  __RAMBANK                          
     0000DA11  s__BSS                          
     0000DA11  s__INITIALIZED                  
     0000DA2A  s__HEAP                         
     0000DA2A  s__HEAP_END                     
     0000DF00  .STACK                          
     0000DF00  _shadow_OAM2                       absolute
     0000DFA0  _BkgPalette                        absolute
     0000DFE0  _vwf_tile_data                     absolute
     0000FE00  __OAMRAM                           
     0000FF00  _P1_REG                            
     0000FF00  __IO                               
     0000FF01  _SB_REG                            
     0000FF02  _SC_REG                            
     0000FF04  _DIV_REG                           
     0000FF05  _TIMA_REG                          
     0000FF06  _TMA_REG                           
     0000FF07  _TAC_REG                           
     0000FF0F  _IF_REG                            
     0000FF10  _NR10_REG                          
     0000FF11  _NR11_REG                          
     0000FF12  _NR12_REG                          
     0000FF13  _NR13_REG                          
     0000FF14  _NR14_REG                          
     0000FF16  _NR21_REG                          
     0000FF17  _NR22_REG                          
     0000FF18  _NR23_REG                          
     0000FF19  _NR24_REG                          
     0000FF1A  _NR30_REG                          
     0000FF1B  _NR31_REG                          
     0000FF1C  _NR32_REG                          
     0000FF1D  _NR33_REG                          
     0000FF1E  _NR34_REG                          
     0000FF20  _NR41_REG                          
     0000FF21  _NR42_REG                          
     0000FF22  _NR43_REG                          
     0000FF23  _NR44_REG                          
     0000FF24  _NR50_REG                          
     0000FF25  _NR51_REG                          
     0000FF26  _NR52_REG                          
     0000FF30  _AUD3WAVE                          
     0000FF30  _PCM_SAMPLE                        
     0000FF30  __AUD3WAVERAM                      
     0000FF40  _LCDC_REG                          
     0000FF41  _STAT_REG                          
     0000FF42  _SCY_REG                           
     0000FF43  _SCX_REG                           
ASxxxx Linker V03.00/V05.40 + sdld,  page 24.
Hexadecimal  [32-Bits]

Area                                    Addr        Size        Decimal Bytes (Attributes)
--------------------------------        ----        ----        ------- ----- ------------
.  .ABS.                            00000000    00000000 =           0. bytes (ABS,CON)

      Value  Global                              Global Defined In Module
      -----  --------------------------------   ------------------------
     0000FF44  _LY_REG                            
     0000FF45  _LYC_REG                           
     0000FF46  _DMA_REG                           
     0000FF47  _BGP_REG                           
     0000FF48  _OBP0_REG                          
     0000FF49  _OBP1_REG                          
     0000FF4A  _WY_REG                            
     0000FF4B  _WX_REG                            
     0000FF4D  _KEY1_REG                          
     0000FF4F  _VBK_REG                           
     0000FF51  _HDMA1_REG                         
     0000FF52  _HDMA2_REG                         
     0000FF53  _HDMA3_REG                         
     0000FF54  _HDMA4_REG                         
     0000FF55  _HDMA5_REG                         
     0000FF56  _RP_REG                            
     0000FF68  _BCPS_REG                          
     0000FF69  _BCPD_REG                          
     0000FF6A  _OCPS_REG                          
     0000FF6B  _OCPD_REG                          
     0000FF70  _SVBK_REG                          
     0000FF76  _PCM12_REG                         
     0000FF77  _PCM34_REG                         
     0000FF80  .refresh_OAM                    
     0000FF80  __HRAM                             
     0000FFFF  _IE_REG                            
     00014000  s__CODE_1                       
     00024000  s__CODE_2                       
     00034000  s__CODE_3                       
     00044000  s__CODE_4                       
     00054000  s__CODE_5                       
     00064000  s__CODE_6                       
     00074000  s__CODE_7                       
     00084000  s__CODE_8                       
     00094000  s__CODE_9                       
     000A4000  s__CODE_10                      
     000B4000  s__CODE_11                      
     000C4000  s__CODE_12                      
     000D4000  s__CODE_13                      
     000E4000  s__CODE_14                      
     000F4000  s__CODE_15                      
     00104000  s__CODE_16                      
     00114000  s__CODE_17                      
     00124000  s__CODE_18                      
     00134000  s__CODE_19                      
     00144000  s__CODE_20                      
     00154000  s__CODE_21                      
     00164000  s__CODE_22                      
     00174000  s__CODE_23                      
     00184000  s__CODE_24                      
     00194000  s__CODE_25                      
ASxxxx Linker V03.00/V05.40 + sdld,  page 25.
Hexadecimal  [32-Bits]

Area                                    Addr        Size        Decimal Bytes (Attributes)
--------------------------------        ----        ----        ------- ----- ------------
.  .ABS.                            00000000    00000000 =           0. bytes (ABS,CON)

      Value  Global                              Global Defined In Module
      -----  --------------------------------   ------------------------
     001A4000  s__CODE_26                      
     001B4000  s__CODE_27                      
     001C4000  s__CODE_28                      
     001D4000  s__CODE_29                      
     001E4000  s__CODE_30                      
     001F4000  s__CODE_31                      
     00204000  s__CODE_32                      
     00214000  s__CODE_33                      

ASxxxx Linker V03.00/V05.40 + sdld,  page 26.
Hexadecimal  [32-Bits]

Area                                    Addr        Size        Decimal Bytes (Attributes)
--------------------------------        ----        ----        ------- ----- ------------
_CODE                               00000200    00000ECB =        3787. bytes (REL,CON)

      Value  Global                              Global Defined In Module
      -----  --------------------------------   ------------------------
     00000200  ___HandleCrash                     
     0000020A  _SIO_send_byte                     
     0000021D  _SIO_receive                       
     0000022E  _GetWinAddr                        
     00000236  _GetBkgAddr                        
     00000244  _state_init                        
     00000249  _state_update                      
     0000026B  _ui_time_masks                     
     00000273  _ui_print_shift_char               
     000002F6  _ui_draw_frame_row                 
     000002FF  .ui_draw_frame_row                 
     00000328  _script_cmds                       vm_instructions
     00000560  _save_signature                    game_signature
     00000564  _start_scene_x                     
     00000566  _start_scene_y                     
     00000568  _start_scene_dir                   
     00000569  _start_scene                       
     0000056C  _start_player_move_speed           
     0000056D  _start_player_anim_tick            
     0000056E  _ui_fonts                          
     0000057D  _core_reset_hook                   main
     00000585  _main                              main
     0000058D  _state_start_fns                   
     00000596  _state_update_fns                  
     0000059F  _hUGE_init                         hUGEDriver_obj
     000005A1  hUGE_init                          hUGEDriver_obj
     000005F7  _hUGE_mute_channel                 hUGEDriver_obj
     000005F9  hUGE_mute_channel                  hUGEDriver_obj
     00000847  _hUGE_set_position                 hUGEDriver_obj
     00000849  hUGE_set_position                  hUGEDriver_obj
     00000A0E  _hUGE_dosound                      hUGEDriver_obj
     00000A0E  hUGE_dosound                       hUGEDriver_obj
     00000D3A  _get_vram_byte                     
     00000D42  _get_win_tile_xy                   
     00000D4A  _get_bkg_tile_xy                   
     00000D71  _set_sprite_palette                CGB
     00000D76  _set_bkg_palette                   CGB
     00000D79  .set_palette                       CGB
     00000D98  _set_sprite_palette_entry          CGB
     00000D9D  _set_bkg_palette_entry             CGB
     00000DA0  .set_palette_entry                 CGB
     00000DBC  _hide_sprites_range                Metasprites
     00000DEB  __mulsuchar                        mul
     00000DEE  __muluschar                        mul
     00000DF7  __mulschar                         mul
     00000DFF  __mulint                           mul
     00000E1E  __muluchar                         mul
     00000E30  _set_vram_byte                     
     00000E39  _set_win_tile_xy                   
     00000E42  _set_bkg_tile_xy                   
ASxxxx Linker V03.00/V05.40 + sdld,  page 27.
Hexadecimal  [32-Bits]

Area                                    Addr        Size        Decimal Bytes (Attributes)
--------------------------------        ----        ----        ------- ----- ------------
_CODE                               00000200    00000ECB =        3787. bytes (REL,CON)

      Value  Global                              Global Defined In Module
      -----  --------------------------------   ------------------------
     00000E71  .sgb_check                         
     00000E71  _sgb_check                         
     00000EB9  _sgb_transfer                      
     00000EBE  .sgb_transfer                      
     00000EFF  .copy_vram                         
     00000F05  _get_data                          
     00000F05  _set_data                          
     00000F05  _vmemcpy                           
     00000F53  ___move_metasprite                 Metasprites
     00000F90  ___memcpy                          
     00000F90  _memcpy                            
     00000FC2  _cpu_slow                          CGB
     00000FDD  _cpu_fast                          CGB
     00000FE4  __divsuchar                        divmod
     00000FEA  __modsuchar                        divmod
     00000FF3  __divuschar                        divmod
     00000FFC  __moduschar                        divmod
     00001008  __divschar                         divmod
     0000100D  __modschar                         divmod
     00001014  __divsint                          divmod
     0000101D  __modsint                          divmod
     00001029  __divuchar                         divmod
     0000102E  __moduchar                         divmod
     00001035  __divuint                          divmod
     0000103E  __moduint                          divmod
     0000104A  .div8                              divmod
     0000104A  .mod8                              divmod
     00001052  .div16                             divmod
     00001052  .mod16                             divmod
     00001088  .divu8                             divmod
     00001088  .modu8                             divmod
     0000108B  .divu16                            divmod
     0000108B  .modu16                            divmod

ASxxxx Linker V03.00/V05.40 + sdld,  page 28.
Hexadecimal  [32-Bits]

Area                                    Addr        Size        Decimal Bytes (Attributes)
--------------------------------        ----        ----        ------- ----- ------------
_HEADER0                            00000000    00000001 =           1. bytes (ABS,CON)

      Value  Global                              Global Defined In Module
      -----  --------------------------------   ------------------------
     00000020  .call_hl                           Runtime

ASxxxx Linker V03.00/V05.40 + sdld,  page 29.
Hexadecimal  [32-Bits]

Area                                    Addr        Size        Decimal Bytes (Attributes)
--------------------------------        ----        ----        ------- ----- ------------
_HEADER1                            00000000    00000005 =           5. bytes (ABS,CON)

      Value  Global                              Global Defined In Module
      -----  --------------------------------   ------------------------
     00000028  .MemsetSmall                       Runtime

ASxxxx Linker V03.00/V05.40 + sdld,  page 30.
Hexadecimal  [32-Bits]

Area                                    Addr        Size        Decimal Bytes (Attributes)
--------------------------------        ----        ----        ------- ----- ------------
_HEADER2                            00000000    00000007 =           7. bytes (ABS,CON)

      Value  Global                              Global Defined In Module
      -----  --------------------------------   ------------------------
     00000030  .MemcpySmall                       Runtime

ASxxxx Linker V03.00/V05.40 + sdld,  page 31.
Hexadecimal  [32-Bits]

Area                                    Addr        Size        Decimal Bytes (Attributes)
--------------------------------        ----        ----        ------- ----- ------------
_HEADER3                            00000000    00000008 =           8. bytes (ABS,CON)

      Value  Global                              Global Defined In Module
      -----  --------------------------------   ------------------------
ASxxxx Linker V03.00/V05.40 + sdld,  page 32.
Hexadecimal  [32-Bits]

Area                                    Addr        Size        Decimal Bytes (Attributes)
--------------------------------        ----        ----        ------- ----- ------------
_HEADER4                            00000000    00000060 =          96. bytes (ABS,CON)

      Value  Global                              Global Defined In Module
      -----  --------------------------------   ------------------------
     00000080  .int                               Runtime
     0000008F  _wait_int_handler                  Runtime
     0000009C  __standard_VBL_handler             Runtime
     000000AB  _refresh_OAM                       Runtime
     000000CC  _set_interrupts                    Runtime

ASxxxx Linker V03.00/V05.40 + sdld,  page 33.
Hexadecimal  [32-Bits]

Area                                    Addr        Size        Decimal Bytes (Attributes)
--------------------------------        ----        ----        ------- ----- ------------
_HEADER5                            00000000    00000001 =           1. bytes (ABS,CON)

      Value  Global                              Global Defined In Module
      -----  --------------------------------   ------------------------
ASxxxx Linker V03.00/V05.40 + sdld,  page 34.
Hexadecimal  [32-Bits]

Area                                    Addr        Size        Decimal Bytes (Attributes)
--------------------------------        ----        ----        ------- ----- ------------
_HEADER6                            00000000    00000002 =           2. bytes (ABS,CON)

      Value  Global                              Global Defined In Module
      -----  --------------------------------   ------------------------
ASxxxx Linker V03.00/V05.40 + sdld,  page 35.
Hexadecimal  [32-Bits]

Area                                    Addr        Size        Decimal Bytes (Attributes)
--------------------------------        ----        ----        ------- ----- ------------
_HEADER7                            00000000    00000030 =          48. bytes (ABS,CON)

      Value  Global                              Global Defined In Module
      -----  --------------------------------   ------------------------
ASxxxx Linker V03.00/V05.40 + sdld,  page 36.
Hexadecimal  [32-Bits]

Area                                    Addr        Size        Decimal Bytes (Attributes)
--------------------------------        ----        ----        ------- ----- ------------
_HEADER8                            00000000    00000006 =           6. bytes (ABS,CON)

      Value  Global                              Global Defined In Module
      -----  --------------------------------   ------------------------
ASxxxx Linker V03.00/V05.40 + sdld,  page 37.
Hexadecimal  [32-Bits]

Area                                    Addr        Size        Decimal Bytes (Attributes)
--------------------------------        ----        ----        ------- ----- ------------
_HEADER9                            00000000    00000003 =           3. bytes (ABS,CON)

      Value  Global                              Global Defined In Module
      -----  --------------------------------   ------------------------
ASxxxx Linker V03.00/V05.40 + sdld,  page 38.
Hexadecimal  [32-Bits]

Area                                    Addr        Size        Decimal Bytes (Attributes)
--------------------------------        ----        ----        ------- ----- ------------
_HEADERa                            00000000    00000001 =           1. bytes (ABS,CON)

      Value  Global                              Global Defined In Module
      -----  --------------------------------   ------------------------
ASxxxx Linker V03.00/V05.40 + sdld,  page 39.
Hexadecimal  [32-Bits]

Area                                    Addr        Size        Decimal Bytes (Attributes)
--------------------------------        ----        ----        ------- ----- ------------
_HEADERb                            00000000    00000001 =           1. bytes (ABS,CON)

      Value  Global                              Global Defined In Module
      -----  --------------------------------   ------------------------
ASxxxx Linker V03.00/V05.40 + sdld,  page 40.
Hexadecimal  [32-Bits]

Area                                    Addr        Size        Decimal Bytes (Attributes)
--------------------------------        ----        ----        ------- ----- ------------
_HEADERc                            00000000    00000001 =           1. bytes (ABS,CON)

      Value  Global                              Global Defined In Module
      -----  --------------------------------   ------------------------
ASxxxx Linker V03.00/V05.40 + sdld,  page 41.
Hexadecimal  [32-Bits]

Area                                    Addr        Size        Decimal Bytes (Attributes)
--------------------------------        ----        ----        ------- ----- ------------
_HEADERd                            00000000    00000002 =           2. bytes (ABS,CON)

      Value  Global                              Global Defined In Module
      -----  --------------------------------   ------------------------
ASxxxx Linker V03.00/V05.40 + sdld,  page 42.
Hexadecimal  [32-Bits]

Area                                    Addr        Size        Decimal Bytes (Attributes)
--------------------------------        ----        ----        ------- ----- ------------
_HEADERe                            00000000    00000001 =           1. bytes (ABS,CON)

      Value  Global                              Global Defined In Module
      -----  --------------------------------   ------------------------
ASxxxx Linker V03.00/V05.40 + sdld,  page 43.
Hexadecimal  [32-Bits]

Area                                    Addr        Size        Decimal Bytes (Attributes)
--------------------------------        ----        ----        ------- ----- ------------
_HEADERf                            00000000    00000001 =           1. bytes (ABS,CON)

      Value  Global                              Global Defined In Module
      -----  --------------------------------   ------------------------
ASxxxx Linker V03.00/V05.40 + sdld,  page 44.
Hexadecimal  [32-Bits]

Area                                    Addr        Size        Decimal Bytes (Attributes)
--------------------------------        ----        ----        ------- ----- ------------
_HEADER10                           00000000    00000002 =           2. bytes (ABS,CON)

      Value  Global                              Global Defined In Module
      -----  --------------------------------   ------------------------
ASxxxx Linker V03.00/V05.40 + sdld,  page 45.
Hexadecimal  [32-Bits]

Area                                    Addr        Size        Decimal Bytes (Attributes)
--------------------------------        ----        ----        ------- ----- ------------
_HEADER11                           00000000    000000AB =         171. bytes (ABS,CON)

      Value  Global                              Global Defined In Module
      -----  --------------------------------   ------------------------
     00000150  .reset                             Runtime
     00000150  _reset                             Runtime
     00000157  .code_start                        Runtime
     000001B9  _exit                              Runtime
     000001BD  .wait_vbl_done                     Runtime
     000001BD  _vsync                             Runtime
     000001BD  _wait_vbl_done                     Runtime
     000001CD  .remove_VBL                        Runtime
     000001CD  _remove_VBL                        Runtime
     000001D0  .remove_int                        Runtime
     000001ED  .add_VBL                           Runtime
     000001ED  _add_VBL                           Runtime
     000001F0  .add_int                           Runtime

ASxxxx Linker V03.00/V05.40 + sdld,  page 46.
Hexadecimal  [32-Bits]

Area                                    Addr        Size        Decimal Bytes (Attributes)
--------------------------------        ----        ----        ------- ----- ------------
_HOME                               000010CB    00002D53 =       11603. bytes (REL,CON)

      Value  Global                              Global Defined In Module
      -----  --------------------------------   ------------------------
     000010CB  .memset_simple                     Runtime
     000010D4  .memcpy_simple                     Runtime
     000010F1  .display_off                       Runtime
     000010F1  _display_off                       Runtime
     00001109  _actors_update                     actor
     0000156F  _SetBankedBkgData                  bankdata
     0000158B  _SetBankedSpriteData               bankdata
     000015A7  _SetBankedBkgTiles                 bankdata
     000015C3  _SetBankedWinTiles                 bankdata
     000015DF  _ReadBankedFarPtr                  bankdata
     00001601  _ReadBankedUWORD                   bankdata
     0000161B  _MemcpyBanked                      bankdata
     0000163D  _MemcpyVRAMBanked                  bankdata
     0000166C  _IndexOfFarPtr                     bankdata
     000016F1  _camera_update                     camera
     00001824  _load_animations                   data_manager
     0000187D  _events_update                     events
     00001950  _timers_update                     events
     000019D9  _input_update                      input
     000019FC  .sio_ISR                           
     00001A56  .timer_ISR                         
     00001A6B  _simple_LCD_isr                    interrupts
     00001AEA  _fullscreen_LCD_isr                interrupts
     00001B16  _VBL_isr                           interrupts
     00001B60  _isqrt                             math
     00001BBD  _sine_wave                         math
     00001CBD  _dir_lookup                        math
     00001CC5  _dir_angle_lookup                  math
     00001CC9  _hUGETrackerRoutine                music_manager
     00001CF0  _music_events_update               music_manager
     00001D72  _music_play_isr                    music_manager
     00001E13  _parallax_LCD_isr                  parallax
     00001E50  _projectiles_update                projectiles
     000022D1  _projectiles_render                projectiles
     00002426  _scroll_load_pending_row           scroll
     000024AC  _scroll_load_row                   scroll
     00002521  _scroll_load_col                   scroll
     0000258A  _scroll_load_pending_col           scroll
     00002612  _set_bkg_submap                    
     00002655  _set_xy_win_submap                 
     00002682  .set_xy_win_submap                 
     0000268B  .set_xy_bkg_submap                 
     0000269A  .set_xy_submap                     
     000026E6  _sfx_play_isr                      sfx_player
     000027BF  _on_SIO_receive                    sio
     00002800  _SIO_update                        sio
     00002867  _ui_update                         ui
     0000299F  _vm_sgb_transfer                   vm_sgb
     000029EC  _vm_load_text                      vm_ui
     00002C42  _vm_switch                         vm
ASxxxx Linker V03.00/V05.40 + sdld,  page 47.
Hexadecimal  [32-Bits]

Area                                    Addr        Size        Decimal Bytes (Attributes)
--------------------------------        ----        ----        ------- ----- ------------
_HOME                               000010CB    00002D53 =       11603. bytes (REL,CON)

      Value  Global                              Global Defined In Module
      -----  --------------------------------   ------------------------
     00002D73  _vm_beginthread                    vm
     00002E97  _vm_rpn                            vm
     000038AF  _vm_get_far                        vm
     0000391D  _vm_call_native                    vm
     00003930  _VM_STEP                           vm
     0000399A  _script_runner_update              vm
     00003AFF  _fill_win_rect                     
     00003B11  _rand                              
     00003B11  _randw                             
     00003B3C  _initrand                          
     00003B3E  .initrand                          
     00003B47  _get_bkg_data                      
     00003B47  _get_win_data                      
     00003B94  _get_sprite_data                   
     00003BC7  _abs                               abs
     00003BD4  _set_win_tiles                     
     00003BE8  _set_tile_data                     
     00003BED  _set_bkg_data                      
     00003BED  _set_win_data                      
     00003BF5  _set_sprite_data                   
     00003C25  _reverse                           reverse
     00003C59  ___call__banked                    far_ptr
     00003C76  _to_far_ptr                        far_ptr
     00003CAC  .add_LCD                           
     00003CAC  _add_LCD                           
     00003CB2  .remove_LCD                        
     00003CB2  _remove_LCD                        
     00003CB8  .fill_rect_wtt                     
     00003CC1  .fill_rect_btt                     
     00003D0E  _fill_bkg_rect                     
     00003D20  .padup                             
     00003D20  _waitpadup                         
     00003D30  .jpad                              
     00003D30  _joypad                            
     00003D58  _waitpad                           
     00003D59  .wait_pad                          
     00003D60  ___sdcc_call_hl                    call_hl
     00003D61  _memset                            memset
     00003D94  .set_xy_wtt                        SetTileMap
     00003D9D  .set_xy_btt                        SetTileMap
     00003DAC  .set_xy_tt                         SetTileMap
     00003DF0  ___sdcc_bcall_ehl                  
     00003E0A  _set_bkg_tiles                     
ASxxxx Linker V03.00/V05.40 + sdld,  page 48.
Hexadecimal  [32-Bits]

Area                                    Addr        Size        Decimal Bytes (Attributes)
--------------------------------        ----        ----        ------- ----- ------------
_INITIALIZER                        00003E1E    00000019 =          25. bytes (REL,CON)

      Value  Global                              Global Defined In Module
      -----  --------------------------------   ------------------------
ASxxxx Linker V03.00/V05.40 + sdld,  page 49.
Hexadecimal  [32-Bits]

Area                                    Addr        Size        Decimal Bytes (Attributes)
--------------------------------        ----        ----        ------- ----- ------------
_GSINIT                             00003E37    00000027 =          39. bytes (REL,CON)

      Value  Global                              Global Defined In Module
      -----  --------------------------------   ------------------------
     00003E37  gsinit                             Runtime

ASxxxx Linker V03.00/V05.40 + sdld,  page 50.
Hexadecimal  [32-Bits]

Area                                    Addr        Size        Decimal Bytes (Attributes)
--------------------------------        ----        ----        ------- ----- ------------
_GSFINAL                            00003E5E    00000001 =           1. bytes (REL,CON)

      Value  Global                              Global Defined In Module
      -----  --------------------------------   ------------------------
ASxxxx Linker V03.00/V05.40 + sdld,  page 51.
Hexadecimal  [32-Bits]

Area                                    Addr        Size        Decimal Bytes (Attributes)
--------------------------------        ----        ----        ------- ----- ------------
_DATA                               0000C0A0    00001971 =        6513. bytes (REL,CON)

      Value  Global                              Global Defined In Module
      -----  --------------------------------   ------------------------
     0000C0A0  __cpu                              Runtime
     0000C0A1  __is_GBA                           Runtime
     0000C0A2  .mode                              Runtime
     0000C0A3  .sys_time                          Runtime
     0000C0A3  _sys_time                          Runtime
     0000C0A5  .int_0x40                          Runtime
     0000C0B1  _actors                            actor
     0000C4F5  _actors_active_head                actor
     0000C4F7  _actors_active_tail                actor
     0000C4F9  _actors_inactive_head              actor
     0000C4FB  _screen_x                          actor
     0000C4FC  _screen_y                          actor
     0000C4FD  _invalid                           actor
     0000C4FF  _player_moving                     actor
     0000C500  _player_iframes                    actor
     0000C501  _player_collision_actor            actor
     0000C503  _emote_actor                       actor
     0000C505  _emote_timer                       actor
     0000C506  _allocated_sprite_tiles            actor
     0000C507  _allocated_hardware_sprites        actor
     0000C514  _camera_x                          camera
     0000C516  _camera_y                          camera
     0000C518  _camera_offset_x                   camera
     0000C519  _camera_offset_y                   camera
     0000C51A  _camera_deadzone_x                 camera
     0000C51B  _camera_deadzone_y                 camera
     0000C51C  _camera_settings                   camera
     0000C520  _current_scene                     data_manager
     0000C523  _image_bank                        data_manager
     0000C524  _image_ptr                         data_manager
     0000C526  _image_attr_bank                   data_manager
     0000C527  _image_attr_ptr                    data_manager
     0000C529  _collision_bank                    data_manager
     0000C52A  _collision_ptr                     data_manager
     0000C52C  _image_tile_width                  data_manager
     0000C52D  _image_tile_height                 data_manager
     0000C52E  _image_width                       data_manager
     0000C530  _image_height                      data_manager
     0000C532  _sprites_len                       data_manager
     0000C533  _actors_len                        data_manager
     0000C534  _projectiles_len                   data_manager
     0000C535  _player_sprite_len                 data_manager
     0000C536  _scene_type                        data_manager
     0000C537  _scene_LCD_type                    data_manager
     0000C538  _scene_stack                       data_manager
     0000C578  _scene_stack_ptr                   data_manager
     0000C57A  _scene_sprites_base_tiles          data_manager
     0000C5BA  _input_events                      events
     0000C5E2  _input_slots                       events
     0000C5EA  _timer_events                      events
ASxxxx Linker V03.00/V05.40 + sdld,  page 52.
Hexadecimal  [32-Bits]

Area                                    Addr        Size        Decimal Bytes (Attributes)
--------------------------------        ----        ----        ------- ----- ------------
_DATA                               0000C0A0    00001971 =        6513. bytes (REL,CON)

      Value  Global                              Global Defined In Module
      -----  --------------------------------   ------------------------
     0000C5FE  _timer_values                      events
     0000C606  _fade_running                      fade_manager
     0000C607  _fade_frames_per_step              fade_manager
     0000C608  _fade_timer                        fade_manager
     0000C610  _joypads                           input
     0000C615  _frame_joy                         input
     0000C616  _last_joy                          input
     0000C617  _recent_joy                        input
     0000C618  _SIO_status                        
     0000C619  _link_byte_sent                    
     0000C61A  _link_next_mode                    
     0000C61B  _save_blob_size                    load_save
     0000C61D  _routine_queue                     music_manager
     0000C621  _routine_queue_head                music_manager
     0000C622  _routine_queue_tail                music_manager
     0000C623  _music_events                      music_manager
     0000C637  _music_current_track_bank          music_manager
     0000C638  _music_mute_mask                   music_manager
     0000C639  _music_effective_mute              music_manager
     0000C63A  _music_next_track                  music_manager
     0000C63C  _music_current_track               music_manager
     0000C63E  _music_play_isr_counter            music_manager
     0000C63F  _music_play_isr_pause              music_manager
     0000C640  _music_global_mute_mask            music_manager
     0000C641  _music_sfx_priority                music_manager
     0000C642  _DMG_palette                       palette
     0000C645  _SprPalette                        palette
     0000C685  _parallax_rows                     parallax
     0000C697  _parallax_row                      parallax
     0000C699  _projectiles                       projectiles
     0000C752  _projectile_defs                   projectiles
     0000C7C5  _projectiles_active_head           projectiles
     0000C7C7  _projectiles_inactive_head         projectiles
     0000C7CE  _scroll_x                          scroll
     0000C7D0  _scroll_y                          scroll
     0000C7D2  _draw_scroll_x                     scroll
     0000C7D4  _draw_scroll_y                     scroll
     0000C7D6  _scroll_x_max                      scroll
     0000C7D8  _scroll_y_max                      scroll
     0000C7DA  _scroll_offset_x                   scroll
     0000C7DB  _scroll_offset_y                   scroll
     0000C7DC  _pending_h_x                       scroll
     0000C7DD  _pending_h_y                       scroll
     0000C7DE  _pending_h_i                       scroll
     0000C7DF  _pending_w_x                       scroll
     0000C7E0  _pending_w_y                       scroll
     0000C7E1  _pending_w_i                       scroll
     0000C7E2  _current_row                       scroll
     0000C7E4  _new_row                           scroll
     0000C7E6  _current_col                       scroll
     0000C7E8  _new_col                           scroll
ASxxxx Linker V03.00/V05.40 + sdld,  page 53.
Hexadecimal  [32-Bits]

Area                                    Addr        Size        Decimal Bytes (Attributes)
--------------------------------        ----        ----        ------- ----- ------------
_DATA                               0000C0A0    00001971 =        6513. bytes (REL,CON)

      Value  Global                              Global Defined In Module
      -----  --------------------------------   ------------------------
     0000C7EA  .image_tile_width                  
     0000C7EB  _sfx_play_bank                     sfx_player
     0000C7EC  _sfx_play_sample                   sfx_player
     0000C7EE  _sfx_frame_skip                    sfx_player
     0000C7EF  _link_operation_mode               sio
     0000C7F0  _link_packet                       sio
     0000C810  _link_packet_len                   sio
     0000C811  _link_packet_ptr                   sio
     0000C813  _link_packet_received              sio
     0000C814  _link_packet_snd_len               sio
     0000C815  _link_packet_snd_ptr               sio
     0000C817  _link_packet_sent                  sio
     0000C818  __is_CGB                           system
     0000C819  __is_SGB                           system
     0000C81A  __current_ram_bank                 system
     0000C81B  _triggers                          trigger
     0000C913  _last_trigger_tx                   trigger
     0000C914  _last_trigger_ty                   trigger
     0000C915  _last_trigger                      trigger
     0000C916  _win_pos_x                         ui
     0000C917  _win_dest_pos_x                    ui
     0000C918  _win_pos_y                         ui
     0000C919  _win_dest_pos_y                    ui
     0000C91A  _win_speed                         ui
     0000C91B  _text_drawn                        ui
     0000C91C  _current_text_speed                ui
     0000C91D  _text_options                      ui
     0000C91E  _text_in_speed                     ui
     0000C91F  _text_out_speed                    ui
     0000C920  _text_draw_speed                   ui
     0000C921  _text_ff_joypad                    ui
     0000C922  _text_ff                           ui
     0000C923  _text_bkg_fill                     ui
     0000C924  _ui_text_data                      ui
     0000CA2E  _vwf_current_mask                  ui
     0000CA2F  _vwf_current_rotate                ui
     0000CA30  _vwf_inverse_map                   ui
     0000CA31  _vwf_direction                     ui
     0000CA32  _vwf_current_font_desc             ui
     0000CA3A  _vwf_current_font_bank             ui
     0000CA3B  _vwf_current_font_idx              ui
     0000CA3C  _text_render_base_addr             ui
     0000CA3E  _text_scroll_addr                  ui
     0000CA40  _text_scroll_width                 ui
     0000CA41  _text_scroll_height                ui
     0000CA42  _text_scroll_fill                  ui
     0000CA43  _text_sound_mask                   ui
     0000CA44  _text_sound_bank                   ui
     0000CA45  _text_sound_data                   ui
     0000CA47  _overlay_priority                  ui
     0000CA48  _text_palette                      ui
ASxxxx Linker V03.00/V05.40 + sdld,  page 54.
Hexadecimal  [32-Bits]

Area                                    Addr        Size        Decimal Bytes (Attributes)
--------------------------------        ----        ----        ------- ----- ------------
_DATA                               0000C0A0    00001971 =        6513. bytes (REL,CON)

      Value  Global                              Global Defined In Module
      -----  --------------------------------   ------------------------
     0000CA4F  __itoa_fmt_len                     vm_ui_a
     0000CA50  .itoa_fmt_buf                      vm_ui_a
     0000CA53  _CTXS                              vm
     0000CB83  _first_ctx                         vm
     0000CB85  _free_ctxs                         vm
     0000CB87  _old_executing_ctx                 vm
     0000CB89  _executing_ctx                     vm
     0000CB8B  _vm_lock_state                     vm
     0000CB8C  _vm_loaded_state                   vm
     0000CB8D  _vm_exception_code                 vm
     0000CB8E  _vm_exception_params_length        vm
     0000CB8F  _vm_exception_params_bank          vm
     0000CB90  _vm_exception_params_offset        vm
     0000CB94  _script_memory                     vm
     0000D99A  _topdown_grid                      topdown
     0000D99B  ___rand_seed                       
     0000D9B9  _hUGE_current_wave                 hUGEDriver_obj
     0000D9B9  hUGE_current_wave                  hUGEDriver_obj
     0000D9BA  _hUGE_mute_mask                    hUGEDriver_obj
     0000DA01  ___call_banked_addr                far_ptr
     0000DA01  ___call_banked_ptr                 far_ptr
     0000DA03  ___call_banked_bank                far_ptr
     0000DA05  .int_0x48                          
     0000DA0D  ___current_metasprite              Metasprites
     0000DA0F  ___current_base_tile               Metasprites
     0000DA10  ___current_base_prop               Metasprites

ASxxxx Linker V03.00/V05.40 + sdld,  page 55.
Hexadecimal  [32-Bits]

Area                                    Addr        Size        Decimal Bytes (Attributes)
--------------------------------        ----        ----        ------- ----- ------------
_INITIALIZED                        0000DA11    00000019 =          25. bytes (REL,CON)

      Value  Global                              Global Defined In Module
      -----  --------------------------------   ------------------------
     0000DA11  _fade_style                        fade_manager
     0000DA12  _game_time                         game_time
     0000DA13  _PRN_PKT_START                     gbprinter
     0000DA21  _hide_sprites                      interrupts
     0000DA22  _show_actors_on_overlay            interrupts
     0000DA23  _overlay_cut_scanline              interrupts
     0000DA24  __submap_tile_offset               
     0000DA25  _triggers_len                      trigger
     0000DA26  _exchange_state                    vm_sio
     0000DA27  _last_hit_trigger                  pointnclick
     0000DA28  ___render_shadow_OAM               Metasprites
     0000DA29  __map_tile_offset                  SetTileMap
ASxxxx Linker V03.00/V05.40 + sdld,  page 56.
Hexadecimal  [32-Bits]

Area                                    Addr        Size        Decimal Bytes (Attributes)
--------------------------------        ----        ----        ------- ----- ------------
_HRAM12                             00000000    00000003 =           3. bytes (ABS,CON)

      Value  Global                              Global Defined In Module
      -----  --------------------------------   ------------------------
     0000FF90  __current_bank                     Runtime
     0000FF92  __shadow_OAM_base                  Runtime

ASxxxx Linker V03.00/V05.40 + sdld,  page 57.
Hexadecimal  [32-Bits]

Area                                    Addr        Size        Decimal Bytes (Attributes)
--------------------------------        ----        ----        ------- ----- ------------
_CODE_11                            000B4000    00003FFE =       16382. bytes (REL,CON)

      Value  Global                              Global Defined In Module
      -----  --------------------------------   ------------------------
     000B4000  ___func_ACTOR                      actor
     000B4000  _actors_init                       actor
     000B403A  _emote_offsets                     actor
     000B4049  _emote_metasprite                  actor
     000B4055  _player_init                       actor
     000B407B  _deactivate_actor                  actor
     000B41DC  _activate_actor                    actor
     000B431B  _activate_actors_in_row            actor
     000B4412  _activate_actors_in_col            actor
     000B4563  _actor_set_frames                  actor
     000B45B9  _actor_set_frame_offset            actor
     000B45F4  _actor_get_frame_offset            actor
     000B4606  _actor_set_anim_idle               actor
     000B4634  _actor_set_anim_moving             actor
     000B4665  _actor_set_dir                     actor
     000B46CA  _actor_at_tile                     actor
     000B479E  _actor_in_front_of_player          actor
     000B4852  _actor_overlapping_player          actor
     000B4A61  _actor_overlapping_bb              actor
     000B4CDF  _actors_handle_player_collision    actor
     000B4D6B  _check_collision_in_direction      actor
     000B5589  ___func_VM_ACTOR                   vm_actor
     000B5589  _vm_actor_move_to                  vm_actor
     000B5FCF  _vm_actor_move_cancel              vm_actor
     000B6005  _vm_actor_activate                 vm_actor
     000B6056  _vm_actor_deactivate               vm_actor
     000B60A7  _vm_actor_begin_update             vm_actor
     000B612E  _vm_actor_terminate_update         vm_actor
     000B6175  _vm_actor_set_dir                  vm_actor
     000B61BE  _vm_actor_set_anim                 vm_actor
     000B624C  _vm_actor_set_pos                  vm_actor
     000B62C6  _vm_actor_get_pos                  vm_actor
     000B6335  _vm_actor_get_dir                  vm_actor
     000B63AF  _vm_actor_get_angle                vm_actor
     000B6430  _vm_actor_emote                    vm_actor
     000B64F4  _vm_actor_set_bounds               vm_actor
     000B6552  _vm_actor_set_spritesheet          vm_actor
     000B661C  _vm_actor_replace_tile             vm_actor
     000B6687  _vm_actor_set_anim_tick            vm_actor
     000B66C5  _vm_actor_set_move_speed           vm_actor
     000B6703  _vm_actor_set_anim_frame           vm_actor
     000B6747  _vm_actor_get_anim_frame           vm_actor
     000B6791  _vm_actor_set_anim_set             vm_actor
     000B6819  _vm_actor_set_spritesheet_by_ref   vm_actor
     000B6926  _vm_actor_set_flags                vm_actor
     000B69D4  ___func_bg_9_tilemap_attr          bg_9_tilemap_attr
     000B69D4  _bg_9_tilemap_attr                 bg_9_tilemap_attr
     000B79DC  ___func_bg_worldddd_tileset        bg_worldddd_tileset
     000B79DC  _bg_worldddd_tileset               bg_worldddd_tileset

ASxxxx Linker V03.00/V05.40 + sdld,  page 58.
Hexadecimal  [32-Bits]

Area                                    Addr        Size        Decimal Bytes (Attributes)
--------------------------------        ----        ----        ------- ----- ------------
_CODE_33                            00214000    0000173B =        5947. bytes (REL,CON)

      Value  Global                              Global Defined In Module
      -----  --------------------------------   ------------------------
     00214000  _bootstrap_script                  
     0021400B  _camera_init                       camera
     00214031  _input_init                        input
     00214057  _parallax_init                     parallax
     00214077  _SIO_init                          sio
     002140A0  _actor_10_interact                 actor_10_interact
     002140A1  GBVM$actor_10_interact$f0972d05_   actor_10_interact
     002140D5  _actor_15_interact                 actor_15_interact
     002140D6  GBVM$actor_15_interact$69da5f63_   actor_15_interact
     0021410E  _actor_16_interact                 actor_16_interact
     0021410F  GBVM$actor_16_interact$b1ddd598_   actor_16_interact
     00214147  _actor_9_interact                  actor_9_interact
     00214148  GBVM$actor_9_interact$ed26ff28_e   actor_9_interact
     0021417C  ___func_bg_10                      bg_10
     0021417C  _bg_10                             bg_10
     0021418A  ___func_bg_2                       bg_2
     0021418A  _bg_2                              bg_2
     00214198  ___func_bg_3                       bg_3
     00214198  _bg_3                              bg_3
     002141A6  ___func_bg_4                       bg_4
     002141A6  _bg_4                              bg_4
     002141B4  ___func_bg_5                       bg_5
     002141B4  _bg_5                              bg_5
     002141C2  ___func_bg_6_1__tileset            bg_6_1__tileset
     002141C2  _bg_6_1__tileset                   bg_6_1__tileset
     002141F4  ___func_bg_6_1_                    bg_6_1_
     002141F4  _bg_6_1_                           bg_6_1_
     00214202  ___func_bg_6                       bg_6
     00214202  _bg_6                              bg_6
     00214210  ___func_bg_7                       bg_7
     00214210  _bg_7                              bg_7
     0021421E  ___func_bg_8                       bg_8
     0021421E  _bg_8                              bg_8
     0021422C  ___func_bg_9_1__tileset            bg_9_1__tileset
     0021422C  _bg_9_1__tileset                   bg_9_1__tileset
     0021425E  ___func_bg_9_1_                    bg_9_1_
     0021425E  _bg_9_1_                           bg_9_1_
     0021426C  ___func_bg_9                       bg_9
     0021426C  _bg_9                              bg_9
     0021427A  ___func_bg_avcclaude               bg_avcclaude
     0021427A  _bg_avcclaude                      bg_avcclaude
     00214288  ___func_bg_b0027_copie             bg_b0027_copie
     00214288  _bg_b0027_copie                    bg_b0027_copie
     00214296  ___func_bg_black_copie             bg_black_copie
     00214296  _bg_black_copie                    bg_black_copie
     002142A4  ___func_bg_black                   bg_black
     002142A4  _bg_black                          bg_black
     002142B2  ___func_bg_blackdoor               bg_blackdoor
     002142B2  _bg_blackdoor                      bg_blackdoor
     002142C0  ___func_bg_castle_town_map2        bg_castle_town_map2
ASxxxx Linker V03.00/V05.40 + sdld,  page 59.
Hexadecimal  [32-Bits]

Area                                    Addr        Size        Decimal Bytes (Attributes)
--------------------------------        ----        ----        ------- ----- ------------
_CODE_33                            00214000    0000173B =        5947. bytes (REL,CON)

      Value  Global                              Global Defined In Module
      -----  --------------------------------   ------------------------
     002142C0  _bg_castle_town_map2               bg_castle_town_map2
     002142CE  ___func_bg_castle_town             bg_castle_town
     002142CE  _bg_castle_town                    bg_castle_town
     002142DC  ___func_bg_chamberkriso2           bg_chamberkriso2
     002142DC  _bg_chamberkriso2                  bg_chamberkriso2
     002142EA  ___func_bg_city1                   bg_city1
     002142EA  _bg_city1                          bg_city1
     002142F8  ___func_bg_city2                   bg_city2
     002142F8  _bg_city2                          bg_city2
     00214306  ___func_bg_dogchecksavedata_copi   bg_dogchecksavedata_copie_0
     00214306  _bg_dogchecksavedata_copie_0       bg_dogchecksavedata_copie_0
     00214314  ___func_bg_dogchecksavedata_copi   bg_dogchecksavedata_copie
     00214314  _bg_dogchecksavedata_copie         bg_dogchecksavedata_copie
     00214322  ___func_bg_dogchecksavedata        bg_dogchecksavedata
     00214322  _bg_dogchecksavedata               bg_dogchecksavedata
     00214330  ___func_bg_exterior                bg_exterior
     00214330  _bg_exterior                       bg_exterior
     0021433E  ___func_bg_fountaincastle          bg_fountaincastle
     0021433E  _bg_fountaincastle                 bg_fountaincastle
     0021434C  ___func_bg_gameover                bg_gameover
     0021434C  _bg_gameover                       bg_gameover
     0021435A  ___func_bg_kris_s                  bg_kris_s
     0021435A  _bg_kris_s                         bg_kris_s
     00214368  ___func_bg_kris_ss                 bg_kris_ss
     00214368  _bg_kris_ss                        bg_kris_ss
     00214376  ___func_bg_krislegend              bg_krislegend
     00214376  _bg_krislegend                     bg_krislegend
     00214384  ___func_bg_legend1d                bg_legend1d
     00214384  _bg_legend1d                       bg_legend1d
     00214392  ___func_bg_legend2                 bg_legend2
     00214392  _bg_legend2                        bg_legend2
     002143A0  ___func_bg_legend3                 bg_legend3
     002143A0  _bg_legend3                        bg_legend3
     002143AE  ___func_bg_legend4                 bg_legend4
     002143AE  _bg_legend4                        bg_legend4
     002143BC  ___func_bg_legend5d                bg_legend5d
     002143BC  _bg_legend5d                       bg_legend5d
     002143CA  ___func_bg_legend6d                bg_legend6d
     002143CA  _bg_legend6d                       bg_legend6d
     002143D8  ___func_bg_legend7f                bg_legend7f
     002143D8  _bg_legend7f                       bg_legend7f
     002143E6  ___func_bg_legendsealfountain      bg_legendsealfountain
     002143E6  _bg_legendsealfountain             bg_legendsealfountain
     002143F4  ___func_bg_new_piskel_43_          bg_new_piskel_43_
     002143F4  _bg_new_piskel_43_                 bg_new_piskel_43_
     00214402  ___func_bg_quelesttonnom_copie     bg_quelesttonnom_copie
     00214402  _bg_quelesttonnom_copie            bg_quelesttonnom_copie
     00214410  ___func_bg_quelesttonnom           bg_quelesttonnom
     00214410  _bg_quelesttonnom                  bg_quelesttonnom
     0021441E  ___func_bg_ralseilegend            bg_ralseilegend
     0021441E  _bg_ralseilegend                   bg_ralseilegend
ASxxxx Linker V03.00/V05.40 + sdld,  page 60.
Hexadecimal  [32-Bits]

Area                                    Addr        Size        Decimal Bytes (Attributes)
--------------------------------        ----        ----        ------- ----- ------------
_CODE_33                            00214000    0000173B =        5947. bytes (REL,CON)

      Value  Global                              Global Defined In Module
      -----  --------------------------------   ------------------------
     0021442C  ___func_bg_room                    bg_room
     0021442C  _bg_room                           bg_room
     0021443A  ___func_bg_schoolcorridor1         bg_schoolcorridor1
     0021443A  _bg_schoolcorridor1                bg_schoolcorridor1
     00214448  ___func_bg_schoolext               bg_schoolext
     00214448  _bg_schoolext                      bg_schoolext
     00214456  ___func_bg_schoolint               bg_schoolint
     00214456  _bg_schoolint                      bg_schoolint
     00214464  ___func_bg_secoundfountain         bg_secoundfountain
     00214464  _bg_secoundfountain                bg_secoundfountain
     00214472  ___func_bg_susielegend             bg_susielegend
     00214472  _bg_susielegend                    bg_susielegend
     00214480  ___func_bg_the_castle_copie        bg_the_castle_copie
     00214480  _bg_the_castle_copie               bg_the_castle_copie
     0021448E  ___func_bg_thetle                  bg_thetle
     0021448E  _bg_thetle                         bg_thetle
     0021449C  ___func_bg_title                   bg_title
     0021449C  _bg_title                          bg_title
     002144AA  ___func_bg_toilet                  bg_toilet
     002144AA  _bg_toilet                         bg_toilet
     002144B8  ___func_bg_toilet2                 bg_toilet2
     002144B8  _bg_toilet2                        bg_toilet2
     002144C6  ___func_bg_untitled                bg_untitled
     002144C6  _bg_untitled                       bg_untitled
     002144D4  ___func_bg_worldddd                bg_worldddd
     002144D4  _bg_worldddd                       bg_worldddd
     002144E2  ___func_bg_worldddddark            bg_worldddddark
     002144E2  _bg_worldddddark                   bg_worldddddark
     002144F0  ___func_cursor_image               cursor_image
     002144F0  _cursor_image                      cursor_image
     00214500  ___func_scene_14_actors            scene_14_actors
     00214500  _scene_14_actors                   scene_14_actors
     00214534  _scene_14_init                     scene_14_init
     00214535  GBVM$scene_14_init$autofade$342f   scene_14_init
     00214541  ___func_scene_14_triggers          scene_14_triggers
     00214541  _scene_14_triggers                 scene_14_triggers
     00214559  ___func_scene_21_sprites           scene_21_sprites
     00214559  _scene_21_sprites                  scene_21_sprites
     00214568  ___func_scene_25_actors            scene_25_actors
     00214568  _scene_25_actors                   scene_25_actors
     0021459C  _scene_25_init                     scene_25_init
     0021459D  GBVM$scene_25_init$autofade$62fd   scene_25_init
     002145A9  ___func_scene_25_triggers          scene_25_triggers
     002145A9  _scene_25_triggers                 scene_25_triggers
     002145C1  ___func_scene_29_sprites           scene_29_sprites
     002145C1  _scene_29_sprites                  scene_29_sprites
     002145CD  _scene_32_init                     scene_32_init
     002145D0  GBVM$scene_32_init$82c2693a_4498   scene_32_init
     002145D9  GBVM$scene_32_init$autofade$5258   scene_32_init
     002145E5  ___func_scene_32_sprites           scene_32_sprites
     002145E5  _scene_32_sprites                  scene_32_sprites
ASxxxx Linker V03.00/V05.40 + sdld,  page 61.
Hexadecimal  [32-Bits]

Area                                    Addr        Size        Decimal Bytes (Attributes)
--------------------------------        ----        ----        ------- ----- ------------
_CODE_33                            00214000    0000173B =        5947. bytes (REL,CON)

      Value  Global                              Global Defined In Module
      -----  --------------------------------   ------------------------
     002145E8  ___func_scene_32_triggers          scene_32_triggers
     002145E8  _scene_32_triggers                 scene_32_triggers
     002145F8  _scene_33_init                     scene_33_init
     002145F9  GBVM$scene_33_init$autofade$97ad   scene_33_init
     00214605  ___func_scene_33_triggers          scene_33_triggers
     00214605  _scene_33_triggers                 scene_33_triggers
     0021461D  _scene_34_init                     scene_34_init
     0021461E  GBVM$scene_34_init$autofade$6df7   scene_34_init
     0021462A  ___func_scene_34_sprites           scene_34_sprites
     0021462A  _scene_34_sprites                  scene_34_sprites
     0021462D  ___func_scene_34_triggers          scene_34_triggers
     0021462D  _scene_34_triggers                 scene_34_triggers
     0021463D  ___func_scene_35_actors            scene_35_actors
     0021463D  _scene_35_actors                   scene_35_actors
     00214671  _scene_35_init                     scene_35_init
     00214672  GBVM$scene_35_init$autofade$e0f6   scene_35_init
     0021467E  ___func_scene_35_sprites           scene_35_sprites
     0021467E  _scene_35_sprites                  scene_35_sprites
     00214681  ___func_scene_35_triggers          scene_35_triggers
     00214681  _scene_35_triggers                 scene_35_triggers
     00214689  _scene_36_init                     scene_36_init
     0021468A  GBVM$scene_36_init$autofade$31d1   scene_36_init
     00214696  ___func_scene_36_sprites           scene_36_sprites
     00214696  _scene_36_sprites                  scene_36_sprites
     00214699  ___func_scene_36_triggers          scene_36_triggers
     00214699  _scene_36_triggers                 scene_36_triggers
     002146A9  ___func_scene_37_sprites           scene_37_sprites
     002146A9  _scene_37_sprites                  scene_37_sprites
     002146AF  ___func_scene_41_sprites           scene_41_sprites
     002146AF  _scene_41_sprites                  scene_41_sprites
     002146B5  _scene_43_init                     scene_43_init
     002146B6  GBVM$scene_43_init$33d7e274_919d   scene_43_init
     002146BE  GBVM$scene_43_init$af207f73_9c82   scene_43_init
     002146BE  GBVM_END$scene_43_init$33d7e274_   scene_43_init
     002146C6  GBVM$scene_43_init$f61c650f_9951   scene_43_init
     002146C6  GBVM_END$scene_43_init$af207f73_   scene_43_init
     002146CE  GBVM$scene_43_init$8d5e7dc9_3508   scene_43_init
     002146CE  GBVM_END$scene_43_init$f61c650f_   scene_43_init
     002146D6  GBVM$scene_43_init$autofade$565b   scene_43_init
     002146D6  GBVM_END$scene_43_init$8d5e7dc9_   scene_43_init
     002146E2  ___func_scene_44_triggers          scene_44_triggers
     002146E2  _scene_44_triggers                 scene_44_triggers
     002146EA  ___func_scene_45_sprites           scene_45_sprites
     002146EA  _scene_45_sprites                  scene_45_sprites
     002146FC  ___func_scene_45_triggers          scene_45_triggers
     002146FC  _scene_45_triggers                 scene_45_triggers
     00214704  ___func_scene_46_actors            scene_46_actors
     00214704  _scene_46_actors                   scene_46_actors
     00214738  ___func_scene_46_sprites           scene_46_sprites
     00214738  _scene_46_sprites                  scene_46_sprites
     0021473B  ___func_scene_47_actors            scene_47_actors
ASxxxx Linker V03.00/V05.40 + sdld,  page 62.
Hexadecimal  [32-Bits]

Area                                    Addr        Size        Decimal Bytes (Attributes)
--------------------------------        ----        ----        ------- ----- ------------
_CODE_33                            00214000    0000173B =        5947. bytes (REL,CON)

      Value  Global                              Global Defined In Module
      -----  --------------------------------   ------------------------
     0021473B  _scene_47_actors                   scene_47_actors
     0021476F  ___func_scene_47_sprites           scene_47_sprites
     0021476F  _scene_47_sprites                  scene_47_sprites
     00214772  ___func_scene_47_triggers          scene_47_triggers
     00214772  _scene_47_triggers                 scene_47_triggers
     0021477A  ___func_scene_48_actors            scene_48_actors
     0021477A  _scene_48_actors                   scene_48_actors
     002147AE  ___func_scene_48_sprites           scene_48_sprites
     002147AE  _scene_48_sprites                  scene_48_sprites
     002147B1  ___func_scene_51_actors            scene_51_actors
     002147B1  _scene_51_actors                   scene_51_actors
     002147E5  ___func_scene_51_sprites           scene_51_sprites
     002147E5  _scene_51_sprites                  scene_51_sprites
     002147E8  _scene_54_init                     scene_54_init
     002147E9  GBVM$scene_54_init$autofade$5782   scene_54_init
     002147F5  ___func_scene_54_triggers          scene_54_triggers
     002147F5  _scene_54_triggers                 scene_54_triggers
     002147FD  ___func_scene_54                   scene_54
     002147FD  _scene_54                          scene_54
     00214838  ___func_scene_55_actors            scene_55_actors
     00214838  _scene_55_actors                   scene_55_actors
     0021486C  _scene_55_init                     scene_55_init
     0021486D  GBVM$scene_55_init$autofade$70ef   scene_55_init
     00214879  ___func_scene_55_sprites           scene_55_sprites
     00214879  _scene_55_sprites                  scene_55_sprites
     0021487C  ___func_scene_55_triggers          scene_55_triggers
     0021487C  _scene_55_triggers                 scene_55_triggers
     0021488C  ___func_scene_55                   scene_55
     0021488C  _scene_55                          scene_55
     002148C7  _scene_56_init                     scene_56_init
     002148CA  GBVM$scene_56_init$3f868dc3_e4bc   scene_56_init
     002148D4  GBVM$scene_56_init$autofade$1f3a   scene_56_init
     002148E0  ___func_scene_56_triggers          scene_56_triggers
     002148E0  _scene_56_triggers                 scene_56_triggers
     002148E8  ___func_scene_56                   scene_56
     002148E8  _scene_56                          scene_56
     00214923  _scene_57_init                     scene_57_init
     00214924  GBVM$scene_57_init$autofade$4621   scene_57_init
     00214930  ___func_scene_57_triggers          scene_57_triggers
     00214930  _scene_57_triggers                 scene_57_triggers
     00214940  ___func_scene_57                   scene_57
     00214940  _scene_57                          scene_57
     0021497B  _scene_58_init                     scene_58_init
     0021497C  GBVM$scene_58_init$autofade$bc9e   scene_58_init
     00214988  ___func_scene_58                   scene_58
     00214988  _scene_58                          scene_58
     002149C3  ___func_scene_59_actors            scene_59_actors
     002149C3  _scene_59_actors                   scene_59_actors
     002149F7  _scene_59_init                     scene_59_init
     002149F8  GBVM$scene_59_init$autofade$6dfa   scene_59_init
     00214A04  ___func_scene_59_sprites           scene_59_sprites
ASxxxx Linker V03.00/V05.40 + sdld,  page 63.
Hexadecimal  [32-Bits]

Area                                    Addr        Size        Decimal Bytes (Attributes)
--------------------------------        ----        ----        ------- ----- ------------
_CODE_33                            00214000    0000173B =        5947. bytes (REL,CON)

      Value  Global                              Global Defined In Module
      -----  --------------------------------   ------------------------
     00214A04  _scene_59_sprites                  scene_59_sprites
     00214A07  ___func_scene_59_triggers          scene_59_triggers
     00214A07  _scene_59_triggers                 scene_59_triggers
     00214A0F  ___func_scene_59                   scene_59
     00214A0F  _scene_59                          scene_59
     00214A4A  ___func_scene_6                    scene_6
     00214A4A  _scene_6                           scene_6
     00214A85  _scene_60_init                     scene_60_init
     00214A88  GBVM$scene_60_init$18c47ed7_ea60   scene_60_init
     00214A92  GBVM$scene_60_init$autofade$275b   scene_60_init
     00214A9E  ___func_scene_60_sprites           scene_60_sprites
     00214A9E  _scene_60_sprites                  scene_60_sprites
     00214AA1  ___func_scene_60_triggers          scene_60_triggers
     00214AA1  _scene_60_triggers                 scene_60_triggers
     00214AB1  ___func_scene_60                   scene_60
     00214AB1  _scene_60                          scene_60
     00214AEC  _scene_61_init                     scene_61_init
     00214AED  GBVM$scene_61_init$autofade$215c   scene_61_init
     00214AF9  ___func_scene_61_sprites           scene_61_sprites
     00214AF9  _scene_61_sprites                  scene_61_sprites
     00214AFF  ___func_scene_61_triggers          scene_61_triggers
     00214AFF  _scene_61_triggers                 scene_61_triggers
     00214B17  ___func_scene_61                   scene_61
     00214B17  _scene_61                          scene_61
     00214B52  _scene_62_init                     scene_62_init
     00214B53  GBVM$scene_62_init$autofade$f776   scene_62_init
     00214B5F  ___func_scene_62                   scene_62
     00214B5F  _scene_62                          scene_62
     00214B9A  ___func_scene_63_actors            scene_63_actors
     00214B9A  _scene_63_actors                   scene_63_actors
     00214BCE  ___func_scene_63_sprites           scene_63_sprites
     00214BCE  _scene_63_sprites                  scene_63_sprites
     00214BD1  ___func_scene_63_triggers          scene_63_triggers
     00214BD1  _scene_63_triggers                 scene_63_triggers
     00214BD9  ___func_scene_63                   scene_63
     00214BD9  _scene_63                          scene_63
     00214C14  _scene_64_init                     scene_64_init
     00214C15  GBVM$scene_64_init$autofade$d69b   scene_64_init
     00214C21  ___func_scene_64_triggers          scene_64_triggers
     00214C21  _scene_64_triggers                 scene_64_triggers
     00214C31  ___func_scene_64                   scene_64
     00214C31  _scene_64                          scene_64
     00214C6C  ___func_scene_65_sprites           scene_65_sprites
     00214C6C  _scene_65_sprites                  scene_65_sprites
     00214C72  ___func_scene_65_triggers          scene_65_triggers
     00214C72  _scene_65_triggers                 scene_65_triggers
     00214C7A  ___func_scene_65                   scene_65
     00214C7A  _scene_65                          scene_65
     00214CB5  ___func_scene_66_actors            scene_66_actors
     00214CB5  _scene_66_actors                   scene_66_actors
     00214CE9  ___func_scene_66_sprites           scene_66_sprites
ASxxxx Linker V03.00/V05.40 + sdld,  page 64.
Hexadecimal  [32-Bits]

Area                                    Addr        Size        Decimal Bytes (Attributes)
--------------------------------        ----        ----        ------- ----- ------------
_CODE_33                            00214000    0000173B =        5947. bytes (REL,CON)

      Value  Global                              Global Defined In Module
      -----  --------------------------------   ------------------------
     00214CE9  _scene_66_sprites                  scene_66_sprites
     00214CEC  ___func_scene_66_triggers          scene_66_triggers
     00214CEC  _scene_66_triggers                 scene_66_triggers
     00214CFC  ___func_scene_66                   scene_66
     00214CFC  _scene_66                          scene_66
     00214D37  _scene_67_init                     scene_67_init
     00214D38  GBVM$scene_67_init$autofade$81f6   scene_67_init
     00214D44  ___func_scene_67_triggers          scene_67_triggers
     00214D44  _scene_67_triggers                 scene_67_triggers
     00214D54  ___func_scene_67                   scene_67
     00214D54  _scene_67                          scene_67
     00214D8F  ___func_scene_68_actors            scene_68_actors
     00214D8F  _scene_68_actors                   scene_68_actors
     00214DC3  _scene_68_init                     scene_68_init
     00214DC4  GBVM$scene_68_init$autofade$3348   scene_68_init
     00214DD0  ___func_scene_68_sprites           scene_68_sprites
     00214DD0  _scene_68_sprites                  scene_68_sprites
     00214DD3  ___func_scene_68_triggers          scene_68_triggers
     00214DD3  _scene_68_triggers                 scene_68_triggers
     00214DE3  ___func_scene_68                   scene_68
     00214DE3  _scene_68                          scene_68
     00214E1E  ___func_scene_7                    scene_7
     00214E1E  _scene_7                           scene_7
     00214E59  ___func_scene_8                    scene_8
     00214E59  _scene_8                           scene_8
     00214E94  ___func_scene_9                    scene_9
     00214E94  _scene_9                           scene_9
     00214ECF  ___func_scene_logo                 scene_logo
     00214ECF  _scene_logo                        scene_logo
     00214F0A  ___func_sound_legacy_0_1           sound_legacy_0_1
     00214F0A  _sound_legacy_0_1                  sound_legacy_0_1
     00214F33  ___func_sound_legacy_0_2           sound_legacy_0_2
     00214F33  _sound_legacy_0_2                  sound_legacy_0_2
     00214F40  ___func_sound_legacy_0             sound_legacy_0
     00214F40  _sound_legacy_0                    sound_legacy_0
     00214F53  ___func_sprite_cursor              sprite_cursor
     00214F53  _sprite_cursor_metasprite_0        sprite_cursor
     00214F5B  _sprite_cursor_metasprite_1        sprite_cursor
     00214F63  _sprite_cursor_metasprites         sprite_cursor
     00214F67  _sprite_cursor_animations          sprite_cursor
     00214F77  _sprite_cursor_animations_lookup   sprite_cursor
     00214F79  _sprite_cursor                     sprite_cursor
     00214F8C  ___func_sprite_krisbt2o            sprite_krisbt2o
     00214F8C  _sprite_krisbt2o_metasprite_0      sprite_krisbt2o
     00214FA0  _sprite_krisbt2o_metasprites       sprite_krisbt2o
     00214FA2  _sprite_krisbt2o_animations        sprite_krisbt2o
     00214FB2  _sprite_krisbt2o_animations_look   sprite_krisbt2o
     00214FB4  _sprite_krisbt2o                   sprite_krisbt2o
     00214FC7  ___func_sprite_lacer_shadow        sprite_lacer_shadow
     00214FC7  _sprite_lacer_shadow_metasprite_   sprite_lacer_shadow
     00214FD3  _sprite_lacer_shadow_metasprites   sprite_lacer_shadow
ASxxxx Linker V03.00/V05.40 + sdld,  page 65.
Hexadecimal  [32-Bits]

Area                                    Addr        Size        Decimal Bytes (Attributes)
--------------------------------        ----        ----        ------- ----- ------------
_CODE_33                            00214000    0000173B =        5947. bytes (REL,CON)

      Value  Global                              Global Defined In Module
      -----  --------------------------------   ------------------------
     00214FD5  _sprite_lacer_shadow_animations    sprite_lacer_shadow
     00214FE5  _sprite_lacer_shadow_animations_   sprite_lacer_shadow
     00214FE7  _sprite_lacer_shadow               sprite_lacer_shadow
     00214FFA  ___func_sprite_lightshard          sprite_lightshard
     00214FFA  _sprite_lightshard_metasprite_0    sprite_lightshard
     00215002  _sprite_lightshard_metasprite_1    sprite_lightshard
     0021500A  _sprite_lightshard_metasprites     sprite_lightshard
     0021500E  _sprite_lightshard_animations      sprite_lightshard
     0021501E  _sprite_lightshard_animations_lo   sprite_lightshard
     00215020  _sprite_lightshard                 sprite_lightshard
     00215033  ___func_sprite_ralsss              sprite_ralsss
     00215033  _sprite_ralsss_metasprite_0        sprite_ralsss
     0021503F  _sprite_ralsss_metasprites         sprite_ralsss
     00215041  _sprite_ralsss_animations          sprite_ralsss
     00215051  _sprite_ralsss_animations_lookup   sprite_ralsss
     00215053  _sprite_ralsss                     sprite_ralsss
     00215066  ___func_sprite_room2               sprite_room2
     00215066  _sprite_room2                      sprite_room2
     00215074  ___func_sprite_sword2o             sprite_sword2o
     00215074  _sprite_sword2o_metasprite_0       sprite_sword2o
     00215088  _sprite_sword2o_metasprites        sprite_sword2o
     0021508A  _sprite_sword2o_animations         sprite_sword2o
     0021509A  _sprite_sword2o_animations_looku   sprite_sword2o
     0021509C  _sprite_sword2o                    sprite_sword2o
     002150AF  _spritesheet_none_metasprite       spritesheet_none
     002150B3  _spritesheet_none_metasprites      spritesheet_none
     002150B5  _spritesheet_none                  spritesheet_none
     002150C8  _trigger_1_interact                trigger_1_interact
     002150CB  GBVM$trigger_1_interact$25d7be62   trigger_1_interact
     002150FE  _trigger_10_interact               trigger_10_interact
     00215101  GBVM$trigger_10_interact$bf8df5e   trigger_10_interact
     00215134  _trigger_17_interact               trigger_17_interact
     00215137  GBVM$trigger_17_interact$ace066a   trigger_17_interact
     0021516A  _trigger_18_interact               trigger_18_interact
     0021516D  GBVM$trigger_18_interact$27edca1   trigger_18_interact
     002151A0  _trigger_19_interact               trigger_19_interact
     002151A3  GBVM$trigger_19_interact$216eac7   trigger_19_interact
     002151D6  _trigger_2_interact                trigger_2_interact
     002151D9  GBVM$trigger_2_interact$4eb724d8   trigger_2_interact
     0021520C  _trigger_20_interact               trigger_20_interact
     0021520F  GBVM$trigger_20_interact$889ff37   trigger_20_interact
     00215242  _trigger_22_interact               trigger_22_interact
     00215245  GBVM$trigger_22_interact$d5c9bf8   trigger_22_interact
     00215277  GBVM$trigger_22_interact$4c91378   trigger_22_interact
     0021527D  _trigger_23_interact               trigger_23_interact
     00215280  GBVM$trigger_23_interact$e800a44   trigger_23_interact
     002152B3  _trigger_24_interact               trigger_24_interact
     002152B6  GBVM$trigger_24_interact$ebb636c   trigger_24_interact
     002152E9  _trigger_25_interact               trigger_25_interact
     002152EC  GBVM$trigger_25_interact$1b135d8   trigger_25_interact
     0021531F  _trigger_26_interact               trigger_26_interact
ASxxxx Linker V03.00/V05.40 + sdld,  page 66.
Hexadecimal  [32-Bits]

Area                                    Addr        Size        Decimal Bytes (Attributes)
--------------------------------        ----        ----        ------- ----- ------------
_CODE_33                            00214000    0000173B =        5947. bytes (REL,CON)

      Value  Global                              Global Defined In Module
      -----  --------------------------------   ------------------------
     00215322  GBVM$trigger_26_interact$17b25ea   trigger_26_interact
     00215346  _trigger_27_interact               trigger_27_interact
     00215349  GBVM$trigger_27_interact$9ae5098   trigger_27_interact
     0021537C  _trigger_28_interact               trigger_28_interact
     0021537F  GBVM$trigger_28_interact$5b36a6b   trigger_28_interact
     002153B2  _trigger_29_interact               trigger_29_interact
     002153B5  GBVM$trigger_29_interact$7500754   trigger_29_interact
     002153E8  _trigger_3_interact                trigger_3_interact
     002153EB  GBVM$trigger_3_interact$cd1bcae7   trigger_3_interact
     0021541E  _trigger_30_interact               trigger_30_interact
     00215421  GBVM$trigger_30_interact$1753297   trigger_30_interact
     00215454  _trigger_31_interact               trigger_31_interact
     00215457  GBVM$trigger_31_interact$ffd46d3   trigger_31_interact
     0021548A  _trigger_32_interact               trigger_32_interact
     0021548D  GBVM$trigger_32_interact$273e9df   trigger_32_interact
     002154C0  _trigger_33_interact               trigger_33_interact
     002154C3  GBVM$trigger_33_interact$7d07baf   trigger_33_interact
     002154E7  _trigger_34_interact               trigger_34_interact
     002154EA  GBVM$trigger_34_interact$5844bf1   trigger_34_interact
     0021551D  _trigger_35_interact               trigger_35_interact
     00215520  GBVM$trigger_35_interact$2f90f2f   trigger_35_interact
     00215544  _trigger_36_interact               trigger_36_interact
     00215547  GBVM$trigger_36_interact$4452488   trigger_36_interact
     0021557A  _trigger_38_interact               trigger_38_interact
     0021557D  GBVM$trigger_38_interact$b88800c   trigger_38_interact
     002155B0  _trigger_4_interact                trigger_4_interact
     002155B3  GBVM$trigger_4_interact$218eeac5   trigger_4_interact
     002155E6  _trigger_42_interact               trigger_42_interact
     002155E9  GBVM$trigger_42_interact$8ae5ec5   trigger_42_interact
     0021561C  _trigger_5_interact                trigger_5_interact
     0021561F  GBVM$trigger_5_interact$ad30075e   trigger_5_interact
     00215652  _trigger_6_interact                trigger_6_interact
     00215655  GBVM$trigger_6_interact$0c442bb7   trigger_6_interact
     00215688  _trigger_7_interact                trigger_7_interact
     0021568B  GBVM$trigger_7_interact$aec7bd81   trigger_7_interact
     002156BE  _trigger_8_interact                trigger_8_interact
     002156C1  GBVM$trigger_8_interact$18a414ee   trigger_8_interact
     002156F4  _trigger_9_interact                trigger_9_interact
     002156F7  GBVM$trigger_9_interact$6d8108a9   trigger_9_interact
     0021572A  _logo_init                         logo
     0021573A  _logo_update                       logo

ASxxxx Linker V03.00/V05.40 + sdld,  page 67.
Hexadecimal  [32-Bits]

Area                                    Addr        Size        Decimal Bytes (Attributes)
--------------------------------        ----        ----        ------- ----- ------------
_CODE_24                            00184000    00004000 =       16384. bytes (REL,CON)

      Value  Global                              Global Defined In Module
      -----  --------------------------------   ------------------------
     00184000  _core_reset                        core
     00184075  _process_VM                        core
     001842F3  _core_run                          core
     001843CF  ___func_bg_black_tileset           bg_black_tileset
     001843CF  _bg_black_tileset                  bg_black_tileset
     001843E1  ___func_bg_blackdoor_tilemap_att   bg_blackdoor_tilemap_attr
     001843E1  _bg_blackdoor_tilemap_attr         bg_blackdoor_tilemap_attr
     001848C7  ___func_bg_blackdoor_tilemap       bg_blackdoor_tilemap
     001848C7  _bg_blackdoor_tilemap              bg_blackdoor_tilemap
     00184DAD  ___func_bg_dogchecksavedata_copi   bg_dogchecksavedata_copie_0_
     00184DAD  _bg_dogchecksavedata_copie_0_til   bg_dogchecksavedata_copie_0_
     001852DF  ___func_bg_worldddddark_tilemap_   bg_worldddddark_tilemap_attr
     001852DF  _bg_worldddddark_tilemap_attr      bg_worldddddark_tilemap_attr
     00185837  ___func_bg_worldddddark_tilemap    bg_worldddddark_tilemap
     00185837  _bg_worldddddark_tilemap           bg_worldddddark_tilemap
     00185D8F  ___func_scene_32_collisions        scene_32_collisions
     00185D8F  _scene_32_collisions               scene_32_collisions
     00186257  ___func_scene_46_collisions        scene_46_collisions
     00186257  _scene_46_collisions               scene_46_collisions
     001867AF  ___func_scene_47_collisions        scene_47_collisions
     001867AF  _scene_47_collisions               scene_47_collisions
     00186C95  ___func_scene_51_collisions        scene_51_collisions
     00186C95  _scene_51_collisions               scene_51_collisions
     001871ED  _script_2_0                        script_2_0
     001871EF  GBVM$script_2_0$9cb87bba_c650_4b   script_2_0
     00187217  GBVM$script_2_0$c05cc985_c209_49   script_2_0
     00187229  GBVM$script_2_0$2a400b29_8a26_48   script_2_0
     00187231  GBVM$script_2_0$d480f090_cffb_4a   script_2_0
     00187243  GBVM$script_2_0$f42e69b2_d04a_49   script_2_0
     0018724B  GBVM$script_2_0$3e7250ea_8d23_47   script_2_0
     0018725D  GBVM$script_2_0$5594b399_eafe_46   script_2_0
     00187265  GBVM$script_2_0$83dce41a_8fea_48   script_2_0
     00187277  GBVM$script_2_0$d5a2fd24_326c_4e   script_2_0
     0018727F  GBVM$script_2_0$7dacf6fc_4eae_41   script_2_0
     00187291  GBVM$script_2_0$8b61fc8d_b379_4c   script_2_0
     00187299  GBVM$script_2_0$5b426182_1d1d_42   script_2_0
     001872AB  GBVM$script_2_0$f6fa0a48_bb39_4b   script_2_0
     001872B3  GBVM$script_2_0$3fc7e99e_fbd0_47   script_2_0
     001872C5  GBVM$script_2_0$a934c31a_7b99_4a   script_2_0
     001872CD  GBVM$script_2_0$6eb4d4f2_6221_45   script_2_0
     001872CD  GBVM_END$script_2_0$3e7250ea_8d2   script_2_0
     001872CD  GBVM_END$script_2_0$3fc7e99e_fbd   script_2_0
     001872CD  GBVM_END$script_2_0$5b426182_1d1   script_2_0
     001872CD  GBVM_END$script_2_0$7dacf6fc_4ea   script_2_0
     001872CD  GBVM_END$script_2_0$83dce41a_8fe   script_2_0
     001872CD  GBVM_END$script_2_0$c05cc985_c20   script_2_0
     001872CD  GBVM_END$script_2_0$d480f090_cff   script_2_0
     001872D4  GBVM$script_2_0$84a11abf_e085_45   script_2_0
     001872FC  GBVM$script_2_0$02b95ea5_939f_44   script_2_0
     0018730E  GBVM$script_2_0$fc7f82dc_9b4f_46   script_2_0
ASxxxx Linker V03.00/V05.40 + sdld,  page 68.
Hexadecimal  [32-Bits]

Area                                    Addr        Size        Decimal Bytes (Attributes)
--------------------------------        ----        ----        ------- ----- ------------
_CODE_24                            00184000    00004000 =       16384. bytes (REL,CON)

      Value  Global                              Global Defined In Module
      -----  --------------------------------   ------------------------
     00187316  GBVM$script_2_0$852f0e26_37d1_4f   script_2_0
     00187328  GBVM$script_2_0$5ac0e5ab_f95c_49   script_2_0
     00187330  GBVM$script_2_0$1c7bc26f_6b21_4e   script_2_0
     00187342  GBVM$script_2_0$323a3de0_3e9d_4b   script_2_0
     0018734A  GBVM$script_2_0$793d564c_7c48_47   script_2_0
     0018735C  GBVM$script_2_0$a556f062_6bf5_49   script_2_0
     00187364  GBVM$script_2_0$237789eb_0cc7_48   script_2_0
     00187376  GBVM$script_2_0$aaec8d6f_531d_44   script_2_0
     0018737E  GBVM$script_2_0$7620e360_83ec_4d   script_2_0
     00187390  GBVM$script_2_0$8d9c62c3_2522_46   script_2_0
     00187398  GBVM$script_2_0$0062b19e_2612_40   script_2_0
     001873AA  GBVM$script_2_0$019693c1_597a_42   script_2_0
     001873B2  GBVM$script_2_0$327875bf_bb60_4c   script_2_0
     001873B2  GBVM_END$script_2_0$0062b19e_261   script_2_0
     001873B2  GBVM_END$script_2_0$02b95ea5_939   script_2_0
     001873B2  GBVM_END$script_2_0$1c7bc26f_6b2   script_2_0
     001873B2  GBVM_END$script_2_0$237789eb_0cc   script_2_0
     001873B2  GBVM_END$script_2_0$7620e360_83e   script_2_0
     001873B2  GBVM_END$script_2_0$793d564c_7c4   script_2_0
     001873B2  GBVM_END$script_2_0$852f0e26_37d   script_2_0
     001873B9  GBVM$script_2_0$2e92e83a_458f_46   script_2_0
     001873E1  GBVM$script_2_0$fcf46806_0c66_4f   script_2_0
     001873F3  GBVM$script_2_0$0683428e_428e_4a   script_2_0
     001873FB  GBVM$script_2_0$7451108f_43eb_4e   script_2_0
     0018740D  GBVM$script_2_0$94d18a38_79f3_41   script_2_0
     00187415  GBVM$script_2_0$0a3bd421_e47a_4d   script_2_0
     00187427  GBVM$script_2_0$c5b9b2b8_4278_43   script_2_0
     0018742F  GBVM$script_2_0$a882ae05_51fc_42   script_2_0
     00187441  GBVM$script_2_0$624a315d_8411_44   script_2_0
     00187449  GBVM$script_2_0$095bce24_19ed_4b   script_2_0
     0018745B  GBVM$script_2_0$3bcbcc61_8162_4c   script_2_0
     00187463  GBVM$script_2_0$4efd562e_fe16_49   script_2_0
     00187475  GBVM$script_2_0$0bd208a2_7d45_4a   script_2_0
     0018747D  GBVM$script_2_0$8ed49f82_cd6e_4f   script_2_0
     0018748F  GBVM$script_2_0$6583cde2_1c98_49   script_2_0
     00187497  GBVM$script_2_0$57a268e3_33e1_4f   script_2_0
     00187497  GBVM_END$script_2_0$095bce24_19e   script_2_0
     00187497  GBVM_END$script_2_0$0a3bd421_e47   script_2_0
     00187497  GBVM_END$script_2_0$4efd562e_fe1   script_2_0
     00187497  GBVM_END$script_2_0$7451108f_43e   script_2_0
     00187497  GBVM_END$script_2_0$8ed49f82_cd6   script_2_0
     00187497  GBVM_END$script_2_0$a882ae05_51f   script_2_0
     00187497  GBVM_END$script_2_0$fcf46806_0c6   script_2_0
     0018749E  GBVM$script_2_0$246e45fa_cee7_42   script_2_0
     001874C6  GBVM$script_2_0$1400957e_01de_40   script_2_0
     001874D8  GBVM$script_2_0$8201af47_6ec7_40   script_2_0
     001874E0  GBVM$script_2_0$9fd1144c_3ca9_4c   script_2_0
     001874F2  GBVM$script_2_0$ad6cb07e_379e_40   script_2_0
     001874FA  GBVM$script_2_0$6a1794f5_338b_40   script_2_0
     0018750C  GBVM$script_2_0$d3982e61_dd0b_49   script_2_0
     00187514  GBVM$script_2_0$20806e88_bf04_40   script_2_0
ASxxxx Linker V03.00/V05.40 + sdld,  page 69.
Hexadecimal  [32-Bits]

Area                                    Addr        Size        Decimal Bytes (Attributes)
--------------------------------        ----        ----        ------- ----- ------------
_CODE_24                            00184000    00004000 =       16384. bytes (REL,CON)

      Value  Global                              Global Defined In Module
      -----  --------------------------------   ------------------------
     00187526  GBVM$script_2_0$9bd7e682_2795_44   script_2_0
     0018752E  GBVM$script_2_0$4ce6f5f6_471a_4d   script_2_0
     00187540  GBVM$script_2_0$01b6c751_f8e4_40   script_2_0
     00187548  GBVM$script_2_0$e9f7c085_f7a4_49   script_2_0
     0018755A  GBVM$script_2_0$57a75556_4094_4c   script_2_0
     00187562  GBVM$script_2_0$d2563231_ce15_4a   script_2_0
     00187574  GBVM$script_2_0$4a6830fe_2c6a_42   script_2_0
     0018757C  GBVM$script_2_0$0fed64ba_548a_4b   script_2_0
     0018757C  GBVM_END$script_2_0$1400957e_01d   script_2_0
     0018757C  GBVM_END$script_2_0$20806e88_bf0   script_2_0
     0018757C  GBVM_END$script_2_0$4ce6f5f6_471   script_2_0
     0018757C  GBVM_END$script_2_0$6a1794f5_338   script_2_0
     0018757C  GBVM_END$script_2_0$9fd1144c_3ca   script_2_0
     0018757C  GBVM_END$script_2_0$d2563231_ce1   script_2_0
     0018757C  GBVM_END$script_2_0$e9f7c085_f7a   script_2_0
     00187583  GBVM$script_2_0$99a84ece_9c7b_41   script_2_0
     001875AB  GBVM$script_2_0$c31bfbd8_f077_44   script_2_0
     001875BD  GBVM$script_2_0$307a383a_c17e_45   script_2_0
     001875C5  GBVM$script_2_0$86702f4e_1336_4d   script_2_0
     001875D7  GBVM$script_2_0$921c20da_590c_4e   script_2_0
     001875DF  GBVM$script_2_0$be84015b_326c_48   script_2_0
     001875F1  GBVM$script_2_0$576b3483_0fe2_4c   script_2_0
     001875F9  GBVM$script_2_0$461d1f0e_6a02_4b   script_2_0
     0018760B  GBVM$script_2_0$440dce8d_4536_45   script_2_0
     00187613  GBVM$script_2_0$ed3b7e52_d559_48   script_2_0
     00187625  GBVM$script_2_0$c89af8ae_ded9_48   script_2_0
     0018762D  GBVM$script_2_0$bb5251ff_62ef_48   script_2_0
     0018763F  GBVM$script_2_0$06cae3b0_cc2c_4b   script_2_0
     00187647  GBVM$script_2_0$2e40fcb7_8b16_4e   script_2_0
     00187659  GBVM$script_2_0$7242f662_b91f_44   script_2_0
     00187661  GBVM$script_2_0$70f250b8_d6e6_4b   script_2_0
     00187661  GBVM_END$script_2_0$2e40fcb7_8b1   script_2_0
     00187661  GBVM_END$script_2_0$461d1f0e_6a0   script_2_0
     00187661  GBVM_END$script_2_0$86702f4e_133   script_2_0
     00187661  GBVM_END$script_2_0$bb5251ff_62e   script_2_0
     00187661  GBVM_END$script_2_0$be84015b_326   script_2_0
     00187661  GBVM_END$script_2_0$c31bfbd8_f07   script_2_0
     00187661  GBVM_END$script_2_0$ed3b7e52_d55   script_2_0
     00187668  GBVM$script_2_0$cf98878d_4da0_4a   script_2_0
     0018766C  GBVM_END$script_2_0$246e45fa_cee   script_2_0
     0018766C  GBVM_END$script_2_0$2e92e83a_458   script_2_0
     0018766C  GBVM_END$script_2_0$84a11abf_e08   script_2_0
     0018766C  GBVM_END$script_2_0$99a84ece_9c7   script_2_0
     0018766C  GBVM_END$script_2_0$9cb87bba_c65   script_2_0
     00187670  ___func_sprite_room2_tilemap_att   sprite_room2_tilemap_attr
     00187670  _sprite_room2_tilemap_attr         sprite_room2_tilemap_attr
     00187B38  ___func_sprite_room2_tilemap       sprite_room2_tilemap
     00187B38  _sprite_room2_tilemap              sprite_room2_tilemap

ASxxxx Linker V03.00/V05.40 + sdld,  page 70.
Hexadecimal  [32-Bits]

Area                                    Addr        Size        Decimal Bytes (Attributes)
--------------------------------        ----        ----        ------- ----- ------------
_CRASH_HEADER0                      00000000    00000005 =           5. bytes (ABS,CON)

      Value  Global                              Global Defined In Module
      -----  --------------------------------   ------------------------
ASxxxx Linker V03.00/V05.40 + sdld,  page 71.
Hexadecimal  [32-Bits]

Area                                    Addr        Size        Decimal Bytes (Attributes)
--------------------------------        ----        ----        ------- ----- ------------
_CRASH_HEADER1                      00000000    00000004 =           4. bytes (ABS,CON)

      Value  Global                              Global Defined In Module
      -----  --------------------------------   ------------------------
ASxxxx Linker V03.00/V05.40 + sdld,  page 72.
Hexadecimal  [32-Bits]

Area                                    Addr        Size        Decimal Bytes (Attributes)
--------------------------------        ----        ----        ------- ----- ------------
_CODE_26                            001A4000    00003FFE =       16382. bytes (REL,CON)

      Value  Global                              Global Defined In Module
      -----  --------------------------------   ------------------------
     001A4000  ___HandleCrash_banked              
     001A4368  ___func_VM_SIO                     vm_sio
     001A4368  _vm_sio_set_mode                   vm_sio
     001A437A  _vm_sio_exchange                   vm_sio
     001A465C  ___func_bg_b0027_copie_tilemap_a   bg_b0027_copie_tilemap_attr
     001A465C  _bg_b0027_copie_tilemap_attr       bg_b0027_copie_tilemap_attr
     001A4950  ___func_bg_b0027_copie_tilemap     bg_b0027_copie_tilemap
     001A4950  _bg_b0027_copie_tilemap            bg_b0027_copie_tilemap
     001A4C44  ___func_bg_castle_town_tileset     bg_castle_town_tileset
     001A4C44  _bg_castle_town_tileset            bg_castle_town_tileset
     001A4F36  ___func_bg_gameover_tilemap_attr   bg_gameover_tilemap_attr
     001A4F36  _bg_gameover_tilemap_attr          bg_gameover_tilemap_attr
     001A522A  ___func_bg_gameover_tilemap        bg_gameover_tilemap
     001A522A  _bg_gameover_tilemap               bg_gameover_tilemap
     001A551E  ___func_bg_kris_s_tilemap_attr     bg_kris_s_tilemap_attr
     001A551E  _bg_kris_s_tilemap_attr            bg_kris_s_tilemap_attr
     001A57DA  ___func_bg_kris_s_tilemap          bg_kris_s_tilemap
     001A57DA  _bg_kris_s_tilemap                 bg_kris_s_tilemap
     001A5A96  ___func_bg_legend2_tilemap_attr    bg_legend2_tilemap_attr
     001A5A96  _bg_legend2_tilemap_attr           bg_legend2_tilemap_attr
     001A5E11  ___func_bg_legend2_tilemap         bg_legend2_tilemap
     001A5E11  _bg_legend2_tilemap                bg_legend2_tilemap
     001A618C  ___func_bg_schoolint_tilemap_att   bg_schoolint_tilemap_attr
     001A618C  _bg_schoolint_tilemap_attr         bg_schoolint_tilemap_attr
     001A645C  ___func_bg_schoolint_tilemap       bg_schoolint_tilemap
     001A645C  _bg_schoolint_tilemap              bg_schoolint_tilemap
     001A672C  ___func_bg_title_tileset           bg_title_tileset
     001A672C  _bg_title_tileset                  bg_title_tileset
     001A6A6E  _scene_11_init                     scene_11_init
     001A6A6F  GBVM$scene_11_init$03423181_d7d1   scene_11_init
     001A6A77  GBVM$scene_11_init$098f8887_e978   scene_11_init
     001A6A77  GBVM_END$scene_11_init$03423181_   scene_11_init
     001A6A7F  GBVM$scene_11_init$76fe6383_df48   scene_11_init
     001A6A7F  GBVM_END$scene_11_init$098f8887_   scene_11_init
     001A6A87  GBVM$scene_11_init$106e0666_d431   scene_11_init
     001A6A87  GBVM_END$scene_11_init$76fe6383_   scene_11_init
     001A6A8F  GBVM$scene_11_init$autofade$0d4a   scene_11_init
     001A6A8F  GBVM_END$scene_11_init$106e0666_   scene_11_init
     001A6A9B  ___func_scene_28_collisions        scene_28_collisions
     001A6A9B  _scene_28_collisions               scene_28_collisions
     001A6D8F  ___func_scene_29_collisions        scene_29_collisions
     001A6D8F  _scene_29_collisions               scene_29_collisions
     001A7083  ___func_scene_30_collisions        scene_30_collisions
     001A7083  _scene_30_collisions               scene_30_collisions
     001A7377  ___func_scene_33_collisions        scene_33_collisions
     001A7377  _scene_33_collisions               scene_33_collisions
     001A7633  ___func_scene_4_collisions         scene_4_collisions
     001A7633  _scene_4_collisions                scene_4_collisions
     001A79AE  ___func_scene_45_collisions        scene_45_collisions
     001A79AE  _scene_45_collisions               scene_45_collisions
ASxxxx Linker V03.00/V05.40 + sdld,  page 73.
Hexadecimal  [32-Bits]

Area                                    Addr        Size        Decimal Bytes (Attributes)
--------------------------------        ----        ----        ------- ----- ------------
_CODE_26                            001A4000    00003FFE =       16382. bytes (REL,CON)

      Value  Global                              Global Defined In Module
      -----  --------------------------------   ------------------------
     001A7C7E  _pointnclick_init                  pointnclick
     001A7CB7  _pointnclick_update                pointnclick

ASxxxx Linker V03.00/V05.40 + sdld,  page 74.
Hexadecimal  [32-Bits]

Area                                    Addr        Size        Decimal Bytes (Attributes)
--------------------------------        ----        ----        ------- ----- ------------
_CRASH_SCRATCH2                     00000000    000001CB =         459. bytes (ABS,CON)

      Value  Global                              Global Defined In Module
      -----  --------------------------------   ------------------------
ASxxxx Linker V03.00/V05.40 + sdld,  page 75.
Hexadecimal  [32-Bits]

Area                                    Addr        Size        Decimal Bytes (Attributes)
--------------------------------        ----        ----        ------- ----- ------------
_CODE_18                            00124000    00003FFF =       16383. bytes (REL,CON)

      Value  Global                              Global Defined In Module
      -----  --------------------------------   ------------------------
     00124000  _load_init                         data_manager
     00124013  _spritesheet_none_far              data_manager
     00124016  _load_bkg_tileset                  data_manager
     001240F3  _load_background                   data_manager
     001241B9  _load_sprite                       data_manager
     0012428F  _load_bounds                       data_manager
     001242AC  _do_load_palette                   data_manager
     00124331  _load_scene                        data_manager
     00124997  _load_player                       data_manager
     001249E0  _load_emote                        data_manager
     001249F9  _actor_62_interact                 actor_62_interact
     001249FC  GBVM$actor_62_interact$dd11d01a_   actor_62_interact
     00124A05  GBVM$actor_62_interact$cf561200_   actor_62_interact
     00124A40  GBVM$actor_62_interact$045a0d3e_   actor_62_interact
     00124BE1  GBVM$actor_62_interact$b92de3f9_   actor_62_interact
     00124C27  GBVM$actor_62_interact$a46dd1e6_   actor_62_interact
     00124C39  GBVM$actor_62_interact$b3aba3e1_   actor_62_interact
     00124DAD  GBVM$actor_62_interact$48fb7c08_   actor_62_interact
     00124DFA  GBVM$actor_62_interact$0bd872b3_   actor_62_interact
     00124E43  GBVM$actor_62_interact$8f7b5acc_   actor_62_interact
     00124E44  GBVM$actor_62_interact$1bd226b0_   actor_62_interact
     00124E4E  GBVM$actor_62_interact$ad76376d_   actor_62_interact
     00124E61  GBVM$actor_62_interact$e7f4ed31_   actor_62_interact
     00124E99  GBVM$actor_62_interact$a4b0a74e_   actor_62_interact
     00124E9D  GBVM$actor_62_interact$0c9ffed3_   actor_62_interact
     00124FC6  GBVM$actor_62_interact$ced285a8_   actor_62_interact
     00124FE5  GBVM$actor_62_interact$eda2e955_   actor_62_interact
     00124FEE  GBVM$actor_62_interact$30cc611a_   actor_62_interact
     00124FFA  GBVM$actor_62_interact$73d633a6_   actor_62_interact
     00125003  GBVM$actor_62_interact$6e9145dc_   actor_62_interact
     0012500F  GBVM$actor_62_interact$8bd01d85_   actor_62_interact
     00125018  GBVM$actor_62_interact$dd575113_   actor_62_interact
     001250F4  GBVM$actor_62_interact$f2022e2b_   actor_62_interact
     00125100  GBVM$actor_62_interact$17b11421_   actor_62_interact
     00125176  GBVM$actor_62_interact$a7216cb9_   actor_62_interact
     0012517F  GBVM$actor_62_interact$a389365f_   actor_62_interact
     0012518B  GBVM$actor_62_interact$b47c78e3_   actor_62_interact
     00125194  GBVM$actor_62_interact$e44eb1db_   actor_62_interact
     00125307  GBVM$actor_62_interact$e87fbd53_   actor_62_interact
     0012531A  GBVM$actor_62_interact$8ba9786a_   actor_62_interact
     00125323  GBVM$actor_62_interact$5a4f4d76_   actor_62_interact
     0012532F  GBVM$actor_62_interact$12dc9357_   actor_62_interact
     00125339  GBVM$actor_62_interact$85435e66_   actor_62_interact
     0012534B  GBVM$actor_62_interact$74eec487_   actor_62_interact
     0012536A  GBVM$actor_62_interact$8f74c899_   actor_62_interact
     00125432  GBVM$actor_62_interact$e44ac71c_   actor_62_interact
     0012543A  GBVM_END$actor_62_interact$a46dd   actor_62_interact
     0012543A  GBVM_END$actor_62_interact$dd11d   actor_62_interact
     0012543B  ___func_bg_krislegend_tileset      bg_krislegend_tileset
     0012543B  _bg_krislegend_tileset             bg_krislegend_tileset
ASxxxx Linker V03.00/V05.40 + sdld,  page 76.
Hexadecimal  [32-Bits]

Area                                    Addr        Size        Decimal Bytes (Attributes)
--------------------------------        ----        ----        ------- ----- ------------
_CODE_18                            00124000    00003FFF =       16383. bytes (REL,CON)

      Value  Global                              Global Defined In Module
      -----  --------------------------------   ------------------------
     0012585D  ___func_bg_legend2_tileset         bg_legend2_tileset
     0012585D  _bg_legend2_tileset                bg_legend2_tileset
     001262BF  ___func_bg_legend5d_tileset        bg_legend5d_tileset
     001262BF  _bg_legend5d_tileset               bg_legend5d_tileset
     00127528  _song_fallinggg_Data               song_fallinggg_Data
     00127FB4  _song_song_templateffrzref_Data    song_song_templateffrzref_Da
     00127FC9  _trigger_0_interact                trigger_0_interact
     00127FCC  GBVM$trigger_0_interact$e3129eb4   trigger_0_interact

ASxxxx Linker V03.00/V05.40 + sdld,  page 77.
Hexadecimal  [32-Bits]

Area                                    Addr        Size        Decimal Bytes (Attributes)
--------------------------------        ----        ----        ------- ----- ------------
_CODE_32                            00204000    00004000 =       16384. bytes (REL,CON)

      Value  Global                              Global Defined In Module
      -----  --------------------------------   ------------------------
     00204000  _events_init                       events
     00204040  _timers_init                       events
     00204080  _restore_sram_bank                 flasher
     002040B6  _restore_sram                      flasher
     002040CC  _save_sram                         flasher
     002040F8  _scroll_rect                       
     00204135  ___func_VM_GBPRINTER               vm_gbprinter
     00204135  _vm_print_detect                   vm_gbprinter
     00204184  _vm_print_overlay                  vm_gbprinter
     002041D9  ___func_VM_LOAD_SAVE               vm_load_save
     002041D9  _vm_save_clear                     vm_load_save
     002041E8  _vm_save_peek                      vm_load_save
     0020426A  ___func_VM_SCENE                   vm_scene
     0020426A  _vm_scene_push                     vm_scene
     002042E0  _vm_scene_pop                      vm_scene
     002042EE  _vm_scene_pop_all                  vm_scene
     002042F9  _vm_scene_stack_reset              vm_scene
     00204302  _actor_11_interact                 actor_11_interact
     00204303  GBVM$actor_11_interact$744db674_   actor_11_interact
     00204363  _actor_12_interact                 actor_12_interact
     00204364  GBVM$actor_12_interact$b351b5a9_   actor_12_interact
     002043ED  _actor_13_interact                 actor_13_interact
     002043EE  GBVM$actor_13_interact$be93cacd_   actor_13_interact
     00204477  _actor_14_interact                 actor_14_interact
     00204478  GBVM$actor_14_interact$1469b162_   actor_14_interact
     00204501  _actor_20_interact                 actor_20_interact
     00204502  GBVM$actor_20_interact$54e10deb_   actor_20_interact
     0020458E  _actor_34_interact                 actor_34_interact
     0020458F  GBVM$actor_34_interact$065d03f3_   actor_34_interact
     002045E3  _actor_37_interact                 actor_37_interact
     002045E4  GBVM$actor_37_interact$ff49a423_   actor_37_interact
     00204652  _actor_58_interact                 actor_58_interact
     00204653  GBVM$actor_58_interact$ca1a88c9_   actor_58_interact
     0020468F  ___func_bg_black_copie_tileset     bg_black_copie_tileset
     0020468F  _bg_black_copie_tileset            bg_black_copie_tileset
     00204731  ___func_emote_shock                emote_shock
     00204731  _emote_shock                       emote_shock
     00204771  ___func_frame_image                frame_image
     00204771  _frame_image                       frame_image
     00204801  ___func_palette_0                  palette_0
     00204801  _palette_0                         palette_0
     00204844  ___func_palette_1                  palette_1
     00204844  _palette_1                         palette_1
     00204887  ___func_palette_10                 palette_10
     00204887  _palette_10                        palette_10
     002048CA  ___func_palette_11                 palette_11
     002048CA  _palette_11                        palette_11
     0020490D  ___func_palette_12                 palette_12
     0020490D  _palette_12                        palette_12
     00204950  ___func_palette_13                 palette_13
ASxxxx Linker V03.00/V05.40 + sdld,  page 78.
Hexadecimal  [32-Bits]

Area                                    Addr        Size        Decimal Bytes (Attributes)
--------------------------------        ----        ----        ------- ----- ------------
_CODE_32                            00204000    00004000 =       16384. bytes (REL,CON)

      Value  Global                              Global Defined In Module
      -----  --------------------------------   ------------------------
     00204950  _palette_13                        palette_13
     00204993  ___func_palette_14                 palette_14
     00204993  _palette_14                        palette_14
     002049D6  ___func_palette_15                 palette_15
     002049D6  _palette_15                        palette_15
     00204A19  ___func_palette_16                 palette_16
     00204A19  _palette_16                        palette_16
     00204A5C  ___func_palette_17                 palette_17
     00204A5C  _palette_17                        palette_17
     00204A9F  ___func_palette_18                 palette_18
     00204A9F  _palette_18                        palette_18
     00204AE2  ___func_palette_19                 palette_19
     00204AE2  _palette_19                        palette_19
     00204B25  ___func_palette_2                  palette_2
     00204B25  _palette_2                         palette_2
     00204B68  ___func_palette_20                 palette_20
     00204B68  _palette_20                        palette_20
     00204BAB  ___func_palette_21                 palette_21
     00204BAB  _palette_21                        palette_21
     00204BEE  ___func_palette_22                 palette_22
     00204BEE  _palette_22                        palette_22
     00204C31  ___func_palette_23                 palette_23
     00204C31  _palette_23                        palette_23
     00204C74  ___func_palette_24                 palette_24
     00204C74  _palette_24                        palette_24
     00204CB7  ___func_palette_25                 palette_25
     00204CB7  _palette_25                        palette_25
     00204CFA  ___func_palette_26                 palette_26
     00204CFA  _palette_26                        palette_26
     00204D3D  ___func_palette_27                 palette_27
     00204D3D  _palette_27                        palette_27
     00204D80  ___func_palette_28                 palette_28
     00204D80  _palette_28                        palette_28
     00204DC3  ___func_palette_29                 palette_29
     00204DC3  _palette_29                        palette_29
     00204E06  ___func_palette_3                  palette_3
     00204E06  _palette_3                         palette_3
     00204E49  ___func_palette_30                 palette_30
     00204E49  _palette_30                        palette_30
     00204E8C  ___func_palette_31                 palette_31
     00204E8C  _palette_31                        palette_31
     00204ECF  ___func_palette_32                 palette_32
     00204ECF  _palette_32                        palette_32
     00204F12  ___func_palette_33                 palette_33
     00204F12  _palette_33                        palette_33
     00204F55  ___func_palette_34                 palette_34
     00204F55  _palette_34                        palette_34
     00204F98  ___func_palette_35                 palette_35
     00204F98  _palette_35                        palette_35
     00204FDB  ___func_palette_36                 palette_36
     00204FDB  _palette_36                        palette_36
ASxxxx Linker V03.00/V05.40 + sdld,  page 79.
Hexadecimal  [32-Bits]

Area                                    Addr        Size        Decimal Bytes (Attributes)
--------------------------------        ----        ----        ------- ----- ------------
_CODE_32                            00204000    00004000 =       16384. bytes (REL,CON)

      Value  Global                              Global Defined In Module
      -----  --------------------------------   ------------------------
     0020501E  ___func_palette_37                 palette_37
     0020501E  _palette_37                        palette_37
     00205061  ___func_palette_38                 palette_38
     00205061  _palette_38                        palette_38
     002050A4  ___func_palette_39                 palette_39
     002050A4  _palette_39                        palette_39
     002050E7  ___func_palette_4                  palette_4
     002050E7  _palette_4                         palette_4
     0020512A  ___func_palette_40                 palette_40
     0020512A  _palette_40                        palette_40
     0020516D  ___func_palette_41                 palette_41
     0020516D  _palette_41                        palette_41
     002051B0  ___func_palette_42                 palette_42
     002051B0  _palette_42                        palette_42
     002051F3  ___func_palette_43                 palette_43
     002051F3  _palette_43                        palette_43
     00205236  ___func_palette_44                 palette_44
     00205236  _palette_44                        palette_44
     00205279  ___func_palette_45                 palette_45
     00205279  _palette_45                        palette_45
     002052BC  ___func_palette_46                 palette_46
     002052BC  _palette_46                        palette_46
     002052FF  ___func_palette_47                 palette_47
     002052FF  _palette_47                        palette_47
     00205342  ___func_palette_48                 palette_48
     00205342  _palette_48                        palette_48
     00205385  ___func_palette_49                 palette_49
     00205385  _palette_49                        palette_49
     002053C8  ___func_palette_5                  palette_5
     002053C8  _palette_5                         palette_5
     0020540B  ___func_palette_50                 palette_50
     0020540B  _palette_50                        palette_50
     0020544E  ___func_palette_51                 palette_51
     0020544E  _palette_51                        palette_51
     00205491  ___func_palette_52                 palette_52
     00205491  _palette_52                        palette_52
     002054D4  ___func_palette_53                 palette_53
     002054D4  _palette_53                        palette_53
     00205517  ___func_palette_54                 palette_54
     00205517  _palette_54                        palette_54
     0020555A  ___func_palette_55                 palette_55
     0020555A  _palette_55                        palette_55
     0020559D  ___func_palette_56                 palette_56
     0020559D  _palette_56                        palette_56
     002055E0  ___func_palette_57                 palette_57
     002055E0  _palette_57                        palette_57
     00205623  ___func_palette_58                 palette_58
     00205623  _palette_58                        palette_58
     00205666  ___func_palette_59                 palette_59
     00205666  _palette_59                        palette_59
     002056A9  ___func_palette_6                  palette_6
ASxxxx Linker V03.00/V05.40 + sdld,  page 80.
Hexadecimal  [32-Bits]

Area                                    Addr        Size        Decimal Bytes (Attributes)
--------------------------------        ----        ----        ------- ----- ------------
_CODE_32                            00204000    00004000 =       16384. bytes (REL,CON)

      Value  Global                              Global Defined In Module
      -----  --------------------------------   ------------------------
     002056A9  _palette_6                         palette_6
     002056EC  ___func_palette_60                 palette_60
     002056EC  _palette_60                        palette_60
     0020572F  ___func_palette_61                 palette_61
     0020572F  _palette_61                        palette_61
     00205772  ___func_palette_62                 palette_62
     00205772  _palette_62                        palette_62
     002057B5  ___func_palette_63                 palette_63
     002057B5  _palette_63                        palette_63
     002057F8  ___func_palette_7                  palette_7
     002057F8  _palette_7                         palette_7
     0020583B  ___func_palette_8                  palette_8
     0020583B  _palette_8                         palette_8
     0020587E  ___func_palette_9                  palette_9
     0020587E  _palette_9                         palette_9
     002058C1  ___func_scene_0                    scene_0
     002058C1  _scene_0                           scene_0
     002058FC  ___func_scene_1                    scene_1
     002058FC  _scene_1                           scene_1
     00205937  ___func_scene_10                   scene_10
     00205937  _scene_10                          scene_10
     00205972  ___func_scene_11                   scene_11
     00205972  _scene_11                          scene_11
     002059AD  ___func_scene_12                   scene_12
     002059AD  _scene_12                          scene_12
     002059E8  ___func_scene_13_actors            scene_13_actors
     002059E8  _scene_13_actors                   scene_13_actors
     00205A50  ___func_scene_13                   scene_13
     00205A50  _scene_13                          scene_13
     00205A8B  ___func_scene_14                   scene_14
     00205A8B  _scene_14                          scene_14
     00205AC6  ___func_scene_15                   scene_15
     00205AC6  _scene_15                          scene_15
     00205B01  _scene_16_init                     scene_16_init
     00205B04  GBVM$scene_16_init$83369855_3989   scene_16_init
     00205B3C  GBVM$scene_16_init$autofade$3f0b   scene_16_init
     00205B47  GBVM$scene_16_init$8d40a47e_56ad   scene_16_init
     00205B53  GBVM$scene_16_init$b33b4027_2c5a   scene_16_init
     00205B86  ___func_scene_16                   scene_16
     00205B86  _scene_16                          scene_16
     00205BC1  _scene_17_init                     scene_17_init
     00205BC4  GBVM$scene_17_init$1f5df6e3_196e   scene_17_init
     00205BFE  GBVM$scene_17_init$autofade$daf6   scene_17_init
     00205C09  GBVM$scene_17_init$347a831b_180b   scene_17_init
     00205C15  GBVM$scene_17_init$401699a5_a9d2   scene_17_init
     00205C48  ___func_scene_17                   scene_17
     00205C48  _scene_17                          scene_17
     00205C83  _scene_18_init                     scene_18_init
     00205C86  GBVM$scene_18_init$681edb94_eb39   scene_18_init
     00205CD1  GBVM$scene_18_init$autofade$003e   scene_18_init
     00205CDC  GBVM$scene_18_init$6702f0f8_a2e0   scene_18_init
ASxxxx Linker V03.00/V05.40 + sdld,  page 81.
Hexadecimal  [32-Bits]

Area                                    Addr        Size        Decimal Bytes (Attributes)
--------------------------------        ----        ----        ------- ----- ------------
_CODE_32                            00204000    00004000 =       16384. bytes (REL,CON)

      Value  Global                              Global Defined In Module
      -----  --------------------------------   ------------------------
     00205CE8  GBVM$scene_18_init$45b9f406_20eb   scene_18_init
     00205D1B  ___func_scene_18                   scene_18
     00205D1B  _scene_18                          scene_18
     00205D56  _scene_19_init                     scene_19_init
     00205D59  GBVM$scene_19_init$2c6512b7_822f   scene_19_init
     00205DAE  GBVM$scene_19_init$autofade$edea   scene_19_init
     00205DB9  GBVM$scene_19_init$ab663128_c903   scene_19_init
     00205DC5  GBVM$scene_19_init$be1e7d79_0d8b   scene_19_init
     00205DF8  ___func_scene_19                   scene_19
     00205DF8  _scene_19                          scene_19
     00205E33  ___func_scene_2                    scene_2
     00205E33  _scene_2                           scene_2
     00205E6E  _scene_20_init                     scene_20_init
     00205E71  GBVM$scene_20_init$1c9ff2a3_4b83   scene_20_init
     00205E75  GBVM$scene_20_init$autofade$2bce   scene_20_init
     00205E80  GBVM$scene_20_init$e715ef7b_1be8   scene_20_init
     00205ED4  GBVM$scene_20_init$38f06b58_8fdb   scene_20_init
     00205F07  ___func_scene_20                   scene_20
     00205F07  _scene_20                          scene_20
     00205F42  ___func_scene_21                   scene_21
     00205F42  _scene_21                          scene_21
     00205F7D  ___func_scene_22                   scene_22
     00205F7D  _scene_22                          scene_22
     00205FB8  _scene_23_init                     scene_23_init
     00205FBB  GBVM$scene_23_init$7141d67b_c4a6   scene_23_init
     00205FBF  GBVM$scene_23_init$autofade$4853   scene_23_init
     00205FCA  GBVM$scene_23_init$d9cfe1db_de88   scene_23_init
     0020601E  GBVM$scene_23_init$52f825d2_c526   scene_23_init
     00206051  ___func_scene_23                   scene_23
     00206051  _scene_23                          scene_23
     0020608C  ___func_scene_24                   scene_24
     0020608C  _scene_24                          scene_24
     002060C7  ___func_scene_25                   scene_25
     002060C7  _scene_25                          scene_25
     00206102  ___func_scene_26                   scene_26
     00206102  _scene_26                          scene_26
     0020613D  ___func_scene_27                   scene_27
     0020613D  _scene_27                          scene_27
     00206178  ___func_scene_28_actors            scene_28_actors
     00206178  _scene_28_actors                   scene_28_actors
     002061E0  ___func_scene_28                   scene_28
     002061E0  _scene_28                          scene_28
     0020621B  ___func_scene_29                   scene_29
     0020621B  _scene_29                          scene_29
     00206256  ___func_scene_3                    scene_3
     00206256  _scene_3                           scene_3
     00206291  ___func_scene_30                   scene_30
     00206291  _scene_30                          scene_30
     002062CC  _scene_31_init                     scene_31_init
     002062CF  GBVM$scene_31_init$94b317a5_6bd9   scene_31_init
     002062D3  GBVM$scene_31_init$autofade$2316   scene_31_init
ASxxxx Linker V03.00/V05.40 + sdld,  page 82.
Hexadecimal  [32-Bits]

Area                                    Addr        Size        Decimal Bytes (Attributes)
--------------------------------        ----        ----        ------- ----- ------------
_CODE_32                            00204000    00004000 =       16384. bytes (REL,CON)

      Value  Global                              Global Defined In Module
      -----  --------------------------------   ------------------------
     002062DE  GBVM$scene_31_init$c55decac_6e2e   scene_31_init
     0020633B  GBVM$scene_31_init$438ddc72_65d9   scene_31_init
     00206347  GBVM$scene_31_init$98380a64_c1f9   scene_31_init
     00206349  ___func_scene_31                   scene_31
     00206349  _scene_31                          scene_31
     00206384  ___func_scene_32                   scene_32
     00206384  _scene_32                          scene_32
     002063BF  ___func_scene_33                   scene_33
     002063BF  _scene_33                          scene_33
     002063FA  ___func_scene_34_actors            scene_34_actors
     002063FA  _scene_34_actors                   scene_34_actors
     00206496  ___func_scene_34                   scene_34
     00206496  _scene_34                          scene_34
     002064D1  ___func_scene_35                   scene_35
     002064D1  _scene_35                          scene_35
     0020650C  ___func_scene_36_actors            scene_36_actors
     0020650C  _scene_36_actors                   scene_36_actors
     00206574  ___func_scene_36                   scene_36
     00206574  _scene_36                          scene_36
     002065AF  ___func_scene_37_actors            scene_37_actors
     002065AF  _scene_37_actors                   scene_37_actors
     0020664B  ___func_scene_37                   scene_37
     0020664B  _scene_37                          scene_37
     00206686  _scene_38_init                     scene_38_init
     00206689  GBVM$scene_38_init$autofade$a031   scene_38_init
     00206694  GBVM$scene_38_init$281c51ff_d211   scene_38_init
     002066F2  GBVM$scene_38_init$e567bfd1_eb7f   scene_38_init
     00206725  ___func_scene_38                   scene_38
     00206725  _scene_38                          scene_38
     00206760  _scene_39_init                     scene_39_init
     00206763  GBVM$scene_39_init$autofade$0bb1   scene_39_init
     0020676E  GBVM$scene_39_init$a159c3b0_d504   scene_39_init
     00206791  GBVM$scene_39_init$0cd75b10_fa66   scene_39_init
     002067B4  GBVM$scene_39_init$6f71e8d8_7052   scene_39_init
     002067D7  GBVM$scene_39_init$86893119_a4c0   scene_39_init
     0020680A  ___func_scene_39                   scene_39
     0020680A  _scene_39                          scene_39
     00206845  ___func_scene_4                    scene_4
     00206845  _scene_4                           scene_4
     00206880  _scene_40_init                     scene_40_init
     00206883  GBVM$scene_40_init$autofade$b413   scene_40_init
     0020688E  GBVM$scene_40_init$05338528_52db   scene_40_init
     002068B1  GBVM$scene_40_init$a4d8cc5b_05e4   scene_40_init
     002068D4  GBVM$scene_40_init$7abbdc75_bcaa   scene_40_init
     00206907  ___func_scene_40                   scene_40
     00206907  _scene_40                          scene_40
     00206942  ___func_scene_41_actors            scene_41_actors
     00206942  _scene_41_actors                   scene_41_actors
     002069AA  ___func_scene_41                   scene_41
     002069AA  _scene_41                          scene_41
     002069E5  ___func_scene_42                   scene_42
ASxxxx Linker V03.00/V05.40 + sdld,  page 83.
Hexadecimal  [32-Bits]

Area                                    Addr        Size        Decimal Bytes (Attributes)
--------------------------------        ----        ----        ------- ----- ------------
_CODE_32                            00204000    00004000 =       16384. bytes (REL,CON)

      Value  Global                              Global Defined In Module
      -----  --------------------------------   ------------------------
     002069E5  _scene_42                          scene_42
     00206A20  ___func_scene_43                   scene_43
     00206A20  _scene_43                          scene_43
     00206A5B  ___func_scene_44                   scene_44
     00206A5B  _scene_44                          scene_44
     00206A96  ___func_scene_45                   scene_45
     00206A96  _scene_45                          scene_45
     00206AD1  ___func_scene_46                   scene_46
     00206AD1  _scene_46                          scene_46
     00206B0C  ___func_scene_47                   scene_47
     00206B0C  _scene_47                          scene_47
     00206B47  ___func_scene_48                   scene_48
     00206B47  _scene_48                          scene_48
     00206B82  _scene_49_init                     scene_49_init
     00206B85  GBVM$scene_49_init$e12a5472_0537   scene_49_init
     00206B89  GBVM$scene_49_init$autofade$d192   scene_49_init
     00206B94  GBVM$scene_49_init$8841fa46_9a8e   scene_49_init
     00206BA0  GBVM$scene_49_init$34f11cf3_41fa   scene_49_init
     00206BA1  GBVM$scene_49_init$eb690bc0_d8aa   scene_49_init
     00206BCA  ___func_scene_49                   scene_49
     00206BCA  _scene_49                          scene_49
     00206C05  ___func_scene_5                    scene_5
     00206C05  _scene_5                           scene_5
     00206C40  _scene_50_init                     scene_50_init
     00206C43  GBVM$scene_50_init$autofade$7fec   scene_50_init
     00206C4E  GBVM$scene_50_init$64a0c67b_ab37   scene_50_init
     00206C5A  GBVM$scene_50_init$8f5cfda8_61ba   scene_50_init
     00206C8D  ___func_scene_50                   scene_50
     00206C8D  _scene_50                          scene_50
     00206CC8  ___func_scene_51                   scene_51
     00206CC8  _scene_51                          scene_51
     00206D03  ___func_scene_56_actors            scene_56_actors
     00206D03  _scene_56_actors                   scene_56_actors
     00206D9F  _scene_6_init                      scene_6_init
     00206DA2  GBVM$scene_6_init$575087b7_ccf4_   scene_6_init
     00206DAA  GBVM$scene_6_init$252be868_ba1c_   scene_6_init
     00206DAF  GBVM$scene_6_init$autofade$3f21c   scene_6_init
     00206DBA  GBVM$scene_6_init$799492a3_ff68_   scene_6_init
     00206E06  GBVM$scene_6_init$1bbd3371_4157_   scene_6_init
     00206E39  ___func_scene_61_actors            scene_61_actors
     00206E39  _scene_61_actors                   scene_61_actors
     00206EA1  ___func_scene_65_actors            scene_65_actors
     00206EA1  _scene_65_actors                   scene_65_actors
     00206F3D  _scene_66_init                     scene_66_init
     00206F40  GBVM$scene_66_init$0d53b022_3dc9   scene_66_init
     00206F44  GBVM$scene_66_init$3c903de8_0cfe   scene_66_init
     00206F56  GBVM$scene_66_init$23c5b9de_afa7   scene_66_init
     00206F60  GBVM$scene_66_init$bc29e81b_3e85   scene_66_init
     00206F6D  GBVM$scene_66_init$2bcd104d_2b1a   scene_66_init
     00206F77  GBVM$scene_66_init$d934c5d3_9f67   scene_66_init
     00206F81  GBVM$scene_66_init$autofade$acba   scene_66_init
ASxxxx Linker V03.00/V05.40 + sdld,  page 84.
Hexadecimal  [32-Bits]

Area                                    Addr        Size        Decimal Bytes (Attributes)
--------------------------------        ----        ----        ------- ----- ------------
_CODE_32                            00204000    00004000 =       16384. bytes (REL,CON)

      Value  Global                              Global Defined In Module
      -----  --------------------------------   ------------------------
     00206F81  GBVM_END$scene_66_init$3c903de8_   scene_66_init
     00206F8D  _scene_7_init                      scene_7_init
     00206F90  GBVM$scene_7_init$a9a441af_4d22_   scene_7_init
     00206F91  GBVM$scene_7_init$autofade$43564   scene_7_init
     00206F9C  GBVM$scene_7_init$4bbd3da8_26a2_   scene_7_init
     00206FA8  GBVM$scene_7_init$77565121_8c59_   scene_7_init
     00206FBA  GBVM$scene_7_init$9e48ff35_50c0_   scene_7_init
     00206FE5  GBVM$scene_7_init$f14bb7b9_f5e7_   scene_7_init
     00207017  GBVM_END$scene_7_init$77565121_8   scene_7_init
     00207018  _scene_8_init                      scene_8_init
     0020701B  GBVM$scene_8_init$cd4e7884_aafb_   scene_8_init
     00207023  GBVM$scene_8_init$autofade$7f8b5   scene_8_init
     0020702E  GBVM$scene_8_init$8a8722c7_baff_   scene_8_init
     0020706F  GBVM$scene_8_init$962f918d_f765_   scene_8_init
     002070A2  _scene_9_init                      scene_9_init
     002070A5  GBVM$scene_9_init$64461ce2_9c5b_   scene_9_init
     002070AD  GBVM$scene_9_init$a8523b1b_cfa3_   scene_9_init
     002070B2  GBVM$scene_9_init$autofade$37732   scene_9_init
     002070BD  GBVM$scene_9_init$1434dcac_0b7f_   scene_9_init
     00207105  GBVM$scene_9_init$b00ad996_aeb6_   scene_9_init
     00207138  GBVM$script_9$f07f2e95_8aa9_4dab   script_9
     00207138  _script_9                          script_9
     0020714D  GBVM$script_9$13a136cd_ea7d_4cd5   script_9
     0020718B  GBVM_END$script_9$f07f2e95_8aa9_   script_9
     0020718D  GBVM$script_input_0$45b91c9e_dfa   script_input_0
     0020718D  _script_input_0                    script_input_0
     0020719F  GBVM$script_input_0$01d80fa5_e50   script_input_0
     002071B4  GBVM$script_input_0$01a773aa_023   script_input_0
     002071B8  GBVM_END$script_input_0$01d80fa5   script_input_0
     002071BB  GBVM$script_input_0$84120f39_5db   script_input_0
     002071FD  GBVM_END$script_input_0$45b91c9e   script_input_0
     002071FE  GBVM$script_input_2$5458cc53_c0d   script_input_2
     002071FE  _script_input_2                    script_input_2
     00207207  GBVM$script_input_2$8d86fcbc_412   script_input_2
     00207210  GBVM$script_input_2$ebaee849_b95   script_input_2
     00207219  GBVM$script_input_2$188188d6_65f   script_input_2
     00207222  GBVM$script_input_2$7ce1ee91_369   script_input_2
     0020722B  GBVM$script_input_2$e3ec9bd9_c86   script_input_2
     00207234  GBVM$script_input_2$9084416a_399   script_input_2
     00207240  GBVM$script_input_2$ce93d812_53e   script_input_2
     00207245  GBVM_END$script_input_2$9084416a   script_input_2
     00207248  GBVM$script_input_2$31f5ce16_c24   script_input_2
     0020724D  GBVM_END$script_input_2$e3ec9bd9   script_input_2
     00207250  GBVM$script_input_2$fcf35af8_2aa   script_input_2
     00207255  GBVM_END$script_input_2$7ce1ee91   script_input_2
     00207258  GBVM$script_input_2$2b089670_844   script_input_2
     0020725D  GBVM_END$script_input_2$188188d6   script_input_2
     00207260  GBVM$script_input_2$72a8133d_8db   script_input_2
     00207265  GBVM_END$script_input_2$ebaee849   script_input_2
     00207268  GBVM$script_input_2$a79f98f6_e5d   script_input_2
     0020726D  GBVM$script_input_2$7a9bbabf_5dc   script_input_2
ASxxxx Linker V03.00/V05.40 + sdld,  page 85.
Hexadecimal  [32-Bits]

Area                                    Addr        Size        Decimal Bytes (Attributes)
--------------------------------        ----        ----        ------- ----- ------------
_CODE_32                            00204000    00004000 =       16384. bytes (REL,CON)

      Value  Global                              Global Defined In Module
      -----  --------------------------------   ------------------------
     0020726D  GBVM_END$script_input_2$8d86fcbc   script_input_2
     00207274  GBVM$script_input_2$2548ac6c_44d   script_input_2
     00207279  GBVM_END$script_input_2$5458cc53   script_input_2
     0020727A  GBVM$script_input_4$85cfb29c_7fd   script_input_4
     0020727A  _script_input_4                    script_input_4
     0020727F  GBVM$script_input_4$579dd420_44f   script_input_4
     00207291  GBVM$script_input_4$172b5f76_28b   script_input_4
     002072A6  GBVM$script_input_4$389789bb_55b   script_input_4
     002072AA  GBVM_END$script_input_4$172b5f76   script_input_4
     002072AD  GBVM$script_input_4$4bd6e3eb_255   script_input_4
     002072E9  GBVM_END$script_input_4$579dd420   script_input_4
     002072EA  GBVM$script_input_6$8867e481_494   script_input_6
     002072EA  _script_input_6                    script_input_6
     002072F3  GBVM$script_input_6$09f5d9c8_b08   script_input_6
     002072FC  GBVM$script_input_6$d854079a_ce6   script_input_6
     00207305  GBVM$script_input_6$117f4bea_0e5   script_input_6
     0020730E  GBVM$script_input_6$55308fb0_8e9   script_input_6
     00207317  GBVM$script_input_6$91fd130a_af9   script_input_6
     00207320  GBVM$script_input_6$ef2f1fb6_a29   script_input_6
     0020732C  GBVM$script_input_6$b3f7f284_081   script_input_6
     00207331  GBVM_END$script_input_6$ef2f1fb6   script_input_6
     00207334  GBVM$script_input_6$8c2431c2_de8   script_input_6
     00207339  GBVM_END$script_input_6$91fd130a   script_input_6
     0020733C  GBVM$script_input_6$3c865dba_37f   script_input_6
     00207341  GBVM_END$script_input_6$55308fb0   script_input_6
     00207344  GBVM$script_input_6$6d7d2999_cfd   script_input_6
     00207349  GBVM_END$script_input_6$117f4bea   script_input_6
     0020734C  GBVM$script_input_6$c68e3639_601   script_input_6
     00207351  GBVM_END$script_input_6$d854079a   script_input_6
     00207354  GBVM$script_input_6$1cf8ce56_1be   script_input_6
     00207359  GBVM$script_input_6$53c2fd3f_97d   script_input_6
     00207359  GBVM_END$script_input_6$09f5d9c8   script_input_6
     00207360  GBVM$script_input_6$c80690a2_fa3   script_input_6
     00207365  GBVM_END$script_input_6$8867e481   script_input_6
     00207366  ___func_sprite_aplhys              sprite_aplhys
     00207366  _sprite_aplhys_metasprite_0        sprite_aplhys
     00207372  _sprite_aplhys_metasprite_1        sprite_aplhys
     0020737E  _sprite_aplhys_metasprite_2        sprite_aplhys
     0020738A  _sprite_aplhys_metasprite_3        sprite_aplhys
     00207396  _sprite_aplhys_metasprite_4        sprite_aplhys
     0020739A  _sprite_aplhys_metasprites         sprite_aplhys
     002073A4  _sprite_aplhys_animations          sprite_aplhys
     002073B4  _sprite_aplhys_animations_lookup   sprite_aplhys
     002073B6  _sprite_aplhys                     sprite_aplhys
     002073C9  ___func_sprite_can_t_spare_tiles   sprite_can_t_spare_tileset
     002073C9  _sprite_can_t_spare_tileset        sprite_can_t_spare_tileset
     0020744B  ___func_sprite_cursor_tileset      sprite_cursor_tileset
     0020744B  _sprite_cursor_tileset             sprite_cursor_tileset
     0020746D  ___func_sprite_dust_piles          sprite_dust_piles
     0020746D  _sprite_dust_piles_metasprite_0    sprite_dust_piles
     002074A1  _sprite_dust_piles_metasprites     sprite_dust_piles
ASxxxx Linker V03.00/V05.40 + sdld,  page 86.
Hexadecimal  [32-Bits]

Area                                    Addr        Size        Decimal Bytes (Attributes)
--------------------------------        ----        ----        ------- ----- ------------
_CODE_32                            00204000    00004000 =       16384. bytes (REL,CON)

      Value  Global                              Global Defined In Module
      -----  --------------------------------   ------------------------
     002074A3  _sprite_dust_piles_animations      sprite_dust_piles
     002074B3  _sprite_dust_piles_animations_lo   sprite_dust_piles
     002074B5  _sprite_dust_piles                 sprite_dust_piles
     002074C8  ___func_sprite_image               sprite_image
     002074C8  _sprite_image_metasprite_0         sprite_image
     002074D4  _sprite_image_metasprite_1         sprite_image
     002074E0  _sprite_image_metasprite_2         sprite_image
     002074EC  _sprite_image_metasprite_3         sprite_image
     002074F8  _sprite_image_metasprite_4         sprite_image
     00207504  _sprite_image_metasprite_5         sprite_image
     00207510  _sprite_image_metasprite_6         sprite_image
     0020751C  _sprite_image_metasprite_7         sprite_image
     00207528  _sprite_image_metasprite_8         sprite_image
     00207534  _sprite_image_metasprites          sprite_image
     0020754C  _sprite_image_animations           sprite_image
     0020755C  _sprite_image_animations_lookup    sprite_image
     0020755E  _sprite_image                      sprite_image
     00207571  ___func_sprite_kris_lightworld     sprite_kris_lightworld
     00207571  _sprite_kris_lightworld_metaspri   sprite_kris_lightworld
     0020757D  _sprite_kris_lightworld_metaspri   sprite_kris_lightworld
     00207589  _sprite_kris_lightworld_metaspri   sprite_kris_lightworld
     00207595  _sprite_kris_lightworld_metaspri   sprite_kris_lightworld
     002075A1  _sprite_kris_lightworld_metaspri   sprite_kris_lightworld
     002075AD  _sprite_kris_lightworld_metaspri   sprite_kris_lightworld
     002075B9  _sprite_kris_lightworld_metaspri   sprite_kris_lightworld
     002075C5  _sprite_kris_lightworld_metaspri   sprite_kris_lightworld
     002075D1  _sprite_kris_lightworld_metaspri   sprite_kris_lightworld
     002075E9  _sprite_kris_lightworld_animatio   sprite_kris_lightworld
     002075F9  _sprite_kris_lightworld_animatio   sprite_kris_lightworld
     002075FB  _sprite_kris_lightworld            sprite_kris_lightworld
     0020760E  ___func_sprite_krisbattle          sprite_krisbattle
     0020760E  _sprite_krisbattle_metasprite_0    sprite_krisbattle
     00207632  _sprite_krisbattle_metasprites     sprite_krisbattle
     00207634  _sprite_krisbattle_animations      sprite_krisbattle
     00207644  _sprite_krisbattle_animations_lo   sprite_krisbattle
     00207646  _sprite_krisbattle                 sprite_krisbattle
     00207659  ___func_sprite_krisbt2o_tileset    sprite_krisbt2o_tileset
     00207659  _sprite_krisbt2o_tileset           sprite_krisbt2o_tileset
     002076DB  ___func_sprite_lacer_shadow_tile   sprite_lacer_shadow_tileset
     002076DB  _sprite_lacer_shadow_tileset       sprite_lacer_shadow_tileset
     0020771D  ___func_sprite_lancer              sprite_lancer
     0020771D  _sprite_lancer_metasprite_0        sprite_lancer
     0020773D  _sprite_lancer_metasprites         sprite_lancer
     0020773F  _sprite_lancer_animations          sprite_lancer
     0020774F  _sprite_lancer_animations_lookup   sprite_lancer
     00207751  _sprite_lancer                     sprite_lancer
     00207764  ___func_sprite_lightshard_tilese   sprite_lightshard_tileset
     00207764  _sprite_lightshard_tileset         sprite_lightshard_tileset
     002077A6  ___func_sprite_new_piskel_3_       sprite_new_piskel_3_
     002077A6  _sprite_new_piskel_3__metasprite   sprite_new_piskel_3_
     002077B2  _sprite_new_piskel_3__metasprite   sprite_new_piskel_3_
ASxxxx Linker V03.00/V05.40 + sdld,  page 87.
Hexadecimal  [32-Bits]

Area                                    Addr        Size        Decimal Bytes (Attributes)
--------------------------------        ----        ----        ------- ----- ------------
_CODE_32                            00204000    00004000 =       16384. bytes (REL,CON)

      Value  Global                              Global Defined In Module
      -----  --------------------------------   ------------------------
     002077BE  _sprite_new_piskel_3__metasprite   sprite_new_piskel_3_
     002077CA  _sprite_new_piskel_3__metasprite   sprite_new_piskel_3_
     002077D6  _sprite_new_piskel_3__metasprite   sprite_new_piskel_3_
     002077DE  _sprite_new_piskel_3__animations   sprite_new_piskel_3_
     002077EE  _sprite_new_piskel_3__animations   sprite_new_piskel_3_
     002077F0  _sprite_new_piskel_3_              sprite_new_piskel_3_
     00207803  ___func_sprite_new_piskel_tilese   sprite_new_piskel_tileset
     00207803  _sprite_new_piskel_tileset         sprite_new_piskel_tileset
     00207885  ___func_sprite_new_piskel          sprite_new_piskel
     00207885  _sprite_new_piskel_metasprite_0    sprite_new_piskel
     00207891  _sprite_new_piskel_metasprite_1    sprite_new_piskel
     0020789D  _sprite_new_piskel_metasprites     sprite_new_piskel
     002078A1  _sprite_new_piskel_animations      sprite_new_piskel
     002078B1  _sprite_new_piskel_animations_lo   sprite_new_piskel
     002078B3  _sprite_new_piskel                 sprite_new_piskel
     002078C6  ___func_sprite_noellee             sprite_noellee
     002078C6  _sprite_noellee_metasprite_0       sprite_noellee
     002078D2  _sprite_noellee_metasprite_1       sprite_noellee
     002078DE  _sprite_noellee_metasprite_2       sprite_noellee
     002078EA  _sprite_noellee_metasprite_3       sprite_noellee
     002078F6  _sprite_noellee_metasprites        sprite_noellee
     002078FE  _sprite_noellee_animations         sprite_noellee
     0020790E  _sprite_noellee_animations_looku   sprite_noellee
     00207910  _sprite_noellee                    sprite_noellee
     00207923  ___func_sprite_piaf                sprite_piaf
     00207923  _sprite_piaf_metasprite_0          sprite_piaf
     0020793F  _sprite_piaf_metasprites           sprite_piaf
     00207941  _sprite_piaf_animations            sprite_piaf
     00207951  _sprite_piaf_animations_lookup     sprite_piaf
     00207953  _sprite_piaf                       sprite_piaf
     00207966  ___func_sprite_ralsei              sprite_ralsei
     00207966  _sprite_ralsei_metasprite_0        sprite_ralsei
     00207972  _sprite_ralsei_metasprite_1        sprite_ralsei
     0020797E  _sprite_ralsei_metasprite_2        sprite_ralsei
     0020798A  _sprite_ralsei_metasprite_3        sprite_ralsei
     00207996  _sprite_ralsei_metasprite_4        sprite_ralsei
     002079A2  _sprite_ralsei_metasprite_5        sprite_ralsei
     002079AE  _sprite_ralsei_metasprite_6        sprite_ralsei
     002079BA  _sprite_ralsei_metasprite_7        sprite_ralsei
     002079C6  _sprite_ralsei_metasprites         sprite_ralsei
     002079DE  _sprite_ralsei_animations          sprite_ralsei
     002079EE  _sprite_ralsei_animations_lookup   sprite_ralsei
     002079F0  _sprite_ralsei                     sprite_ralsei
     00207A03  ___func_sprite_ralseibt            sprite_ralseibt
     00207A03  _sprite_ralseibt_metasprite_0      sprite_ralseibt
     00207A1F  _sprite_ralseibt_metasprites       sprite_ralseibt
     00207A21  _sprite_ralseibt_animations        sprite_ralseibt
     00207A31  _sprite_ralseibt_animations_look   sprite_ralseibt
     00207A33  _sprite_ralseibt                   sprite_ralseibt
     00207A46  ___func_sprite_ralsss_tileset      sprite_ralsss_tileset
     00207A46  _sprite_ralsss_tileset             sprite_ralsss_tileset
ASxxxx Linker V03.00/V05.40 + sdld,  page 88.
Hexadecimal  [32-Bits]

Area                                    Addr        Size        Decimal Bytes (Attributes)
--------------------------------        ----        ----        ------- ----- ------------
_CODE_32                            00204000    00004000 =       16384. bytes (REL,CON)

      Value  Global                              Global Defined In Module
      -----  --------------------------------   ------------------------
     00207A88  ___func_sprite_spare_tileset       sprite_spare_tileset
     00207A88  _sprite_spare_tileset              sprite_spare_tileset
     00207B0A  ___func_sprite_spare               sprite_spare
     00207B0A  _sprite_spare_metasprite_0         sprite_spare
     00207B22  _sprite_spare_metasprites          sprite_spare
     00207B24  _sprite_spare_animations           sprite_spare
     00207B34  _sprite_spare_animations_lookup    sprite_spare
     00207B36  _sprite_spare                      sprite_spare
     00207B49  ___func_sprite_susie               sprite_susie
     00207B49  _sprite_susie_metasprite_0         sprite_susie
     00207B55  _sprite_susie_metasprite_1         sprite_susie
     00207B61  _sprite_susie_metasprite_2         sprite_susie
     00207B6D  _sprite_susie_metasprite_3         sprite_susie
     00207B79  _sprite_susie_metasprite_4         sprite_susie
     00207B85  _sprite_susie_metasprite_5         sprite_susie
     00207B91  _sprite_susie_metasprite_6         sprite_susie
     00207B9D  _sprite_susie_metasprite_7         sprite_susie
     00207BA9  _sprite_susie_metasprites          sprite_susie
     00207BC1  _sprite_susie_animations           sprite_susie
     00207BD1  _sprite_susie_animations_lookup    sprite_susie
     00207BD3  _sprite_susie                      sprite_susie
     00207BE6  ___func_sprite_susiebt             sprite_susiebt
     00207BE6  _sprite_susiebt_metasprite_0       sprite_susiebt
     00207C12  _sprite_susiebt_metasprites        sprite_susiebt
     00207C14  _sprite_susiebt_animations         sprite_susiebt
     00207C24  _sprite_susiebt_animations_looku   sprite_susiebt
     00207C26  _sprite_susiebt                    sprite_susiebt
     00207C39  ___func_sprite_sword2o_tileset     sprite_sword2o_tileset
     00207C39  _sprite_sword2o_tileset            sprite_sword2o_tileset
     00207CBB  ___func_tileset_default_frame      tileset_default_frame
     00207CBB  _tileset_default_frame             tileset_default_frame
     00207D4D  _trigger_12_interact               trigger_12_interact
     00207D50  GBVM$trigger_12_interact$9b0140d   trigger_12_interact
     00207D59  GBVM$trigger_12_interact$e9b2934   trigger_12_interact
     00207D8C  GBVM$trigger_12_interact$320e661   trigger_12_interact
     00207DC1  GBVM$trigger_12_interact$ad8d757   trigger_12_interact
     00207DF8  GBVM_END$trigger_12_interact$9b0   trigger_12_interact
     00207DF9  _trigger_13_interact               trigger_13_interact
     00207DFC  GBVM$trigger_13_interact$becf695   trigger_13_interact
     00207E05  GBVM$trigger_13_interact$10130dc   trigger_13_interact
     00207E3A  GBVM$trigger_13_interact$86ab2ff   trigger_13_interact
     00207E67  GBVM_END$trigger_13_interact$bec   trigger_13_interact
     00207E68  _trigger_14_interact               trigger_14_interact
     00207E6B  GBVM$trigger_14_interact$a4b391d   trigger_14_interact
     00207E74  GBVM$trigger_14_interact$9d20068   trigger_14_interact
     00207EA1  GBVM$trigger_14_interact$eca47d5   trigger_14_interact
     00207ED3  GBVM_END$trigger_14_interact$a4b   trigger_14_interact
     00207ED4  _trigger_39_interact               trigger_39_interact
     00207ED7  GBVM$trigger_39_interact$0544291   trigger_39_interact
     00207EEC  GBVM$trigger_39_interact$705365e   trigger_39_interact
     00207F1E  GBVM_END$trigger_39_interact$054   trigger_39_interact
ASxxxx Linker V03.00/V05.40 + sdld,  page 89.
Hexadecimal  [32-Bits]

Area                                    Addr        Size        Decimal Bytes (Attributes)
--------------------------------        ----        ----        ------- ----- ------------
_CODE_32                            00204000    00004000 =       16384. bytes (REL,CON)

      Value  Global                              Global Defined In Module
      -----  --------------------------------   ------------------------
     00207F1F  _trigger_40_interact               trigger_40_interact
     00207F22  GBVM$trigger_40_interact$54395c6   trigger_40_interact
     00207F37  GBVM$trigger_40_interact$36c8e37   trigger_40_interact
     00207F69  GBVM_END$trigger_40_interact$543   trigger_40_interact
     00207F6A  _trigger_41_interact               trigger_41_interact
     00207F6D  GBVM$trigger_41_interact$9232c46   trigger_41_interact
     00207F82  GBVM$trigger_41_interact$f479443   trigger_41_interact
     00207FB4  GBVM_END$trigger_41_interact$923   trigger_41_interact
     00207FB5  _trigger_43_interact               trigger_43_interact
     00207FB8  GBVM$trigger_43_interact$e905335   trigger_43_interact
     00207FCD  GBVM$trigger_43_interact$42d7c03   trigger_43_interact
     00207FFF  GBVM_END$trigger_43_interact$e90   trigger_43_interact

ASxxxx Linker V03.00/V05.40 + sdld,  page 90.
Hexadecimal  [32-Bits]

Area                                    Addr        Size        Decimal Bytes (Attributes)
--------------------------------        ----        ----        ------- ----- ------------
_CODE_27                            001B4000    00004000 =       16384. bytes (REL,CON)

      Value  Global                              Global Defined In Module
      -----  --------------------------------   ------------------------
     001B4000  _CGBFadeToWhiteStep                fade_manager
     001B4039  _CGBFadeToBlackStep                fade_manager
     001B4074  _ApplyPaletteChangeColor           fade_manager
     001B40B1  _fade_speeds                       fade_manager
     001B40B8  _DMGFadeToWhiteStep                fade_manager
     001B40D9  _DMGFadeToBlackStep                fade_manager
     001B40FC  _ApplyPaletteChangeDMG             fade_manager
     001B4152  _fade_init                         fade_manager
     001B4173  _fade_in                           fade_manager
     001B41AB  _fade_out                          fade_manager
     001B41E4  _fade_update                       fade_manager
     001B4237  _fade_applypalettechange           fade_manager
     001B4249  _fade_setspeed                     fade_manager
     001B4259  _fade_in_modal                     fade_manager
     001B4273  _fade_out_modal                    fade_manager
     001B428D  _actor_3_interact                  actor_3_interact
     001B4290  GBVM$actor_3_interact$e612b152_6   actor_3_interact
     001B42D1  GBVM$actor_3_interact$7ac29269_9   actor_3_interact
     001B430E  GBVM$actor_3_interact$e49179e0_a   actor_3_interact
     001B4320  GBVM$actor_3_interact$4d80b03e_4   actor_3_interact
     001B4366  GBVM$actor_3_interact$022a5f26_a   actor_3_interact
     001B4378  GBVM$actor_3_interact$76783a0b_b   actor_3_interact
     001B438A  GBVM$actor_3_interact$746d7e63_3   actor_3_interact
     001B43C8  GBVM$actor_3_interact$76649e1f_b   actor_3_interact
     001B43DA  GBVM$actor_3_interact$e4e1a365_8   actor_3_interact
     001B43E9  GBVM$actor_3_interact$49266658_1   actor_3_interact
     001B43FB  GBVM$actor_3_interact$c9ec8dc7_c   actor_3_interact
     001B449C  GBVM_END$actor_3_interact$76783a   actor_3_interact
     001B449F  GBVM$actor_3_interact$c4c61311_b   actor_3_interact
     001B44B1  GBVM$actor_3_interact$80ae5dfd_f   actor_3_interact
     001B4516  GBVM$actor_3_interact$92a77565_6   actor_3_interact
     001B4522  GBVM_END$actor_3_interact$022a5f   actor_3_interact
     001B4522  GBVM_END$actor_3_interact$e49179   actor_3_interact
     001B4523  _actor_55_interact                 actor_55_interact
     001B4524  GBVM$actor_55_interact$bf41f64a_   actor_55_interact
     001B4536  GBVM$actor_55_interact$72514615_   actor_55_interact
     001B46EB  GBVM$actor_55_interact$d88bf790_   actor_55_interact
     001B46F3  GBVM$actor_55_interact$61058046_   actor_55_interact
     001B475F  GBVM_END$actor_55_interact$bf41f   actor_55_interact
     001B4760  _actor_59_interact                 actor_59_interact
     001B4763  GBVM$actor_59_interact$afa12735_   actor_59_interact
     001B4775  GBVM$actor_59_interact$4d484979_   actor_59_interact
     001B48B2  GBVM$actor_59_interact$bac33afc_   actor_59_interact
     001B48D5  GBVM$actor_59_interact$2f6a99a4_   actor_59_interact
     001B490A  GBVM$actor_59_interact$57c7fea5_   actor_59_interact
     001B497D  GBVM$actor_59_interact$dfff7293_   actor_59_interact
     001B49A0  GBVM$actor_59_interact$39a42ae0_   actor_59_interact
     001B49A5  GBVM_END$actor_59_interact$afa12   actor_59_interact
     001B49A6  _actor_78_interact                 actor_78_interact
     001B49A9  GBVM$actor_78_interact$33cf3fda_   actor_78_interact
ASxxxx Linker V03.00/V05.40 + sdld,  page 91.
Hexadecimal  [32-Bits]

Area                                    Addr        Size        Decimal Bytes (Attributes)
--------------------------------        ----        ----        ------- ----- ------------
_CODE_27                            001B4000    00004000 =       16384. bytes (REL,CON)

      Value  Global                              Global Defined In Module
      -----  --------------------------------   ------------------------
     001B49B3  GBVM$actor_78_interact$6dc88f28_   actor_78_interact
     001B49BD  GBVM$actor_78_interact$d27e4f08_   actor_78_interact
     001B49C8  GBVM$actor_78_interact$178e0998_   actor_78_interact
     001B4B1C  GBVM$actor_78_interact$7b481bd7_   actor_78_interact
     001B4B26  GBVM$actor_78_interact$f3df3c0d_   actor_78_interact
     001B4B2F  GBVM$actor_78_interact$915ea0ce_   actor_78_interact
     001B4B3B  GBVM$actor_78_interact$faef5f3a_   actor_78_interact
     001B4B44  GBVM$actor_78_interact$75b36495_   actor_78_interact
     001B4C0F  GBVM$actor_78_interact$b9dd6442_   actor_78_interact
     001B4C19  GBVM$actor_78_interact$298ab465_   actor_78_interact
     001B4C24  _actor_79_interact                 actor_79_interact
     001B4C27  GBVM$actor_79_interact$1248ce39_   actor_79_interact
     001B4C32  GBVM$actor_79_interact$338db20a_   actor_79_interact
     001B4C3B  GBVM$actor_79_interact$2d8f0ac4_   actor_79_interact
     001B4D8F  GBVM$actor_79_interact$e0d72d49_   actor_79_interact
     001B4D98  GBVM$actor_79_interact$1e50f289_   actor_79_interact
     001B4DA4  GBVM$actor_79_interact$7926dca2_   actor_79_interact
     001B4DAD  GBVM$actor_79_interact$0f599618_   actor_79_interact
     001B4E78  GBVM$actor_79_interact$74e3bc1d_   actor_79_interact
     001B4E82  GBVM$actor_79_interact$fd1fc7bf_   actor_79_interact
     001B4E8D  ___func_bg_5_tilemap_attr          bg_5_tilemap_attr
     001B4E8D  _bg_5_tilemap_attr                 bg_5_tilemap_attr
     001B512D  ___func_bg_5_tilemap               bg_5_tilemap
     001B512D  _bg_5_tilemap                      bg_5_tilemap
     001B53CD  ___func_bg_6_tileset               bg_6_tileset
     001B53CD  _bg_6_tileset                      bg_6_tileset
     001B562F  ___func_bg_city2_tilemap_attr      bg_city2_tilemap_attr
     001B562F  _bg_city2_tilemap_attr             bg_city2_tilemap_attr
     001B58C9  ___func_bg_city2_tilemap           bg_city2_tilemap
     001B58C9  _bg_city2_tilemap                  bg_city2_tilemap
     001B5B63  ___func_bg_exterior_tilemap_attr   bg_exterior_tilemap_attr
     001B5B63  _bg_exterior_tilemap_attr          bg_exterior_tilemap_attr
     001B5D9A  ___func_bg_exterior_tilemap        bg_exterior_tilemap
     001B5D9A  _bg_exterior_tilemap               bg_exterior_tilemap
     001B5FD1  ___func_bg_kris_ss_tilemap_attr    bg_kris_ss_tilemap_attr
     001B5FD1  _bg_kris_ss_tilemap_attr           bg_kris_ss_tilemap_attr
     001B6251  ___func_bg_kris_ss_tilemap         bg_kris_ss_tilemap
     001B6251  _bg_kris_ss_tilemap                bg_kris_ss_tilemap
     001B64D1  ___func_bg_legend7f_tilemap_attr   bg_legend7f_tilemap_attr
     001B64D1  _bg_legend7f_tilemap_attr          bg_legend7f_tilemap_attr
     001B6727  ___func_bg_legend7f_tilemap        bg_legend7f_tilemap
     001B6727  _bg_legend7f_tilemap               bg_legend7f_tilemap
     001B697D  _scene_12_init                     scene_12_init
     001B6980  GBVM$scene_12_init$autofade$8435   scene_12_init
     001B698B  GBVM$scene_12_init$0e99b984_b438   scene_12_init
     001B6BBE  GBVM$scene_12_init$56add9c7_9633   scene_12_init
     001B6BF1  ___func_scene_32_actors            scene_32_actors
     001B6BF1  _scene_32_actors                   scene_32_actors
     001B6E2D  ___func_scene_34_collisions        scene_34_collisions
     001B6E2D  _scene_34_collisions               scene_34_collisions
     001B70AD  ___func_scene_37_collisions        scene_37_collisions
ASxxxx Linker V03.00/V05.40 + sdld,  page 92.
Hexadecimal  [32-Bits]

Area                                    Addr        Size        Decimal Bytes (Attributes)
--------------------------------        ----        ----        ------- ----- ------------
_CODE_27                            001B4000    00004000 =       16384. bytes (REL,CON)

      Value  Global                              Global Defined In Module
      -----  --------------------------------   ------------------------
     001B70AD  _scene_37_collisions               scene_37_collisions
     001B72E4  ___func_scene_40_collisions        scene_40_collisions
     001B72E4  _scene_40_collisions               scene_40_collisions
     001B757E  _scene_51_init                     scene_51_init
     001B7581  GBVM$scene_51_init$425c9d74_e814   scene_51_init
     001B7585  GBVM$scene_51_init$autofade$6189   scene_51_init
     001B7590  GBVM$scene_51_init$8758a83f_d5eb   scene_51_init
     001B760C  GBVM$scene_51_init$11b2e6c6_ac95   scene_51_init
     001B7618  GBVM$scene_51_init$810e472d_0c33   scene_51_init
     001B7621  GBVM$scene_51_init$c1824b37_68df   scene_51_init
     001B768B  GBVM$scene_51_init$7b6dc85c_1986   scene_51_init
     001B76AE  GBVM$scene_51_init$be16d751_81f1   scene_51_init
     001B76B7  GBVM$scene_51_init$6f598a51_1104   scene_51_init
     001B771C  GBVM$scene_51_init$3cdeff71_4f61   scene_51_init
     001B7725  GBVM$scene_51_init$912c21d0_5741   scene_51_init
     001B7731  GBVM$scene_51_init$803afca2_1e86   scene_51_init
     001B773A  GBVM$scene_51_init$c871ff02_84a0   scene_51_init
     001B777F  GBVM$scene_51_init$7d7cc502_1ecd   scene_51_init
     001B77A2  GBVM$scene_51_init$364b4e57_51c0   scene_51_init
     001B77AC  GBVM$scene_51_init$04098048_491a   scene_51_init
     001B77CF  GBVM$scene_51_init$d0abc0d3_12f1   scene_51_init
     001B7802  ___func_scene_56_collisions        scene_56_collisions
     001B7802  _scene_56_collisions               scene_56_collisions
     001B7AA2  ___func_scene_9_collisions         scene_9_collisions
     001B7AA2  _scene_9_collisions                scene_9_collisions
     001B7CF8  ___func_sprite_susiehs_copie_til   sprite_susiehs_copie_tileset
     001B7CF8  _sprite_susiehs_copie_tileset      sprite_susiehs_copie_tileset
     001B7F7A  _trigger_16_interact               trigger_16_interact
     001B7F7D  GBVM$trigger_16_interact$8f41fd8   trigger_16_interact
     001B7F8F  GBVM$trigger_16_interact$799f380   trigger_16_interact
     001B7FCD  GBVM$trigger_16_interact$20ef68f   trigger_16_interact
     001B7FFF  GBVM_END$trigger_16_interact$8f4   trigger_16_interact

ASxxxx Linker V03.00/V05.40 + sdld,  page 93.
Hexadecimal  [32-Bits]

Area                                    Addr        Size        Decimal Bytes (Attributes)
--------------------------------        ----        ----        ------- ----- ------------
_CODE_12                            000C4000    00003FFE =       16382. bytes (REL,CON)

      Value  Global                              Global Defined In Module
      -----  --------------------------------   ------------------------
     000C4068  _save_sram_banks                   
     000C40F0  _erase_flash                       
     000C4106  ___func_bg_8_tilemap_attr          bg_8_tilemap_attr
     000C4106  _bg_8_tilemap_attr                 bg_8_tilemap_attr
     000C507A  ___func_bg_8_tilemap               bg_8_tilemap
     000C507A  _bg_8_tilemap                      bg_8_tilemap
     000C5FEE  ___func_bg_9_tilemap               bg_9_tilemap
     000C5FEE  _bg_9_tilemap                      bg_9_tilemap
     000C6FF6  ___func_scene_61_collisions        scene_61_collisions
     000C6FF6  _scene_61_collisions               scene_61_collisions

ASxxxx Linker V03.00/V05.40 + sdld,  page 94.
Hexadecimal  [32-Bits]

Area                                    Addr        Size        Decimal Bytes (Attributes)
--------------------------------        ----        ----        ------- ----- ------------
_CODE_7                             00074000    00004000 =       16384. bytes (REL,CON)

      Value  Global                              Global Defined In Module
      -----  --------------------------------   ------------------------
     00074000  _printer_send_receive              gbprinter
     00074036  _printer_send_byte                 gbprinter
     00074049  _printer_send_command              gbprinter
     0007406C  _printer_print_tile                gbprinter
     000740FD  _printer_wait                      gbprinter
     0007412F  _gbprinter_detect                  gbprinter
     00074149  _gbprinter_print_overlay           gbprinter
     00076495  _song_school_Data                  song_school_Data
     000764AA  ___func_scene_13_sprites           scene_13_sprites
     000764AA  _scene_13_sprites                  scene_13_sprites
     000764B0  ___func_scene_25_collisions        scene_25_collisions
     000764B0  _scene_25_collisions               scene_25_collisions
ASxxxx Linker V03.00/V05.40 + sdld,  page 95.
Hexadecimal  [32-Bits]

Area                                    Addr        Size        Decimal Bytes (Attributes)
--------------------------------        ----        ----        ------- ----- ------------
_HEADER_SIO0                        00000000    00000004 =           4. bytes (ABS,CON)

      Value  Global                              Global Defined In Module
      -----  --------------------------------   ------------------------
ASxxxx Linker V03.00/V05.40 + sdld,  page 96.
Hexadecimal  [32-Bits]

Area                                    Addr        Size        Decimal Bytes (Attributes)
--------------------------------        ----        ----        ------- ----- ------------
_HEADER_TIMER0                      00000000    00000004 =           4. bytes (ABS,CON)

      Value  Global                              Global Defined In Module
      -----  --------------------------------   ------------------------
ASxxxx Linker V03.00/V05.40 + sdld,  page 97.
Hexadecimal  [32-Bits]

Area                                    Addr        Size        Decimal Bytes (Attributes)
--------------------------------        ----        ----        ------- ----- ------------
_CODE_15                            000F4000    00003FFE =       16382. bytes (REL,CON)

      Value  Global                              Global Defined In Module
      -----  --------------------------------   ------------------------
     000F4000  _remove_LCD_ISRs                   interrupts
     000F401B  _projectiles_init                  projectiles
     000F404A  _projectile_launch                 projectiles
     000F4444  ___func_bg_exterior_tileset        bg_exterior_tileset
     000F4444  _bg_exterior_tileset               bg_exterior_tileset
     000F5026  ___func_bg_kris_s_tileset          bg_kris_s_tileset
     000F5026  _bg_kris_s_tileset                 bg_kris_s_tileset
     000F5C18  ___func_bg_kris_ss_tileset         bg_kris_ss_tileset
     000F5C18  _bg_kris_ss_tileset                bg_kris_ss_tileset
     000F680A  ___func_bg_secoundfountain_tiles   bg_secoundfountain_tileset
     000F680A  _bg_secoundfountain_tileset        bg_secoundfountain_tileset
     000F740C  ___func_bg_thetle_tileset          bg_thetle_tileset
     000F740C  _bg_thetle_tileset                 bg_thetle_tileset

ASxxxx Linker V03.00/V05.40 + sdld,  page 98.
Hexadecimal  [32-Bits]

Area                                    Addr        Size        Decimal Bytes (Attributes)
--------------------------------        ----        ----        ------- ----- ------------
_CODE_25                            00194000    00004000 =       16384. bytes (REL,CON)

      Value  Global                              Global Defined In Module
      -----  --------------------------------   ------------------------
     00194000  _data_init                         load_save
     0019404B  _save_points                       load_save
     001940AB  _data_slot_address                 load_save
     00194123  _data_save                         load_save
     001941E4  _data_load                         load_save
     001942F8  _data_clear                        load_save
     00194325  _data_peek                         load_save
     001943C6  _trigger_reset                     trigger
     001943D6  _trigger_interact                  trigger
     00194415  _trigger_activate_at               trigger
     00194460  _trigger_at_intersection           trigger
     00194587  _trigger_activate_at_intersectio   trigger
     001946C8  _trigger_at_tile                   trigger
     00194759  ___func_VM_CAMERA                  vm_camera
     00194759  _vm_camera_move_to                 vm_camera
     001949AC  _vm_camera_set_pos                 vm_camera
     001949F3  _camera_shake_frames               vm_camera
     00194B22  ___func_bg_10_tileset              bg_10_tileset
     00194B22  _bg_10_tileset                     bg_10_tileset
     00194EE4  ___func_bg_2_tilemap_attr          bg_2_tilemap_attr
     00194EE4  _bg_2_tilemap_attr                 bg_2_tilemap_attr
     001952E4  ___func_bg_2_tilemap               bg_2_tilemap
     001952E4  _bg_2_tilemap                      bg_2_tilemap
     001956E4  ___func_bg_2_tileset               bg_2_tileset
     001956E4  _bg_2_tileset                      bg_2_tileset
     00195AC6  ___func_bg_castle_town_map2_tile   bg_castle_town_map2_tilemap_
     00195AC6  _bg_castle_town_map2_tilemap_att   bg_castle_town_map2_tilemap_
     00195EB6  ___func_bg_castle_town_map2_tile   bg_castle_town_map2_tilemap
     00195EB6  _bg_castle_town_map2_tilemap       bg_castle_town_map2_tilemap
     001962A6  ___func_bg_untitled_tilemap_attr   bg_untitled_tilemap_attr
     001962A6  _bg_untitled_tilemap_attr          bg_untitled_tilemap_attr
     001966A6  ___func_bg_untitled_tilemap        bg_untitled_tilemap
     001966A6  _bg_untitled_tilemap               bg_untitled_tilemap
     00196AA6  ___func_scene_54_collisions        scene_54_collisions
     00196AA6  _scene_54_collisions               scene_54_collisions
     00196EA6  ___func_scene_55_collisions        scene_55_collisions
     00196EA6  _scene_55_collisions               scene_55_collisions
     001972A6  ___func_scene_64_collisions        scene_64_collisions
     001972A6  _scene_64_collisions               scene_64_collisions
     00197696  _script_2                          script_2
     00197698  GBVM$script_2$9cb87bba_c650_4bf6   script_2
     001976C0  GBVM$script_2$c05cc985_c209_4976   script_2
     001976D2  GBVM$script_2$2a400b29_8a26_480a   script_2
     001976DA  GBVM$script_2$d480f090_cffb_4a45   script_2
     001976EC  GBVM$script_2$f42e69b2_d04a_4960   script_2
     001976F4  GBVM$script_2$3e7250ea_8d23_47a1   script_2
     00197706  GBVM$script_2$5594b399_eafe_461e   script_2
     0019770E  GBVM$script_2$83dce41a_8fea_485f   script_2
     00197720  GBVM$script_2$d5a2fd24_326c_4e02   script_2
     00197728  GBVM$script_2$7dacf6fc_4eae_41ed   script_2
ASxxxx Linker V03.00/V05.40 + sdld,  page 99.
Hexadecimal  [32-Bits]

Area                                    Addr        Size        Decimal Bytes (Attributes)
--------------------------------        ----        ----        ------- ----- ------------
_CODE_25                            00194000    00004000 =       16384. bytes (REL,CON)

      Value  Global                              Global Defined In Module
      -----  --------------------------------   ------------------------
     0019773A  GBVM$script_2$8b61fc8d_b379_4c76   script_2
     00197742  GBVM$script_2$5b426182_1d1d_42fe   script_2
     00197754  GBVM$script_2$f6fa0a48_bb39_4b6f   script_2
     0019775C  GBVM$script_2$3fc7e99e_fbd0_475d   script_2
     0019776E  GBVM$script_2$a934c31a_7b99_4aa3   script_2
     00197776  GBVM$script_2$6eb4d4f2_6221_450d   script_2
     00197776  GBVM_END$script_2$3e7250ea_8d23_   script_2
     00197776  GBVM_END$script_2$3fc7e99e_fbd0_   script_2
     00197776  GBVM_END$script_2$5b426182_1d1d_   script_2
     00197776  GBVM_END$script_2$7dacf6fc_4eae_   script_2
     00197776  GBVM_END$script_2$83dce41a_8fea_   script_2
     00197776  GBVM_END$script_2$c05cc985_c209_   script_2
     00197776  GBVM_END$script_2$d480f090_cffb_   script_2
     0019777D  GBVM$script_2$84a11abf_e085_454b   script_2
     001977A5  GBVM$script_2$02b95ea5_939f_4490   script_2
     001977B7  GBVM$script_2$fc7f82dc_9b4f_460d   script_2
     001977BF  GBVM$script_2$852f0e26_37d1_4ff5   script_2
     001977D1  GBVM$script_2$5ac0e5ab_f95c_4908   script_2
     001977D9  GBVM$script_2$1c7bc26f_6b21_4e85   script_2
     001977EB  GBVM$script_2$323a3de0_3e9d_4bc2   script_2
     001977F3  GBVM$script_2$793d564c_7c48_4793   script_2
     00197805  GBVM$script_2$a556f062_6bf5_495c   script_2
     0019780D  GBVM$script_2$237789eb_0cc7_4894   script_2
     0019781F  GBVM$script_2$aaec8d6f_531d_4490   script_2
     00197827  GBVM$script_2$7620e360_83ec_4d90   script_2
     00197839  GBVM$script_2$8d9c62c3_2522_467a   script_2
     00197841  GBVM$script_2$0062b19e_2612_40c4   script_2
     00197853  GBVM$script_2$019693c1_597a_42cf   script_2
     0019785B  GBVM$script_2$327875bf_bb60_4c7a   script_2
     0019785B  GBVM_END$script_2$0062b19e_2612_   script_2
     0019785B  GBVM_END$script_2$02b95ea5_939f_   script_2
     0019785B  GBVM_END$script_2$1c7bc26f_6b21_   script_2
     0019785B  GBVM_END$script_2$237789eb_0cc7_   script_2
     0019785B  GBVM_END$script_2$7620e360_83ec_   script_2
     0019785B  GBVM_END$script_2$793d564c_7c48_   script_2
     0019785B  GBVM_END$script_2$852f0e26_37d1_   script_2
     00197862  GBVM$script_2$2e92e83a_458f_46f1   script_2
     0019788A  GBVM$script_2$fcf46806_0c66_4f74   script_2
     0019789C  GBVM$script_2$0683428e_428e_4a0d   script_2
     001978A4  GBVM$script_2$7451108f_43eb_4e61   script_2
     001978B6  GBVM$script_2$94d18a38_79f3_4107   script_2
     001978BE  GBVM$script_2$0a3bd421_e47a_4d16   script_2
     001978D0  GBVM$script_2$c5b9b2b8_4278_4381   script_2
     001978D8  GBVM$script_2$a882ae05_51fc_42ca   script_2
     001978EA  GBVM$script_2$624a315d_8411_44e0   script_2
     001978F2  GBVM$script_2$095bce24_19ed_4b5c   script_2
     00197904  GBVM$script_2$3bcbcc61_8162_4c11   script_2
     0019790C  GBVM$script_2$4efd562e_fe16_49d8   script_2
     0019791E  GBVM$script_2$0bd208a2_7d45_4a66   script_2
     00197926  GBVM$script_2$8ed49f82_cd6e_4f09   script_2
     00197938  GBVM$script_2$6583cde2_1c98_4943   script_2
ASxxxx Linker V03.00/V05.40 + sdld,  page 100.
Hexadecimal  [32-Bits]

Area                                    Addr        Size        Decimal Bytes (Attributes)
--------------------------------        ----        ----        ------- ----- ------------
_CODE_25                            00194000    00004000 =       16384. bytes (REL,CON)

      Value  Global                              Global Defined In Module
      -----  --------------------------------   ------------------------
     00197940  GBVM$script_2$57a268e3_33e1_4f39   script_2
     00197940  GBVM_END$script_2$095bce24_19ed_   script_2
     00197940  GBVM_END$script_2$0a3bd421_e47a_   script_2
     00197940  GBVM_END$script_2$4efd562e_fe16_   script_2
     00197940  GBVM_END$script_2$7451108f_43eb_   script_2
     00197940  GBVM_END$script_2$8ed49f82_cd6e_   script_2
     00197940  GBVM_END$script_2$a882ae05_51fc_   script_2
     00197940  GBVM_END$script_2$fcf46806_0c66_   script_2
     00197947  GBVM$script_2$246e45fa_cee7_4240   script_2
     0019796F  GBVM$script_2$1400957e_01de_4089   script_2
     00197981  GBVM$script_2$8201af47_6ec7_4068   script_2
     00197989  GBVM$script_2$9fd1144c_3ca9_4cc6   script_2
     0019799B  GBVM$script_2$ad6cb07e_379e_407a   script_2
     001979A3  GBVM$script_2$6a1794f5_338b_4020   script_2
     001979B5  GBVM$script_2$d3982e61_dd0b_4945   script_2
     001979BD  GBVM$script_2$20806e88_bf04_4057   script_2
     001979CF  GBVM$script_2$9bd7e682_2795_447c   script_2
     001979D7  GBVM$script_2$4ce6f5f6_471a_4d5f   script_2
     001979E9  GBVM$script_2$01b6c751_f8e4_40a9   script_2
     001979F1  GBVM$script_2$e9f7c085_f7a4_4956   script_2
     00197A03  GBVM$script_2$57a75556_4094_4c61   script_2
     00197A0B  GBVM$script_2$d2563231_ce15_4ad6   script_2
     00197A1D  GBVM$script_2$4a6830fe_2c6a_4207   script_2
     00197A25  GBVM$script_2$0fed64ba_548a_4b68   script_2
     00197A25  GBVM_END$script_2$1400957e_01de_   script_2
     00197A25  GBVM_END$script_2$20806e88_bf04_   script_2
     00197A25  GBVM_END$script_2$4ce6f5f6_471a_   script_2
     00197A25  GBVM_END$script_2$6a1794f5_338b_   script_2
     00197A25  GBVM_END$script_2$9fd1144c_3ca9_   script_2
     00197A25  GBVM_END$script_2$d2563231_ce15_   script_2
     00197A25  GBVM_END$script_2$e9f7c085_f7a4_   script_2
     00197A2C  GBVM$script_2$99a84ece_9c7b_41c6   script_2
     00197A54  GBVM$script_2$c31bfbd8_f077_4406   script_2
     00197A66  GBVM$script_2$307a383a_c17e_4538   script_2
     00197A6E  GBVM$script_2$86702f4e_1336_4d01   script_2
     00197A80  GBVM$script_2$921c20da_590c_4e0a   script_2
     00197A88  GBVM$script_2$be84015b_326c_4877   script_2
     00197A9A  GBVM$script_2$576b3483_0fe2_4ca4   script_2
     00197AA2  GBVM$script_2$461d1f0e_6a02_4be8   script_2
     00197AB4  GBVM$script_2$440dce8d_4536_457b   script_2
     00197ABC  GBVM$script_2$ed3b7e52_d559_48c8   script_2
     00197ACE  GBVM$script_2$c89af8ae_ded9_48bc   script_2
     00197AD6  GBVM$script_2$bb5251ff_62ef_488e   script_2
     00197AE8  GBVM$script_2$06cae3b0_cc2c_4b08   script_2
     00197AF0  GBVM$script_2$2e40fcb7_8b16_4ea9   script_2
     00197B02  GBVM$script_2$7242f662_b91f_449b   script_2
     00197B0A  GBVM$script_2$70f250b8_d6e6_4b69   script_2
     00197B0A  GBVM_END$script_2$2e40fcb7_8b16_   script_2
     00197B0A  GBVM_END$script_2$461d1f0e_6a02_   script_2
     00197B0A  GBVM_END$script_2$86702f4e_1336_   script_2
     00197B0A  GBVM_END$script_2$bb5251ff_62ef_   script_2
ASxxxx Linker V03.00/V05.40 + sdld,  page 101.
Hexadecimal  [32-Bits]

Area                                    Addr        Size        Decimal Bytes (Attributes)
--------------------------------        ----        ----        ------- ----- ------------
_CODE_25                            00194000    00004000 =       16384. bytes (REL,CON)

      Value  Global                              Global Defined In Module
      -----  --------------------------------   ------------------------
     00197B0A  GBVM_END$script_2$be84015b_326c_   script_2
     00197B0A  GBVM_END$script_2$c31bfbd8_f077_   script_2
     00197B0A  GBVM_END$script_2$ed3b7e52_d559_   script_2
     00197B11  GBVM$script_2$cf98878d_4da0_4a26   script_2
     00197B15  GBVM_END$script_2$246e45fa_cee7_   script_2
     00197B15  GBVM_END$script_2$2e92e83a_458f_   script_2
     00197B15  GBVM_END$script_2$84a11abf_e085_   script_2
     00197B15  GBVM_END$script_2$99a84ece_9c7b_   script_2
     00197B15  GBVM_END$script_2$9cb87bba_c650_   script_2
     00197B19  _script_7                          script_7
     00197B1B  GBVM$script_7$76f21f71_a716_4c1e   script_7
     00197B30  GBVM$script_7$5059f6c5_5cd0_4bc0   script_7
     00197B66  GBVM$script_7$404b6832_b042_4135   script_7
     00197B66  GBVM$script_7$8a18e7fc_c3fb_4d5f   script_7
     00197B66  GBVM_END$script_7$76f21f71_a716_   script_7
     00197B78  GBVM$script_7$d424c134_4f6c_41ae   script_7
     00197BBA  GBVM$script_7$0180abf6_c240_463d   script_7
     00197BC4  GBVM$script_7$d4c395a7_4df4_4d92   script_7
     00197C12  GBVM$script_7$ee46a42c_135b_49f8   script_7
     00197CA3  GBVM$script_7$1a42d28b_a77e_4df9   script_7
     00197CB5  GBVM$script_7$d05fcee8_f786_4129   script_7
     00197CC7  GBVM$script_7$e4d75236_f184_4563   script_7
     00197CDC  GBVM$script_7$6c814e0b_cb0e_4b57   script_7
     00197CF1  GBVM$script_7$629d5bf5_63a1_416b   script_7
     00197CF1  GBVM_END$script_7$6c814e0b_cb0e_   script_7
     00197D06  GBVM$script_7$7b0cd2de_c8e8_4cb7   script_7
     00197D41  GBVM$script_7$0a4950e8_ccc4_4cec   script_7
     00197D46  GBVM$script_7$cede5e0f_5abc_4946   script_7
     00197D4D  GBVM_END$script_7$629d5bf5_63a1_   script_7
     00197D4D  GBVM_END$script_7$e4d75236_f184_   script_7
     00197D50  GBVM$script_7$c32cfeaf_5cd5_4997   script_7
     00197D65  GBVM$script_7$2d0b2722_6b06_42f1   script_7
     00197DD4  GBVM$script_7$88dd52c2_6837_48bf   script_7
     00197DE0  GBVM$script_7$c97fb53f_b818_48dc   script_7
     00197DE5  GBVM$script_7$ab9e4cdd_a2c4_4dce   script_7
     00197DEF  GBVM_END$script_7$88dd52c2_6837_   script_7
     00197DEF  GBVM_END$script_7$c32cfeaf_5cd5_   script_7
     00197DEF  GBVM_END$script_7$d05fcee8_f786_   script_7
     00197DF2  GBVM$script_7$32a454dc_c141_49bf   script_7
     00197DFE  GBVM$script_7$1c49cadd_579c_44f4   script_7
     00197E03  GBVM$script_7$c8960abe_d46d_4227   script_7
     00197E0D  GBVM$script_7$f031a5ca_b83d_4454   script_7
     00197E78  GBVM$script_7$4203afdb_bf14_4cb6   script_7
     00197E84  GBVM$script_7$3ac7bdf1_50bd_40d7   script_7
     00197E89  GBVM$script_7$258b8d85_beb9_47b3   script_7
     00197E93  GBVM_END$script_7$1a42d28b_a77e_   script_7
     00197E93  GBVM_END$script_7$32a454dc_c141_   script_7
     00197E93  GBVM_END$script_7$404b6832_b042_   script_7
     00197E93  GBVM_END$script_7$4203afdb_bf14_   script_7
     00197E96  GBVM_END$script_7$8a18e7fc_c3fb_   script_7
     00197E9A  GBVM$script_input$754d7298_90b8_   script_input
ASxxxx Linker V03.00/V05.40 + sdld,  page 102.
Hexadecimal  [32-Bits]

Area                                    Addr        Size        Decimal Bytes (Attributes)
--------------------------------        ----        ----        ------- ----- ------------
_CODE_25                            00194000    00004000 =       16384. bytes (REL,CON)

      Value  Global                              Global Defined In Module
      -----  --------------------------------   ------------------------
     00197E9A  _script_input                      script_input
     00197E9F  _trigger_11_interact               trigger_11_interact
     00197EA0  GBVM$trigger_11_interact$ae9fdcf   trigger_11_interact
     00197EA9  GBVM$trigger_11_interact$c0e8e72   trigger_11_interact
     00197FD2  GBVM$trigger_11_interact$4d8d631   trigger_11_interact
     00197FFF  GBVM_END$trigger_11_interact$ae9   trigger_11_interact

ASxxxx Linker V03.00/V05.40 + sdld,  page 103.
Hexadecimal  [32-Bits]

Area                                    Addr        Size        Decimal Bytes (Attributes)
--------------------------------        ----        ----        ------- ----- ------------
_CODE_22                            00164000    00004000 =       16384. bytes (REL,CON)

      Value  Global                              Global Defined In Module
      -----  --------------------------------   ------------------------
     00164000  _atan2                             math_atan2
     00164199  _atan2_table                       math_atan2
     00164301  ___func_bg_10_tilemap_attr         bg_10_tilemap_attr
     00164301  _bg_10_tilemap_attr                bg_10_tilemap_attr
     00164941  ___func_bg_10_tilemap              bg_10_tilemap
     00164941  _bg_10_tilemap                     bg_10_tilemap
     00164F81  ___func_bg_6_1__tilemap_attr       bg_6_1__tilemap_attr
     00164F81  _bg_6_1__tilemap_attr              bg_6_1__tilemap_attr
     00165581  ___func_bg_6_1__tilemap            bg_6_1__tilemap
     00165581  _bg_6_1__tilemap                   bg_6_1__tilemap
     00165B81  ___func_bg_6_tilemap_attr          bg_6_tilemap_attr
     00165B81  _bg_6_tilemap_attr                 bg_6_tilemap_attr
     00166181  ___func_bg_6_tilemap               bg_6_tilemap
     00166181  _bg_6_tilemap                      bg_6_tilemap
     00166781  _scene_28_init                     scene_28_init
     00166784  GBVM$scene_28_init$b68cbea7_99dd   scene_28_init
     00166788  GBVM$scene_28_init$47bbcd23_2d4d   scene_28_init
     0016678D  GBVM$scene_28_init$869f676b_d115   scene_28_init
     00166792  GBVM$scene_28_init$12ba2179_cb49   scene_28_init
     00166797  GBVM$scene_28_init$dfa5a5f0_8615   scene_28_init
     0016679C  GBVM$scene_28_init$cb0d5854_d2b8   scene_28_init
     001667A1  GBVM$scene_28_init$d3ce0a78_893b   scene_28_init
     001667A8  GBVM$scene_28_init$autofade$5b86   scene_28_init
     001667B3  GBVM$scene_28_init$cadc9ac8_8aba   scene_28_init
     001667C5  GBVM$scene_28_init$bf50e556_6abd   scene_28_init
     001667CE  GBVM$scene_28_init$069cad8e_80dd   scene_28_init
     00166807  GBVM$scene_28_init$80528d35_6e3f   scene_28_init
     0016683E  GBVM$scene_28_init$9c64f51c_2d07   scene_28_init
     0016683E  GBVM_END$scene_28_init$bf50e556_   scene_28_init
     00166898  GBVM$scene_28_init$d7823d9a_ec1b   scene_28_init
     001668A1  GBVM$scene_28_init$bbf7352b_311e   scene_28_init
     001668B3  GBVM$scene_28_init$52fcd95b_39de   scene_28_init
     001668C5  GBVM$scene_28_init$f0990bd8_5648   scene_28_init
     00166908  GBVM$scene_28_init$278c66ae_2952   scene_28_init
     0016694D  GBVM$scene_28_init$8de81519_2e8b   scene_28_init
     0016695F  GBVM$scene_28_init$32ec5cb0_62a4   scene_28_init
     00166971  GBVM$scene_28_init$e3b353cb_51c6   scene_28_init
     00166A33  GBVM$scene_28_init$fa7e0459_abab   scene_28_init
     00166A42  GBVM$scene_28_init$98d71785_91bb   scene_28_init
     00166AA5  GBVM_END$scene_28_init$32ec5cb0_   scene_28_init
     00166AA8  GBVM$scene_28_init$ab153bd8_3b13   scene_28_init
     00166B8B  GBVM_END$scene_28_init$52fcd95b_   scene_28_init
     00166B8B  GBVM_END$scene_28_init$8de81519_   scene_28_init
     00166B8E  GBVM$scene_28_init$c0de73fa_1d27   scene_28_init
     00166BC7  GBVM$scene_28_init$50b1a336_4b13   scene_28_init
     00166BDB  GBVM$scene_28_init$06008168_8d26   scene_28_init
     00166BDB  GBVM_END$scene_28_init$bbf7352b_   scene_28_init
     00166BED  GBVM$scene_28_init$3b0ac83b_3a59   scene_28_init
     00166C33  GBVM$scene_28_init$0ac85138_1966   scene_28_init
     00166C47  GBVM$scene_28_init$813f2590_d4ac   scene_28_init
ASxxxx Linker V03.00/V05.40 + sdld,  page 104.
Hexadecimal  [32-Bits]

Area                                    Addr        Size        Decimal Bytes (Attributes)
--------------------------------        ----        ----        ------- ----- ------------
_CODE_22                            00164000    00004000 =       16384. bytes (REL,CON)

      Value  Global                              Global Defined In Module
      -----  --------------------------------   ------------------------
     00166C53  GBVM$scene_28_init$b770cac2_2fb6   scene_28_init
     00166C85  GBVM_END$scene_28_init$813f2590_   scene_28_init
     00166C88  GBVM$scene_28_init$d62ee8e1_3633   scene_28_init
     00166CC2  GBVM$scene_28_init$a7b6d45f_a2dd   scene_28_init
     00166CC7  GBVM_END$scene_28_init$06008168_   scene_28_init
     00166CCA  GBVM$scene_28_init$7c7bac91_0c58   scene_28_init
     00166CDC  GBVM$scene_28_init$921fdff3_b04a   scene_28_init
     00166D45  GBVM$scene_28_init$07ae3c1a_2581   scene_28_init
     00166D74  GBVM$scene_28_init$bdb62b2b_82ef   scene_28_init
     00166D79  GBVM_END$scene_28_init$7c7bac91_   scene_28_init
     00166D79  GBVM_END$scene_28_init$d7823d9a_   scene_28_init
     00166D7C  GBVM$scene_28_init$2eb8c639_4211   scene_28_init
     00166D7C  GBVM_END$scene_28_init$cadc9ac8_   scene_28_init
     00166DAF  ___func_scene_57_collisions        scene_57_collisions
     00166DAF  _scene_57_collisions               scene_57_collisions
     001673AF  ___func_scene_58_collisions        scene_58_collisions
     001673AF  _scene_58_collisions               scene_58_collisions
     001679AF  ___func_scene_63_collisions        scene_63_collisions
     001679AF  _scene_63_collisions               scene_63_collisions
     00167FEF  GBVM$script_11$3dec4571_1fcc_4c4   script_11
     00167FEF  _script_11                         script_11
     00167FFE  GBVM_END$script_11$3dec4571_1fcc   script_11
ASxxxx Linker V03.00/V05.40 + sdld,  page 105.
Hexadecimal  [32-Bits]

Area                                    Addr        Size        Decimal Bytes (Attributes)
--------------------------------        ----        ----        ------- ----- ------------
_CODE_17                            00114000    00004000 =       16384. bytes (REL,CON)

      Value  Global                              Global Defined In Module
      -----  --------------------------------   ------------------------
     00114000  _music_init_driver                 music_manager
     0011405C  _music_init_events                 music_manager
     00114098  _music_events_poll                 music_manager
     001140C0  _music_pause                       music_manager
     001140E2  ___func_bg_9_1__tilemap_attr       bg_9_1__tilemap_attr
     001140E2  _bg_9_1__tilemap_attr              bg_9_1__tilemap_attr
     00114BDA  ___func_bg_9_1__tilemap            bg_9_1__tilemap
     00114BDA  _bg_9_1__tilemap                   bg_9_1__tilemap
     001156D2  ___func_bg_gameover_tileset        bg_gameover_tileset
     001156D2  _bg_gameover_tileset               bg_gameover_tileset
     00116184  ___func_bg_quelesttonnom_tileset   bg_quelesttonnom_tileset
     00116184  _bg_quelesttonnom_tileset          bg_quelesttonnom_tileset
     00116A56  ___func_bg_schoolext_tileset       bg_schoolext_tileset
     00116A56  _bg_schoolext_tileset              bg_schoolext_tileset
     00117508  ___func_scene_62_collisions        scene_62_collisions
     00117508  _scene_62_collisions               scene_62_collisions

ASxxxx Linker V03.00/V05.40 + sdld,  page 106.
Hexadecimal  [32-Bits]

Area                                    Addr        Size        Decimal Bytes (Attributes)
--------------------------------        ----        ----        ------- ----- ------------
_CODE_6                             00064000    00004000 =       16384. bytes (REL,CON)

      Value  Global                              Global Defined In Module
      -----  --------------------------------   ------------------------
     00064000  _palette_init                      palette
     00064037  _CGBZeroPalette                    palette
     0006404C  ___func_bg_4_tilemap               bg_4_tilemap
     0006404C  _bg_4_tilemap                      bg_4_tilemap
     00067FEB  _song_savetransfer_Data            song_savetransfer_Data

ASxxxx Linker V03.00/V05.40 + sdld,  page 107.
Hexadecimal  [32-Bits]

Area                                    Addr        Size        Decimal Bytes (Attributes)
--------------------------------        ----        ----        ------- ----- ------------
_CODE_20                            00144000    00004000 =       16384. bytes (REL,CON)

      Value  Global                              Global Defined In Module
      -----  --------------------------------   ------------------------
     00144000  _scroll_init                       scroll
     0014402A  _scroll_reset                      scroll
     0014404A  _scroll_update                     scroll
     00144181  _scroll_viewport                   scroll
     0014461A  _scroll_repaint                    scroll
     0014462A  _scroll_render_rows                scroll
     001446C0  _scroll_queue_row                  scroll
     001446E2  _scroll_queue_col                  scroll
     0014472D  ___func_VM_UI                      vm_ui
     0014472D  _vm_display_text                   vm_ui
     00144796  _vm_switch_text_layer              vm_ui
     001447B0  _vm_overlay_setpos                 vm_ui
     001447CA  _vm_overlay_wait                   vm_ui
     0014485A  _vm_overlay_move_to                vm_ui
     0014489E  _vm_overlay_set_scroll             vm_ui
     001448D7  _vm_overlay_clear                  vm_ui
     001449A9  _vm_overlay_show                   vm_ui
     001449F7  _vm_choice                         vm_ui
     00144B12  _vm_set_font                       vm_ui
     00144B41  _vm_overlay_scroll                 vm_ui
     00144BA2  _vm_overlay_set_submap             vm_ui
     00144C0E  _vm_overlay_set_submap_ex          vm_ui
     00144D0F  _vm_overlay_set_map                vm_ui
     00144E6E  _vm_set_text_sound                 vm_ui
     00144E87  ___func_bg_avcclaude_tileset       bg_avcclaude_tileset
     00144E87  _bg_avcclaude_tileset              bg_avcclaude_tileset
     00145669  ___func_bg_dogchecksavedata_tile   bg_dogchecksavedata_tileset
     00145669  _bg_dogchecksavedata_tileset       bg_dogchecksavedata_tileset
     00145D9B  ___func_bg_legendsealfountain_ti   bg_legendsealfountain_tilese
     00145D9B  _bg_legendsealfountain_tileset     bg_legendsealfountain_tilese
     0014657D  ___func_bg_quelesttonnom_copie_t   bg_quelesttonnom_copie_tiles
     0014657D  _bg_quelesttonnom_copie_tileset    bg_quelesttonnom_copie_tiles
     00146D5F  ___func_bg_untitled_tileset        bg_untitled_tileset
     00146D5F  _bg_untitled_tileset               bg_untitled_tileset
     00147101  GBVM$script_5_0$1b2f2d6c_2c83_47   script_5_0
     00147101  _script_5_0                        script_5_0
     00147113  GBVM$script_5_0$1cf99dd1_ca01_4b   script_5_0
     00147125  GBVM$script_5_0$557231bf_e81c_4e   script_5_0
     00147137  GBVM$script_5_0$bbcd3d26_8ae0_4f   script_5_0
     00147149  GBVM$script_5_0$d2ad5f34_36fd_43   script_5_0
     0014715B  GBVM$script_5_0$c9ad352f_4b92_4d   script_5_0
     0014716D  GBVM$script_5_0$0cc4989c_ca50_40   script_5_0
     0014717F  GBVM$script_5_0$8525de57_7087_4c   script_5_0
     00147191  GBVM$script_5_0$1e860f53_74a8_4e   script_5_0
     001471C6  GBVM$script_5_0$ccb3bd9a_c1d2_41   script_5_0
     001471CD  GBVM$script_5_0$12692051_b27b_44   script_5_0
     00147202  GBVM_END$script_5_0$8525de57_708   script_5_0
     00147205  GBVM$script_5_0$bf5372c3_de41_4d   script_5_0
     00147217  GBVM$script_5_0$1b6232dd_0c93_41   script_5_0
     0014724F  GBVM$script_5_0$5347b8b5_7ee2_4d   script_5_0
ASxxxx Linker V03.00/V05.40 + sdld,  page 108.
Hexadecimal  [32-Bits]

Area                                    Addr        Size        Decimal Bytes (Attributes)
--------------------------------        ----        ----        ------- ----- ------------
_CODE_20                            00144000    00004000 =       16384. bytes (REL,CON)

      Value  Global                              Global Defined In Module
      -----  --------------------------------   ------------------------
     00147284  GBVM_END$script_5_0$0cc4989c_ca5   script_5_0
     00147284  GBVM_END$script_5_0$bf5372c3_de4   script_5_0
     00147287  GBVM$script_5_0$261740e9_4cc1_46   script_5_0
     00147299  GBVM$script_5_0$3dd6866f_4cfb_41   script_5_0
     001472D1  GBVM$script_5_0$b09a48dc_56d5_4e   script_5_0
     00147306  GBVM_END$script_5_0$261740e9_4cc   script_5_0
     00147306  GBVM_END$script_5_0$c9ad352f_4b9   script_5_0
     00147309  GBVM$script_5_0$c1380a73_b198_4b   script_5_0
     0014731B  GBVM$script_5_0$4d65bf67_edd6_45   script_5_0
     00147353  GBVM$script_5_0$b91eb08a_1a06_45   script_5_0
     00147388  GBVM_END$script_5_0$c1380a73_b19   script_5_0
     00147388  GBVM_END$script_5_0$d2ad5f34_36f   script_5_0
     0014738B  GBVM$script_5_0$527c5a56_e7c2_4b   script_5_0
     0014739D  GBVM$script_5_0$c16bbbd6_80a5_4f   script_5_0
     001473D5  GBVM$script_5_0$4be3a313_d4b5_4f   script_5_0
     0014740A  GBVM_END$script_5_0$527c5a56_e7c   script_5_0
     0014740A  GBVM_END$script_5_0$bbcd3d26_8ae   script_5_0
     0014740D  GBVM$script_5_0$14d1e2b0_400c_43   script_5_0
     0014741F  GBVM$script_5_0$c945663a_f0be_46   script_5_0
     00147457  GBVM$script_5_0$8c05198a_393b_40   script_5_0
     0014748C  GBVM_END$script_5_0$14d1e2b0_400   script_5_0
     0014748C  GBVM_END$script_5_0$557231bf_e81   script_5_0
     0014748F  GBVM$script_5_0$310765ac_930c_4d   script_5_0
     001474C4  GBVM$script_5_0$4837b641_6e55_47   script_5_0
     001474F9  GBVM$script_5_0$ec1832e2_a6bf_49   script_5_0
     0014752E  GBVM$script_5_0$b86e71fd_64e3_46   script_5_0
     00147563  GBVM$script_5_0$24cde034_68f9_45   script_5_0
     00147598  GBVM$script_5_0$2412eb0d_6676_44   script_5_0
     001475CD  GBVM$script_5_0$e7a0c34c_af78_4f   script_5_0
     00147602  GBVM$script_5_0$1b50dec8_7da0_48   script_5_0
     00147637  GBVM$script_5_0$469d2d0d_7595_4f   script_5_0
     0014766C  GBVM$script_5_0$b670186a_09ba_45   script_5_0
     001476A1  GBVM$script_5_0$b1656ce9_1c92_47   script_5_0
     001476A6  GBVM_END$script_5_0$1cf99dd1_ca0   script_5_0
     001476A9  GBVM$script_5_0$79647f4c_77f1_43   script_5_0
     001476B2  GBVM$script_5_0$7e7266c0_a29b_47   script_5_0
     001476BB  GBVM$script_5_0$e3659821_aaa2_40   script_5_0
     001476C4  GBVM$script_5_0$42e55063_1dd3_41   script_5_0
     001476CD  GBVM$script_5_0$55038888_7890_48   script_5_0
     001476D6  GBVM$script_5_0$dfeca8d8_5ff5_47   script_5_0
     001476DF  GBVM$script_5_0$c114a5c5_beca_4b   script_5_0
     001476EB  GBVM$script_5_0$15e7c5dc_dd89_41   script_5_0
     00147720  GBVM_END$script_5_0$c114a5c5_bec   script_5_0
     00147723  GBVM$script_5_0$bc05ff43_56bc_41   script_5_0
     00147758  GBVM_END$script_5_0$dfeca8d8_5ff   script_5_0
     0014775B  GBVM$script_5_0$74d1b2e0_bbd9_4e   script_5_0
     00147790  GBVM_END$script_5_0$55038888_789   script_5_0
     00147793  GBVM$script_5_0$fa11d73e_529d_47   script_5_0
     001477C8  GBVM_END$script_5_0$42e55063_1dd   script_5_0
     001477CB  GBVM$script_5_0$5e832577_445d_44   script_5_0
     00147800  GBVM_END$script_5_0$e3659821_aaa   script_5_0
ASxxxx Linker V03.00/V05.40 + sdld,  page 109.
Hexadecimal  [32-Bits]

Area                                    Addr        Size        Decimal Bytes (Attributes)
--------------------------------        ----        ----        ------- ----- ------------
_CODE_20                            00144000    00004000 =       16384. bytes (REL,CON)

      Value  Global                              Global Defined In Module
      -----  --------------------------------   ------------------------
     00147803  GBVM$script_5_0$0d33821d_f0ef_47   script_5_0
     00147838  GBVM_END$script_5_0$7e7266c0_a29   script_5_0
     0014783B  GBVM$script_5_0$60b2cd27_83be_4d   script_5_0
     00147870  GBVM$script_5_0$a47fbc08_c10f_45   script_5_0
     00147870  GBVM_END$script_5_0$79647f4c_77f   script_5_0
     00147875  GBVM_END$script_5_0$1b2f2d6c_2c8   script_5_0
     00147877  GBVM$script_5$1b2f2d6c_2c83_4737   script_5
     00147877  _script_5                          script_5
     00147889  GBVM$script_5$1cf99dd1_ca01_4b83   script_5
     0014789B  GBVM$script_5$557231bf_e81c_4e68   script_5
     001478AD  GBVM$script_5$bbcd3d26_8ae0_4f48   script_5
     001478BF  GBVM$script_5$d2ad5f34_36fd_43a1   script_5
     001478D1  GBVM$script_5$c9ad352f_4b92_4d81   script_5
     001478E3  GBVM$script_5$0cc4989c_ca50_401a   script_5
     001478F5  GBVM$script_5$8525de57_7087_4ca6   script_5
     00147907  GBVM$script_5$1e860f53_74a8_4e77   script_5
     0014793C  GBVM$script_5$ccb3bd9a_c1d2_41a2   script_5
     00147943  GBVM$script_5$12692051_b27b_4466   script_5
     00147978  GBVM_END$script_5$8525de57_7087_   script_5
     0014797B  GBVM$script_5$bf5372c3_de41_4d14   script_5
     0014798D  GBVM$script_5$1b6232dd_0c93_4134   script_5
     001479C5  GBVM$script_5$5347b8b5_7ee2_4d13   script_5
     001479FA  GBVM_END$script_5$0cc4989c_ca50_   script_5
     001479FA  GBVM_END$script_5$bf5372c3_de41_   script_5
     001479FD  GBVM$script_5$261740e9_4cc1_463b   script_5
     00147A0F  GBVM$script_5$3dd6866f_4cfb_416a   script_5
     00147A47  GBVM$script_5$b09a48dc_56d5_4e97   script_5
     00147A7C  GBVM_END$script_5$261740e9_4cc1_   script_5
     00147A7C  GBVM_END$script_5$c9ad352f_4b92_   script_5
     00147A7F  GBVM$script_5$c1380a73_b198_4bc9   script_5
     00147A91  GBVM$script_5$4d65bf67_edd6_45d5   script_5
     00147AC9  GBVM$script_5$b91eb08a_1a06_45a6   script_5
     00147AFE  GBVM_END$script_5$c1380a73_b198_   script_5
     00147AFE  GBVM_END$script_5$d2ad5f34_36fd_   script_5
     00147B01  GBVM$script_5$527c5a56_e7c2_4b99   script_5
     00147B13  GBVM$script_5$c16bbbd6_80a5_4f15   script_5
     00147B4B  GBVM$script_5$4be3a313_d4b5_4fe4   script_5
     00147B80  GBVM_END$script_5$527c5a56_e7c2_   script_5
     00147B80  GBVM_END$script_5$bbcd3d26_8ae0_   script_5
     00147B83  GBVM$script_5$14d1e2b0_400c_4364   script_5
     00147B95  GBVM$script_5$c945663a_f0be_4651   script_5
     00147BCD  GBVM$script_5$8c05198a_393b_40d4   script_5
     00147C02  GBVM_END$script_5$14d1e2b0_400c_   script_5
     00147C02  GBVM_END$script_5$557231bf_e81c_   script_5
     00147C05  GBVM$script_5$310765ac_930c_4d43   script_5
     00147C3A  GBVM$script_5$4837b641_6e55_47b5   script_5
     00147C6F  GBVM$script_5$ec1832e2_a6bf_499f   script_5
     00147CA4  GBVM$script_5$b86e71fd_64e3_46a8   script_5
     00147CD9  GBVM$script_5$24cde034_68f9_4598   script_5
     00147D0E  GBVM$script_5$2412eb0d_6676_44f3   script_5
     00147D43  GBVM$script_5$e7a0c34c_af78_4f9c   script_5
ASxxxx Linker V03.00/V05.40 + sdld,  page 110.
Hexadecimal  [32-Bits]

Area                                    Addr        Size        Decimal Bytes (Attributes)
--------------------------------        ----        ----        ------- ----- ------------
_CODE_20                            00144000    00004000 =       16384. bytes (REL,CON)

      Value  Global                              Global Defined In Module
      -----  --------------------------------   ------------------------
     00147D78  GBVM$script_5$1b50dec8_7da0_4881   script_5
     00147DAD  GBVM$script_5$469d2d0d_7595_4f13   script_5
     00147DE2  GBVM$script_5$b670186a_09ba_45ca   script_5
     00147E17  GBVM$script_5$b1656ce9_1c92_4772   script_5
     00147E1C  GBVM_END$script_5$1cf99dd1_ca01_   script_5
     00147E1F  GBVM$script_5$79647f4c_77f1_43ff   script_5
     00147E28  GBVM$script_5$7e7266c0_a29b_47b5   script_5
     00147E31  GBVM$script_5$e3659821_aaa2_40eb   script_5
     00147E3A  GBVM$script_5$42e55063_1dd3_413a   script_5
     00147E43  GBVM$script_5$55038888_7890_4800   script_5
     00147E4C  GBVM$script_5$dfeca8d8_5ff5_479a   script_5
     00147E55  GBVM$script_5$c114a5c5_beca_4bcc   script_5
     00147E61  GBVM$script_5$15e7c5dc_dd89_41a9   script_5
     00147E96  GBVM_END$script_5$c114a5c5_beca_   script_5
     00147E99  GBVM$script_5$bc05ff43_56bc_41fd   script_5
     00147ECE  GBVM_END$script_5$dfeca8d8_5ff5_   script_5
     00147ED1  GBVM$script_5$74d1b2e0_bbd9_4e82   script_5
     00147F06  GBVM_END$script_5$55038888_7890_   script_5
     00147F09  GBVM$script_5$fa11d73e_529d_4731   script_5
     00147F3E  GBVM_END$script_5$42e55063_1dd3_   script_5
     00147F41  GBVM$script_5$5e832577_445d_44eb   script_5
     00147F76  GBVM_END$script_5$e3659821_aaa2_   script_5
     00147F79  GBVM$script_5$0d33821d_f0ef_475a   script_5
     00147FAE  GBVM_END$script_5$7e7266c0_a29b_   script_5
     00147FB1  GBVM$script_5$60b2cd27_83be_4db6   script_5
     00147FE6  GBVM$script_5$a47fbc08_c10f_459a   script_5
     00147FE6  GBVM_END$script_5$79647f4c_77f1_   script_5
     00147FEB  GBVM_END$script_5$1b2f2d6c_2c83_   script_5
     00147FED  ___func_sound_legacy_0_0           sound_legacy_0_0
     00147FED  _sound_legacy_0_0                  sound_legacy_0_0

ASxxxx Linker V03.00/V05.40 + sdld,  page 111.
Hexadecimal  [32-Bits]

Area                                    Addr        Size        Decimal Bytes (Attributes)
--------------------------------        ----        ----        ------- ----- ------------
_CODE_1                             00014000    00003FFF =       16383. bytes (REL,CON)

      Value  Global                              Global Defined In Module
      -----  --------------------------------   ------------------------
     00014000  _ui_swap_tiles                     
     0001404A  _ui_print_make_mask_lr             
     00014066  _ui_print_make_mask_rl             
     00014082  _ui_init                           ui
     00014153  _ui_load_tiles                     ui
     000141AA  _ui_draw_frame                     ui
     00014244  _ui_print_reset                    ui
     00014295  _ui_set_start_tile                 ui
     000142C1  _ui_print_render                   ui
     00014557  _ui_draw_text_buffer_char          ui
     00014A41  _ui_run_menu                       ui
     00014C18  _ui_run_modal                      ui
     00014CD2  ___func_VM_SGB                     vm_sgb
     00014CD2  ___func_bg_3_tilemap_attr          bg_3_tilemap_attr
     00014CD2  _bg_3_tilemap_attr                 bg_3_tilemap_attr
     000174A2  ___func_bg_city2_tileset           bg_city2_tileset
     000174A2  _bg_city2_tileset                  bg_city2_tileset
     00017FD4  ___func_sprite_new_piskel_1_png    sprite_new_piskel_1_png
     00017FD4  _sprite_new_piskel_1_png_metaspr   sprite_new_piskel_1_png
     00017FD8  _sprite_new_piskel_1_png_metaspr   sprite_new_piskel_1_png
     00017FDA  _sprite_new_piskel_1_png_animati   sprite_new_piskel_1_png
     00017FEA  _sprite_new_piskel_1_png_animati   sprite_new_piskel_1_png
     00017FEC  _sprite_new_piskel_1_png           sprite_new_piskel_1_png

ASxxxx Linker V03.00/V05.40 + sdld,  page 112.
Hexadecimal  [32-Bits]

Area                                    Addr        Size        Decimal Bytes (Attributes)
--------------------------------        ----        ----        ------- ----- ------------
_CODE_28                            001C4000    00004000 =       16384. bytes (REL,CON)

      Value  Global                              Global Defined In Module
      -----  --------------------------------   ------------------------
     001C4000  _set_sgb_border                    sgb_border
     001C41EA  ___func_bg_castle_town_tilemap_a   bg_castle_town_tilemap_attr
     001C41EA  _bg_castle_town_tilemap_attr       bg_castle_town_tilemap_attr
     001C43F2  ___func_bg_castle_town_tilemap     bg_castle_town_tilemap
     001C43F2  _bg_castle_town_tilemap            bg_castle_town_tilemap
     001C45FA  ___func_bg_dogchecksavedata_copi   bg_dogchecksavedata_copie_0_
     001C45FA  _bg_dogchecksavedata_copie_0_til   bg_dogchecksavedata_copie_0_
     001C4807  ___func_bg_dogchecksavedata_copi   bg_dogchecksavedata_copie_0_
     001C4807  _bg_dogchecksavedata_copie_0_til   bg_dogchecksavedata_copie_0_
     001C4A14  ___func_bg_fountaincastle_tilema   bg_fountaincastle_tilemap_at
     001C4A14  _bg_fountaincastle_tilemap_attr    bg_fountaincastle_tilemap_at
     001C4BF7  ___func_bg_fountaincastle_tilema   bg_fountaincastle_tilemap
     001C4BF7  _bg_fountaincastle_tilemap         bg_fountaincastle_tilemap
     001C4DDA  ___func_bg_legend5d_tilemap_attr   bg_legend5d_tilemap_attr
     001C4DDA  _bg_legend5d_tilemap_attr          bg_legend5d_tilemap_attr
     001C4FD2  ___func_bg_legend5d_tilemap        bg_legend5d_tilemap
     001C4FD2  _bg_legend5d_tilemap               bg_legend5d_tilemap
     001C51CA  ___func_bg_legendsealfountain_ti   bg_legendsealfountain_tilema
     001C51CA  _bg_legendsealfountain_tilemap_a   bg_legendsealfountain_tilema
     001C53DB  ___func_bg_legendsealfountain_ti   bg_legendsealfountain_tilema
     001C53DB  _bg_legendsealfountain_tilemap     bg_legendsealfountain_tilema
     001C55EC  ___func_bg_quelesttonnom_copie_t   bg_quelesttonnom_copie_tilem
     001C55EC  _bg_quelesttonnom_copie_tilemap_   bg_quelesttonnom_copie_tilem
     001C579C  ___func_bg_room_tilemap_attr       bg_room_tilemap_attr
     001C579C  _bg_room_tilemap_attr              bg_room_tilemap_attr
     001C5994  ___func_bg_room_tilemap            bg_room_tilemap
     001C5994  _bg_room_tilemap                   bg_room_tilemap
     001C5B8C  ___func_bg_secoundfountain_tilem   bg_secoundfountain_tilemap_a
     001C5B8C  _bg_secoundfountain_tilemap_attr   bg_secoundfountain_tilemap_a
     001C5DB4  ___func_bg_secoundfountain_tilem   bg_secoundfountain_tilemap
     001C5DB4  _bg_secoundfountain_tilemap        bg_secoundfountain_tilemap
     001C5FDC  ___func_bg_title_tilemap_attr      bg_title_tilemap_attr
     001C5FDC  _bg_title_tilemap_attr             bg_title_tilemap_attr
     001C61D4  ___func_bg_title_tilemap           bg_title_tilemap
     001C61D4  _bg_title_tilemap                  bg_title_tilemap
     001C63CC  ___func_scene_0_collisions         scene_0_collisions
     001C63CC  _scene_0_collisions                scene_0_collisions
     001C65C4  ___func_scene_1_collisions         scene_1_collisions
     001C65C4  _scene_1_collisions                scene_1_collisions
     001C67D5  ___func_scene_10_collisions        scene_10_collisions
     001C67D5  _scene_10_collisions               scene_10_collisions
     001C69CD  _scene_10_init                     scene_10_init
     001C69D0  GBVM$scene_10_init$eeec0af5_924a   scene_10_init
     001C69D4  GBVM$scene_10_init$autofade$bdec   scene_10_init
     001C69DF  GBVM$scene_10_init$2f3372f0_09d2   scene_10_init
     001C6A33  GBVM$scene_10_init$d90de63f_12b8   scene_10_init
     001C6A45  GBVM$scene_10_init$156c3238_df50   scene_10_init
     001C6A57  GBVM$scene_10_init$809600c5_5ab8   scene_10_init
     001C6A9D  GBVM$scene_10_init$603c63a1_c166   scene_10_init
     001C6AAF  GBVM$scene_10_init$b5846ebe_1e76   scene_10_init
ASxxxx Linker V03.00/V05.40 + sdld,  page 113.
Hexadecimal  [32-Bits]

Area                                    Addr        Size        Decimal Bytes (Attributes)
--------------------------------        ----        ----        ------- ----- ------------
_CODE_28                            001C4000    00004000 =       16384. bytes (REL,CON)

      Value  Global                              Global Defined In Module
      -----  --------------------------------   ------------------------
     001C6AE4  GBVM$scene_10_init$da9b9d91_8bda   scene_10_init
     001C6B16  GBVM_END$scene_10_init$603c63a1_   scene_10_init
     001C6B19  GBVM$scene_10_init$fa3726a7_8f72   scene_10_init
     001C6B2C  GBVM$scene_10_init$c85efd47_3e99   scene_10_init
     001C6B63  GBVM$scene_10_init$b6494b65_fd77   scene_10_init
     001C6B98  GBVM$scene_10_init$7ca113cc_1eab   scene_10_init
     001C6B9C  GBVM_END$scene_10_init$156c3238_   scene_10_init
     001C6B9C  GBVM_END$scene_10_init$fa3726a7_   scene_10_init
     001C6B9F  GBVM$scene_10_init$af1d8a4a_0a8e   scene_10_init
     001C6BD1  GBVM_END$scene_10_init$d90de63f_   scene_10_init
     001C6BD2  ___func_scene_2_collisions         scene_2_collisions
     001C6BD2  _scene_2_collisions                scene_2_collisions
     001C6DB5  _scene_26_init                     scene_26_init
     001C6DB8  GBVM$scene_26_init$1b7afb9f_7eaa   scene_26_init
     001C6DBD  GBVM$scene_26_init$6f014e6e_846e   scene_26_init
     001C6DC2  GBVM$scene_26_init$839547c3_1d03   scene_26_init
     001C6DC7  GBVM$scene_26_init$8674a678_7cf8   scene_26_init
     001C6DCC  GBVM$scene_26_init$732cd9c0_2395   scene_26_init
     001C6DD1  GBVM$scene_26_init$fc789aa6_c844   scene_26_init
     001C6DD6  GBVM$scene_26_init$8039671c_b582   scene_26_init
     001C6DDB  GBVM$scene_26_init$autofade$96d9   scene_26_init
     001C6DE6  GBVM$scene_26_init$1b15a521_625b   scene_26_init
     001C6DFB  GBVM$scene_26_init$281a4f8f_59fa   scene_26_init
     001C6E10  GBVM$scene_26_init$5e8ecb9a_cacf   scene_26_init
     001C6E25  GBVM$scene_26_init$042a9c20_7abe   scene_26_init
     001C6E3A  GBVM$scene_26_init$4db063a3_92d5   scene_26_init
     001C6E4F  GBVM$scene_26_init$9d92343b_fac7   scene_26_init
     001C6E64  GBVM$scene_26_init$369d0b66_399b   scene_26_init
     001C6E79  GBVM$scene_26_init$b0eea33e_7f85   scene_26_init
     001C6EDD  GBVM$scene_26_init$36245d40_610a   scene_26_init
     001C6EDD  GBVM_END$scene_26_init$042a9c20_   scene_26_init
     001C6EDD  GBVM_END$scene_26_init$1b15a521_   scene_26_init
     001C6EDD  GBVM_END$scene_26_init$281a4f8f_   scene_26_init
     001C6EDD  GBVM_END$scene_26_init$369d0b66_   scene_26_init
     001C6EDD  GBVM_END$scene_26_init$4db063a3_   scene_26_init
     001C6EDD  GBVM_END$scene_26_init$5e8ecb9a_   scene_26_init
     001C6EDD  GBVM_END$scene_26_init$9d92343b_   scene_26_init
     001C6F8B  GBVM$scene_26_init$744ffe0f_b09f   scene_26_init
     001C6FBE  ___func_scene_3_collisions         scene_3_collisions
     001C6FBE  _scene_3_collisions                scene_3_collisions
     001C71E6  _scene_37_init                     scene_37_init
     001C71E9  GBVM$scene_37_init$autofade$757f   scene_37_init
     001C71F4  GBVM$scene_37_init$bbec6ddd_a9af   scene_37_init
     001C7267  GBVM$scene_37_init$f1e04432_9feb   scene_37_init
     001C727D  GBVM$scene_37_init$f73e9ab0_d142   scene_37_init
     001C7287  GBVM$scene_37_init$a66ba79a_ad41   scene_37_init
     001C729D  GBVM$scene_37_init$fb5d4a2b_2a84   scene_37_init
     001C72A7  GBVM$scene_37_init$1b9001aa_6cd3   scene_37_init
     001C72AB  GBVM$scene_37_init$1866276f_331a   scene_37_init
     001C72CE  GBVM$scene_37_init$d1db86b0_e432   scene_37_init
     001C73C2  GBVM$scene_37_init$1e50d3ff_0467   scene_37_init
ASxxxx Linker V03.00/V05.40 + sdld,  page 114.
Hexadecimal  [32-Bits]

Area                                    Addr        Size        Decimal Bytes (Attributes)
--------------------------------        ----        ----        ------- ----- ------------
_CODE_28                            001C4000    00004000 =       16384. bytes (REL,CON)

      Value  Global                              Global Defined In Module
      -----  --------------------------------   ------------------------
     001C73F5  ___func_scene_49_collisions        scene_49_collisions
     001C73F5  _scene_49_collisions               scene_49_collisions
     001C7602  ___func_scene_65_collisions        scene_65_collisions
     001C7602  _scene_65_collisions               scene_65_collisions
     001C780A  ___func_scene_67_collisions        scene_67_collisions
     001C780A  _scene_67_collisions               scene_67_collisions
     001C7A02  _script_0_0                        script_0_0
     001C7A04  GBVM$script_0_0$2dae5f54_73db_47   script_0_0
     001C7A16  GBVM$script_0_0$9856e6fd_f700_4c   script_0_0
     001C7A2B  GBVM$script_0_0$0f081ae4_2ede_4e   script_0_0
     001C7A99  GBVM_END$script_0_0$9856e6fd_f70   script_0_0
     001C7A9C  GBVM$script_0_0$804b3fda_dc90_4e   script_0_0
     001C7B10  GBVM$script_0_0$1a7557b3_2cbf_47   script_0_0
     001C7B10  GBVM_END$script_0_0$2dae5f54_73d   script_0_0
     001C7B4B  GBVM$script_0_0$6a81336a_4d7b_4c   script_0_0
     001C7B54  GBVM$script_0_0$807faab5_93df_45   script_0_0
     001C7B66  GBVM$script_0_0$2f2b55af_63a2_4d   script_0_0
     001C7B9B  GBVM$script_0_0$ad0555d3_f35e_47   script_0_0
     001C7BCD  GBVM_END$script_0_0$807faab5_93d   script_0_0
     001C7BD0  GBVM$script_0_0$f85945a8_6d32_45   script_0_0
     001C7BD5  GBVM$script_0_0$ce4ae75a_a585_49   script_0_0
     001C7BDA  GBVM$script_0_0$9b6d4aea_cdab_4c   script_0_0
     001C7BDF  GBVM$script_0_0$f1947402_e173_42   script_0_0
     001C7BE4  GBVM$script_0_0$75782784_2473_46   script_0_0
     001C7BE9  GBVM$script_0_0$aa196516_a8ce_41   script_0_0
     001C7BEE  GBVM$script_0_0$8a2fbe14_1444_4d   script_0_0
     001C7BF3  GBVM$script_0_0$5f2fe7b8_e1b4_48   script_0_0
     001C7BF8  GBVM$script_0_0$7c44f968_5c70_47   script_0_0
     001C7BFC  GBVM_END$script_0_0$6a81336a_4d7   script_0_0
     001C7C00  _script_0                          script_0
     001C7C02  GBVM$script_0$2dae5f54_73db_475d   script_0
     001C7C14  GBVM$script_0$9856e6fd_f700_4ce9   script_0
     001C7C29  GBVM$script_0$0f081ae4_2ede_4e06   script_0
     001C7C97  GBVM_END$script_0$9856e6fd_f700_   script_0
     001C7C9A  GBVM$script_0$804b3fda_dc90_4e72   script_0
     001C7D0E  GBVM$script_0$1a7557b3_2cbf_4779   script_0
     001C7D0E  GBVM_END$script_0$2dae5f54_73db_   script_0
     001C7D49  GBVM$script_0$6a81336a_4d7b_4cc8   script_0
     001C7D52  GBVM$script_0$807faab5_93df_4500   script_0
     001C7D64  GBVM$script_0$2f2b55af_63a2_4db1   script_0
     001C7D99  GBVM$script_0$ad0555d3_f35e_47f7   script_0
     001C7DCB  GBVM_END$script_0$807faab5_93df_   script_0
     001C7DCE  GBVM$script_0$f85945a8_6d32_45dd   script_0
     001C7DD3  GBVM$script_0$ce4ae75a_a585_49a8   script_0
     001C7DD8  GBVM$script_0$9b6d4aea_cdab_4c72   script_0
     001C7DDD  GBVM$script_0$f1947402_e173_426c   script_0
     001C7DE2  GBVM$script_0$75782784_2473_469d   script_0
     001C7DE7  GBVM$script_0$aa196516_a8ce_4182   script_0
     001C7DEC  GBVM$script_0$8a2fbe14_1444_4d10   script_0
     001C7DF1  GBVM$script_0$5f2fe7b8_e1b4_481c   script_0
     001C7DF6  GBVM$script_0$7c44f968_5c70_47b2   script_0
ASxxxx Linker V03.00/V05.40 + sdld,  page 115.
Hexadecimal  [32-Bits]

Area                                    Addr        Size        Decimal Bytes (Attributes)
--------------------------------        ----        ----        ------- ----- ------------
_CODE_28                            001C4000    00004000 =       16384. bytes (REL,CON)

      Value  Global                              Global Defined In Module
      -----  --------------------------------   ------------------------
     001C7DFA  GBVM_END$script_0$6a81336a_4d7b_   script_0
     001C7DFE  ___func_sprite_toriel_tileset      sprite_toriel_tileset
     001C7DFE  _sprite_toriel_tileset             sprite_toriel_tileset

ASxxxx Linker V03.00/V05.40 + sdld,  page 116.
Hexadecimal  [32-Bits]

Area                                    Addr        Size        Decimal Bytes (Attributes)
--------------------------------        ----        ----        ------- ----- ------------
_CODE_21                            00154000    00004000 =       16384. bytes (REL,CON)

      Value  Global                              Global Defined In Module
      -----  --------------------------------   ------------------------
     00154000  ___func_VM_GAMEBOY                 vm_gameboy
     00154000  _vm_set_sprites_visible            vm_gameboy
     00154017  _vm_input_wait                     vm_gameboy
     00154040  _vm_context_prepare                vm_gameboy
     0015406B  _vm_input_attach                   vm_gameboy
     00154081  _vm_input_detach                   vm_gameboy
     00154095  _vm_input_get                      vm_gameboy
     001540C9  _vm_fade                           vm_gameboy
     001540F9  _vm_timer_prepare                  vm_gameboy
     00154124  _vm_timer_set                      vm_gameboy
     0015413F  _vm_timer_stop                     vm_gameboy
     00154153  _vm_timer_reset                    vm_gameboy
     0015416A  _vm_get_tile_xy                    vm_gameboy
     00154240  _vm_replace_tile                   vm_gameboy
     001542EB  _vm_poll                           vm_gameboy
     001543BD  _vm_set_sprite_mode                vm_gameboy
     001543D1  _vm_replace_tile_xy                vm_gameboy
     001545B1  _vm_rumble                         vm_gameboy
     001545D1  _vm_load_tileset                   vm_gameboy
     001546A2  ___func_bg_3_tileset               bg_3_tileset
     001546A2  _bg_3_tileset                      bg_3_tileset
     00154D44  ___func_bg_4_tileset               bg_4_tileset
     00154D44  _bg_4_tileset                      bg_4_tileset
     00155426  ___func_bg_5_tileset               bg_5_tileset
     00155426  _bg_5_tileset                      bg_5_tileset
     00155838  ___func_bg_8_tileset               bg_8_tileset
     00155838  _bg_8_tileset                      bg_8_tileset
     00155E9A  ___func_bg_dogchecksavedata_copi   bg_dogchecksavedata_copie_ti
     00155E9A  _bg_dogchecksavedata_copie_tiles   bg_dogchecksavedata_copie_ti
     0015653C  ___func_bg_legend6d_tileset        bg_legend6d_tileset
     0015653C  _bg_legend6d_tileset               bg_legend6d_tileset
     00156C2E  ___func_bg_toilet_tileset          bg_toilet_tileset
     00156C2E  _bg_toilet_tileset                 bg_toilet_tileset
     00157290  _scene_29_init                     scene_29_init
     00157293  GBVM$scene_29_init$8389a19e_c234   scene_29_init
     00157297  GBVM$scene_29_init$a63a9ce7_e534   scene_29_init
     0015729C  GBVM$scene_29_init$ab39a9b7_3645   scene_29_init
     001572A1  GBVM$scene_29_init$568efb33_0d24   scene_29_init
     001572A6  GBVM$scene_29_init$8e88915e_340b   scene_29_init
     001572AB  GBVM$scene_29_init$fddef711_1958   scene_29_init
     001572B0  GBVM$scene_29_init$e7670cf3_e15c   scene_29_init
     001572B7  GBVM$scene_29_init$autofade$cef5   scene_29_init
     001572C2  GBVM$scene_29_init$a85ef752_93df   scene_29_init
     001572D4  GBVM$scene_29_init$6295dab0_8dab   scene_29_init
     0015732E  GBVM$scene_29_init$13a3ba1b_f681   scene_29_init
     00157337  GBVM$scene_29_init$e8bc69b4_1995   scene_29_init
     00157349  GBVM$scene_29_init$9635b77a_e077   scene_29_init
     0015735B  GBVM$scene_29_init$744e8ae1_989e   scene_29_init
     0015739E  GBVM$scene_29_init$0cef9680_18a8   scene_29_init
     001573F3  GBVM$scene_29_init$44aeb7a0_9cae   scene_29_init
ASxxxx Linker V03.00/V05.40 + sdld,  page 117.
Hexadecimal  [32-Bits]

Area                                    Addr        Size        Decimal Bytes (Attributes)
--------------------------------        ----        ----        ------- ----- ------------
_CODE_21                            00154000    00004000 =       16384. bytes (REL,CON)

      Value  Global                              Global Defined In Module
      -----  --------------------------------   ------------------------
     00157405  GBVM$scene_29_init$0a620ca5_a251   scene_29_init
     00157417  GBVM$scene_29_init$4d303a3f_34a1   scene_29_init
     001574D9  GBVM$scene_29_init$bd7dcda0_aa74   scene_29_init
     001574DE  GBVM$scene_29_init$6515c17d_f67a   scene_29_init
     001574ED  GBVM$scene_29_init$12c6f729_b46e   scene_29_init
     00157567  GBVM$scene_29_init$6efe891e_125d   scene_29_init
     0015756C  GBVM$scene_29_init$c3e6e179_6450   scene_29_init
     00157578  GBVM_END$scene_29_init$0a620ca5_   scene_29_init
     0015757B  GBVM$scene_29_init$c26c0d1d_47a7   scene_29_init
     0015765E  GBVM_END$scene_29_init$44aeb7a0_   scene_29_init
     0015765E  GBVM_END$scene_29_init$9635b77a_   scene_29_init
     00157661  GBVM$scene_29_init$5fec33ee_dfd4   scene_29_init
     0015769A  GBVM$scene_29_init$3026e07a_a94e   scene_29_init
     001576AE  GBVM$scene_29_init$3271a359_3516   scene_29_init
     001576AE  GBVM_END$scene_29_init$e8bc69b4_   scene_29_init
     001576C3  GBVM$scene_29_init$ee2359e9_a62c   scene_29_init
     001576CE  GBVM$scene_29_init$b2cd9c50_45ee   scene_29_init
     001576CE  GBVM_END$scene_29_init$3271a359_   scene_29_init
     00157708  GBVM$scene_29_init$b1fc49db_9e43   scene_29_init
     0015771A  GBVM$scene_29_init$9618f7e0_10a0   scene_29_init
     00157729  GBVM$scene_29_init$fa94dd69_c901   scene_29_init
     0015775D  GBVM$scene_29_init$fb48a1b8_7da4   scene_29_init
     0015775D  GBVM_END$scene_29_init$b1fc49db_   scene_29_init
     0015776F  GBVM$scene_29_init$61e36eee_e2eb   scene_29_init
     001577B5  GBVM$scene_29_init$4f873919_e476   scene_29_init
     001577C9  GBVM$scene_29_init$aace9abe_ad64   scene_29_init
     001577D5  GBVM$scene_29_init$a7692eb0_b392   scene_29_init
     00157807  GBVM_END$scene_29_init$aace9abe_   scene_29_init
     0015780A  GBVM$scene_29_init$35922b8d_5ec3   scene_29_init
     00157844  GBVM$scene_29_init$f1f3a1ea_87b6   scene_29_init
     00157849  GBVM_END$scene_29_init$fb48a1b8_   scene_29_init
     0015784C  GBVM$scene_29_init$e7515b96_9715   scene_29_init
     0015785E  GBVM$scene_29_init$d55972cf_bd27   scene_29_init
     001578C7  GBVM$scene_29_init$adee88d5_8047   scene_29_init
     001578F6  GBVM$scene_29_init$94cd4a60_e84f   scene_29_init
     001578FB  GBVM_END$scene_29_init$13a3ba1b_   scene_29_init
     001578FB  GBVM_END$scene_29_init$e7515b96_   scene_29_init
     001578FE  GBVM$scene_29_init$2a0b4e15_bdf2   scene_29_init
     001578FE  GBVM_END$scene_29_init$a85ef752_   scene_29_init
     00157903  GBVM$scene_29_init$9d5d7e3c_d06e   scene_29_init
     00157907  GBVM$scene_29_init$d548e3bf_accd   scene_29_init
     0015793A  _topdown_init                      topdown
     001579D6  _topdown_update                    topdown
ASxxxx Linker V03.00/V05.40 + sdld,  page 118.
Hexadecimal  [32-Bits]

Area                                    Addr        Size        Decimal Bytes (Attributes)
--------------------------------        ----        ----        ------- ----- ------------
_CODE_31                            001F4000    00004000 =       16384. bytes (REL,CON)

      Value  Global                              Global Defined In Module
      -----  --------------------------------   ------------------------
     001F4000  ___func_VM_MATH                    vm_math
     001F4000  _vm_sin_scale                      vm_math
     001F409C  _vm_cos_scale                      vm_math
     001F413A  ___func_VM_PROJECTILE              vm_projectiles
     001F413A  _vm_projectile_launch              vm_projectiles
     001F417B  _vm_projectile_load_type           vm_projectiles
     001F420D  ___func_VM_RTC                     vm_rtc
     001F420D  _vm_rtc_latch                      vm_rtc
     001F4215  _vm_rtc_get                        vm_rtc
     001F427C  _vm_rtc_set                        vm_rtc
     001F42DA  _vm_rtc_start                      vm_rtc
     001F42FD  _itoa_fmt                          vm_ui_a
     001F4331  .utoa_fmt                          vm_ui_a
     001F43DB  _actor_31_interact                 actor_31_interact
     001F43DC  GBVM$actor_31_interact$9d21cc14_   actor_31_interact
     001F44D0  _actor_56_interact                 actor_56_interact
     001F44D1  GBVM$actor_56_interact$f84a68ed_   actor_56_interact
     001F45D0  _actor_57_interact                 actor_57_interact
     001F45D1  GBVM$actor_57_interact$f3128d81_   actor_57_interact
     001F46C4  _actor_67_interact                 actor_67_interact
     001F46C7  GBVM$actor_67_interact$3864bbbe_   actor_67_interact
     001F4732  GBVM$actor_67_interact$c07fabe6_   actor_67_interact
     001F476C  GBVM$actor_67_interact$511f08e8_   actor_67_interact
     001F47AD  GBVM$actor_67_interact$4e7a01c2_   actor_67_interact
     001F47B6  GBVM$actor_67_interact$8076eca9_   actor_67_interact
     001F47BB  GBVM$actor_67_interact$99e21a7b_   actor_67_interact
     001F47CB  GBVM$actor_67_interact$b6d95686_   actor_67_interact
     001F47F8  GBVM$actor_67_interact$autofade$   actor_67_interact
     001F4803  GBVM_END$actor_67_interact$99e21   actor_67_interact
     001F4806  GBVM_END$actor_67_interact$4e7a0   actor_67_interact
     001F4807  _actor_70_interact                 actor_70_interact
     001F480A  GBVM$actor_70_interact$e847b0bf_   actor_70_interact
     001F481C  GBVM$actor_70_interact$a41453bb_   actor_70_interact
     001F4882  GBVM$actor_70_interact$a9ae893a_   actor_70_interact
     001F48BD  GBVM$actor_70_interact$1abe29fd_   actor_70_interact
     001F48D2  GBVM$actor_70_interact$a9da4ac5_   actor_70_interact
     001F490C  GBVM$actor_70_interact$fefb219c_   actor_70_interact
     001F4918  GBVM$actor_70_interact$310eaf90_   actor_70_interact
     001F4922  GBVM$actor_70_interact$963c5acf_   actor_70_interact
     001F492C  GBVM_END$actor_70_interact$1abe2   actor_70_interact
     001F492F  GBVM_END$actor_70_interact$e847b   actor_70_interact
     001F4930  ___func_bg_blackdoor_tileset       bg_blackdoor_tileset
     001F4930  _bg_blackdoor_tileset              bg_blackdoor_tileset
     001F4A02  ___func_bg_legend6d_tilemap_attr   bg_legend6d_tilemap_attr
     001F4A02  _bg_legend6d_tilemap_attr          bg_legend6d_tilemap_attr
     001F4B6A  ___func_bg_legend6d_tilemap        bg_legend6d_tilemap
     001F4B6A  _bg_legend6d_tilemap               bg_legend6d_tilemap
     001F4CD2  ___func_bg_new_piskel_43__tilema   bg_new_piskel_43__tilemap_at
     001F4CD2  _bg_new_piskel_43__tilemap_attr    bg_new_piskel_43__tilemap_at
     001F4E3A  ___func_bg_new_piskel_43__tilema   bg_new_piskel_43__tilemap
ASxxxx Linker V03.00/V05.40 + sdld,  page 119.
Hexadecimal  [32-Bits]

Area                                    Addr        Size        Decimal Bytes (Attributes)
--------------------------------        ----        ----        ------- ----- ------------
_CODE_31                            001F4000    00004000 =       16384. bytes (REL,CON)

      Value  Global                              Global Defined In Module
      -----  --------------------------------   ------------------------
     001F4E3A  _bg_new_piskel_43__tilemap         bg_new_piskel_43__tilemap
     001F4FA2  ___func_bg_the_castle_copie_tile   bg_the_castle_copie_tilemap_
     001F4FA2  _bg_the_castle_copie_tilemap_att   bg_the_castle_copie_tilemap_
     001F510A  ___func_bg_the_castle_copie_tile   bg_the_castle_copie_tilemap
     001F510A  _bg_the_castle_copie_tilemap       bg_the_castle_copie_tilemap
     001F5272  ___func_bg_toilet_tilemap_attr     bg_toilet_tilemap_attr
     001F5272  _bg_toilet_tilemap_attr            bg_toilet_tilemap_attr
     001F53DA  ___func_bg_toilet_tilemap          bg_toilet_tilemap
     001F53DA  _bg_toilet_tilemap                 bg_toilet_tilemap
     001F5542  ___func_bg_toilet2_tilemap_attr    bg_toilet2_tilemap_attr
     001F5542  _bg_toilet2_tilemap_attr           bg_toilet2_tilemap_attr
     001F56AA  ___func_bg_toilet2_tilemap         bg_toilet2_tilemap
     001F56AA  _bg_toilet2_tilemap                bg_toilet2_tilemap
     001F5812  _scene_0_init                      scene_0_init
     001F5815  GBVM$scene_0_init$autofade$cc2cd   scene_0_init
     001F5820  GBVM$scene_0_init$ef5e87da_579f_   scene_0_init
     001F58FF  GBVM$scene_0_init$9863d6d5_fc00_   scene_0_init
     001F5932  _scene_1_init                      scene_1_init
     001F5935  GBVM$scene_1_init$autofade$5ec19   scene_1_init
     001F5940  GBVM$scene_1_init$bfd81802_8068_   scene_1_init
     001F59EE  GBVM$scene_1_init$82010101_4f08_   scene_1_init
     001F5A21  _scene_15_init                     scene_15_init
     001F5A24  GBVM$scene_15_init$c9cae430_475a   scene_15_init
     001F5A2C  GBVM$scene_15_init$4bc11c87_3835   scene_15_init
     001F5A31  GBVM$scene_15_init$e1bac545_7882   scene_15_init
     001F5A86  GBVM$scene_15_init$autofade$34e9   scene_15_init
     001F5A91  GBVM$scene_15_init$70576979_dd27   scene_15_init
     001F5A9D  GBVM$scene_15_init$5680929d_e6e7   scene_15_init
     001F5AD0  _scene_2_init                      scene_2_init
     001F5AD3  GBVM$scene_2_init$autofade$8247d   scene_2_init
     001F5ADE  GBVM$scene_2_init$0446dccc_0519_   scene_2_init
     001F5B23  GBVM$scene_2_init$1573368f_4d3e_   scene_2_init
     001F5B36  GBVM$scene_2_init$666caaf3_57ef_   scene_2_init
     001F5BB3  GBVM$scene_2_init$6037f883_be4e_   scene_2_init
     001F5BE6  ___func_scene_21_collisions        scene_21_collisions
     001F5BE6  _scene_21_collisions               scene_21_collisions
     001F5D4E  _scene_21_init                     scene_21_init
     001F5D51  GBVM$scene_21_init$autofade$5b1a   scene_21_init
     001F5D5C  GBVM$scene_21_init$37e78464_7a7f   scene_21_init
     001F5DAD  GBVM$scene_21_init$a6285c01_3ca9   scene_21_init
     001F5DB2  GBVM$scene_21_init$310e09d0_e6d6   scene_21_init
     001F5DB7  GBVM$scene_21_init$5cea6e35_32b6   scene_21_init
     001F5DBC  GBVM$scene_21_init$59f75726_422e   scene_21_init
     001F5DC1  GBVM$scene_21_init$d091b765_fb9e   scene_21_init
     001F5DC6  GBVM$scene_21_init$9b2c9985_d1cf   scene_21_init
     001F5DDB  GBVM$scene_21_init$a0160990_82f5   scene_21_init
     001F5DE5  GBVM$scene_21_init$2a21d68b_9b9f   scene_21_init
     001F5DEF  GBVM$scene_21_init$4c5f80fa_e20f   scene_21_init
     001F5DF9  GBVM$scene_21_init$9c53a803_56fd   scene_21_init
     001F5E03  GBVM$scene_21_init$0154a6b7_31b6   scene_21_init
     001F5E08  GBVM$scene_21_init$4807a4b0_db39   scene_21_init
ASxxxx Linker V03.00/V05.40 + sdld,  page 120.
Hexadecimal  [32-Bits]

Area                                    Addr        Size        Decimal Bytes (Attributes)
--------------------------------        ----        ----        ------- ----- ------------
_CODE_31                            001F4000    00004000 =       16384. bytes (REL,CON)

      Value  Global                              Global Defined In Module
      -----  --------------------------------   ------------------------
     001F5E0D  GBVM$scene_21_init$ae9e87d0_6ee7   scene_21_init
     001F5E12  GBVM$scene_21_init$c0599c2c_e64e   scene_21_init
     001F5E19  GBVM_END$scene_21_init$9b2c9985_   scene_21_init
     001F5E1A  _scene_22_init                     scene_22_init
     001F5E1D  GBVM$scene_22_init$autofade$00c8   scene_22_init
     001F5E28  GBVM$scene_22_init$cd13c195_2727   scene_22_init
     001F5EA6  GBVM$scene_22_init$b87e7b20_e681   scene_22_init
     001F5EAB  GBVM$scene_22_init$80bbe356_161c   scene_22_init
     001F5EDE  _scene_27_init                     scene_27_init
     001F5EE1  GBVM$scene_27_init$a64798f5_ee1e   scene_27_init
     001F5EE2  GBVM$scene_27_init$autofade$fdf7   scene_27_init
     001F5EED  GBVM$scene_27_init$6303b426_cf08   scene_27_init
     001F5F97  GBVM$scene_27_init$fe63d251_c27a   scene_27_init
     001F5FCA  ___func_scene_29_actors            scene_29_actors
     001F5FCA  _scene_29_actors                   scene_29_actors
     001F60CE  _scene_3_init                      scene_3_init
     001F60D1  GBVM$scene_3_init$autofade$a4494   scene_3_init
     001F60DC  GBVM$scene_3_init$cc49a834_4f49_   scene_3_init
     001F614C  GBVM$scene_3_init$70b0b900_ad1b_   scene_3_init
     001F615F  GBVM$scene_3_init$28d57e26_41ec_   scene_3_init
     001F61CF  GBVM$scene_3_init$e13ebc8b_09f2_   scene_3_init
     001F6202  _scene_30_init                     scene_30_init
     001F6205  GBVM$scene_30_init$0620d7be_023e   scene_30_init
     001F6206  GBVM$scene_30_init$autofade$3b75   scene_30_init
     001F6211  GBVM$scene_30_init$5f9ae742_cffb   scene_30_init
     001F628F  GBVM$scene_30_init$6a2a1c7c_0c8a   scene_30_init
     001F62CA  GBVM$scene_30_init$3a902e29_61a4   scene_30_init
     001F62D3  GBVM$scene_30_init$64355613_20b4   scene_30_init
     001F6308  GBVM$scene_30_init$e98826a7_9a51   scene_30_init
     001F633A  GBVM_END$scene_30_init$3a902e29_   scene_30_init
     001F633B  ___func_scene_35_collisions        scene_35_collisions
     001F633B  _scene_35_collisions               scene_35_collisions
     001F64A3  ___func_scene_36_collisions        scene_36_collisions
     001F64A3  _scene_36_collisions               scene_36_collisions
     001F660B  _scene_4_init                      scene_4_init
     001F660E  GBVM$scene_4_init$3e6abe5c_d8da_   scene_4_init
     001F6616  GBVM$scene_4_init$54c8e6b3_374e_   scene_4_init
     001F661B  GBVM$scene_4_init$autofade$7af9a   scene_4_init
     001F6626  GBVM$scene_4_init$289c8da1_ce67_   scene_4_init
     001F6637  GBVM$scene_4_init$f8883969_760a_   scene_4_init
     001F664A  GBVM$scene_4_init$718b8ed9_1e80_   scene_4_init
     001F66D5  GBVM$scene_4_init$5c708f7d_b4b9_   scene_4_init
     001F6708  _scene_41_init                     scene_41_init
     001F670B  GBVM$scene_41_init$13014ded_3dc1   scene_41_init
     001F6715  GBVM$scene_41_init$3c52d529_7596   scene_41_init
     001F671F  GBVM$scene_41_init$cdb9cd06_b35b   scene_41_init
     001F6729  GBVM$scene_41_init$autofade$c7e3   scene_41_init
     001F6734  GBVM$scene_41_init$5687c364_bac3   scene_41_init
     001F6757  GBVM$scene_41_init$a93f7f73_78d9   scene_41_init
     001F677A  GBVM$scene_41_init$90bbafcc_07bf   scene_41_init
     001F6786  GBVM$scene_41_init$c56e62d8_0ee8   scene_41_init
ASxxxx Linker V03.00/V05.40 + sdld,  page 121.
Hexadecimal  [32-Bits]

Area                                    Addr        Size        Decimal Bytes (Attributes)
--------------------------------        ----        ----        ------- ----- ------------
_CODE_31                            001F4000    00004000 =       16384. bytes (REL,CON)

      Value  Global                              Global Defined In Module
      -----  --------------------------------   ------------------------
     001F6790  GBVM$scene_41_init$19266401_42b5   scene_41_init
     001F679A  GBVM$scene_41_init$29b0940e_5b24   scene_41_init
     001F67BD  GBVM$scene_41_init$c224fe9d_9a23   scene_41_init
     001F67E0  GBVM$scene_41_init$7ca6ff2c_9e59   scene_41_init
     001F6813  ___func_scene_44_actors            scene_44_actors
     001F6813  _scene_44_actors                   scene_44_actors
     001F6917  ___func_scene_44_collisions        scene_44_collisions
     001F6917  _scene_44_collisions               scene_44_collisions
     001F6A7F  _scene_46_init                     scene_46_init
     001F6A82  GBVM$scene_46_init$autofade$c84f   scene_46_init
     001F6A8D  GBVM$scene_46_init$c8130c64_6584   scene_46_init
     001F6B0B  GBVM$scene_46_init$e1de4881_a73a   scene_46_init
     001F6B2E  GBVM$scene_46_init$3ea2f741_0465   scene_46_init
     001F6B61  _scene_47_init                     scene_47_init
     001F6B64  GBVM$scene_47_init$autofade$5cfd   scene_47_init
     001F6B6F  GBVM$scene_47_init$e3a6d1b5_6ed5   scene_47_init
     001F6C16  GBVM$scene_47_init$99207324_0d16   scene_47_init
     001F6C39  GBVM$scene_47_init$14f178fa_6d82   scene_47_init
     001F6C3F  _scene_5_init                      scene_5_init
     001F6C42  GBVM$scene_5_init$a3cf0720_b1ff_   scene_5_init
     001F6C4A  GBVM$scene_5_init$5ff6815d_9880_   scene_5_init
     001F6C4F  GBVM$scene_5_init$autofade$a5298   scene_5_init
     001F6C5A  GBVM$scene_5_init$f6f2f5bc_ac7f_   scene_5_init
     001F6C66  GBVM$scene_5_init$74ff5b2f_9311_   scene_5_init
     001F6CF9  GBVM$scene_5_init$746c3b88_64c3_   scene_5_init
     001F6D2C  ___func_scene_60_actors            scene_60_actors
     001F6D2C  _scene_60_actors                   scene_60_actors
     001F6E64  _scene_63_init                     scene_63_init
     001F6E67  GBVM$scene_63_init$f65041b5_24d8   scene_63_init
     001F6E78  GBVM$scene_63_init$autofade$2d3f   scene_63_init
     001F6E83  GBVM$scene_63_init$e4a23b2f_1233   scene_63_init
     001F6E8F  GBVM$scene_63_init$c1849b74_e90c   scene_63_init
     001F6E98  GBVM$scene_63_init$0d1fcabc_1515   scene_63_init
     001F6ED3  GBVM$scene_63_init$65fa9a13_04d4   scene_63_init
     001F6EF6  GBVM$scene_63_init$61a8460c_d261   scene_63_init
     001F6F00  GBVM$scene_63_init$21d04d27_309f   scene_63_init
     001F6F23  ___func_scene_68_collisions        scene_68_collisions
     001F6F23  _scene_68_collisions               scene_68_collisions
     001F708B  ___func_scene_8_collisions         scene_8_collisions
     001F708B  _scene_8_collisions                scene_8_collisions
     001F71F3  _scene_logo_init                   scene_logo_init
     001F71F6  GBVM$scene_logo_init$76271b1b_ab   scene_logo_init
     001F71F7  GBVM$scene_logo_init$8343c54c_07   scene_logo_init
     001F71FF  GBVM$scene_logo_init$ee70d672_5c   scene_logo_init
     001F7203  GBVM$scene_logo_init$autofade$38   scene_logo_init
     001F720E  GBVM$scene_logo_init$e88fcc15_89   scene_logo_init
     001F7215  GBVM$scene_logo_init$3ca25377_ab   scene_logo_init
     001F72CC  GBVM$scene_logo_init$9daba1e6_c0   scene_logo_init
     001F72FF  _script_8                          script_8
     001F7301  GBVM$script_8$9d55491b_8e1b_4596   script_8
     001F7313  GBVM$script_8$7d646871_82ef_4fcd   script_8
ASxxxx Linker V03.00/V05.40 + sdld,  page 122.
Hexadecimal  [32-Bits]

Area                                    Addr        Size        Decimal Bytes (Attributes)
--------------------------------        ----        ----        ------- ----- ------------
_CODE_31                            001F4000    00004000 =       16384. bytes (REL,CON)

      Value  Global                              Global Defined In Module
      -----  --------------------------------   ------------------------
     001F7359  GBVM$script_8$acdbb9fe_5f8a_4de4   script_8
     001F7360  GBVM$script_8$78b549c3_30da_49bb   script_8
     001F73A7  GBVM$script_8$177ab0b8_6421_435d   script_8
     001F7438  GBVM_END$script_8$9d55491b_8e1b_   script_8
     001F743C  GBVM$script_input_1$b68b163b_ad4   script_input_1
     001F743C  _script_input_1                    script_input_1
     001F744E  GBVM$script_input_1$7be4cd54_5a3   script_input_1
     001F7460  GBVM$script_input_1$9a6a9af4_b07   script_input_1
     001F7472  GBVM$script_input_1$6916268d_649   script_input_1
     001F7484  GBVM$script_input_1$c5511b67_7b5   script_input_1
     001F7496  GBVM$script_input_1$5b1ac9fc_b0d   script_input_1
     001F74A8  GBVM$script_input_1$71de0efd_dc0   script_input_1
     001F74BD  GBVM$script_input_1$aaea6f3b_a6a   script_input_1
     001F74C2  GBVM_END$script_input_1$71de0efd   script_input_1
     001F74C5  GBVM$script_input_1$2521885a_b82   script_input_1
     001F74CA  GBVM_END$script_input_1$5b1ac9fc   script_input_1
     001F74CD  GBVM$script_input_1$72203734_3a6   script_input_1
     001F74D2  GBVM_END$script_input_1$c5511b67   script_input_1
     001F74D5  GBVM$script_input_1$b1247e57_057   script_input_1
     001F74DA  GBVM_END$script_input_1$6916268d   script_input_1
     001F74DD  GBVM$script_input_1$9cd43790_7ad   script_input_1
     001F74E2  GBVM_END$script_input_1$9a6a9af4   script_input_1
     001F74E5  GBVM$script_input_1$ee0a83b4_ae6   script_input_1
     001F74EA  GBVM_END$script_input_1$7be4cd54   script_input_1
     001F74ED  GBVM$script_input_1$de9554b0_cf4   script_input_1
     001F74F2  GBVM$script_input_1$a674b5a7_663   script_input_1
     001F74F2  GBVM_END$script_input_1$b68b163b   script_input_1
     001F74F7  GBVM$script_input_1$1d5411cc_0ab   script_input_1
     001F74FC  GBVM$script_input_5$7bc3a402_a16   script_input_5
     001F74FC  _script_input_5                    script_input_5
     001F750E  GBVM$script_input_5$136e6746_302   script_input_5
     001F7520  GBVM$script_input_5$6c28a9b3_e45   script_input_5
     001F7532  GBVM$script_input_5$291117b5_087   script_input_5
     001F7544  GBVM$script_input_5$7762aa86_05a   script_input_5
     001F7556  GBVM$script_input_5$4ef9cba6_8d4   script_input_5
     001F7568  GBVM$script_input_5$42552450_f0c   script_input_5
     001F757D  GBVM$script_input_5$7af2c51d_da3   script_input_5
     001F7582  GBVM_END$script_input_5$42552450   script_input_5
     001F7585  GBVM$script_input_5$c334d545_bf7   script_input_5
     001F758A  GBVM_END$script_input_5$4ef9cba6   script_input_5
     001F758D  GBVM$script_input_5$0cb6c316_b69   script_input_5
     001F7592  GBVM_END$script_input_5$7762aa86   script_input_5
     001F7595  GBVM$script_input_5$2cd22e85_e7a   script_input_5
     001F759A  GBVM_END$script_input_5$291117b5   script_input_5
     001F759D  GBVM$script_input_5$c1a3a188_c8e   script_input_5
     001F75A2  GBVM_END$script_input_5$6c28a9b3   script_input_5
     001F75A5  GBVM$script_input_5$08fa32ca_58b   script_input_5
     001F75AA  GBVM_END$script_input_5$136e6746   script_input_5
     001F75AD  GBVM$script_input_5$33ad790c_b3b   script_input_5
     001F75B2  GBVM$script_input_5$26d4b158_864   script_input_5
     001F75B2  GBVM_END$script_input_5$7bc3a402   script_input_5
ASxxxx Linker V03.00/V05.40 + sdld,  page 123.
Hexadecimal  [32-Bits]

Area                                    Addr        Size        Decimal Bytes (Attributes)
--------------------------------        ----        ----        ------- ----- ------------
_CODE_31                            001F4000    00004000 =       16384. bytes (REL,CON)

      Value  Global                              Global Defined In Module
      -----  --------------------------------   ------------------------
     001F75B7  GBVM$script_input_5$8402f369_f33   script_input_5
     001F75BC  ___func_sprite_aplhys_tileset      sprite_aplhys_tileset
     001F75BC  _sprite_aplhys_tileset             sprite_aplhys_tileset
     001F767E  ___func_sprite_can_t_spare         sprite_can_t_spare
     001F767E  _sprite_can_t_spare_metasprite_0   sprite_can_t_spare
     001F7696  _sprite_can_t_spare_metasprites    sprite_can_t_spare
     001F7698  _sprite_can_t_spare_animations     sprite_can_t_spare
     001F76A8  _sprite_can_t_spare_animations_l   sprite_can_t_spare
     001F76AA  _sprite_can_t_spare                sprite_can_t_spare
     001F76BD  ___func_sprite_krisbattle_tilese   sprite_krisbattle_tileset
     001F76BD  _sprite_krisbattle_tileset         sprite_krisbattle_tileset
     001F77BF  ___func_sprite_lancer_tileset      sprite_lancer_tileset
     001F77BF  _sprite_lancer_tileset             sprite_lancer_tileset
     001F78A1  ___func_sprite_new_piskel_3__til   sprite_new_piskel_3__tileset
     001F78A1  _sprite_new_piskel_3__tileset      sprite_new_piskel_3__tileset
     001F7983  ___func_sprite_noellee_tileset     sprite_noellee_tileset
     001F7983  _sprite_noellee_tileset            sprite_noellee_tileset
     001F7A45  ___func_sprite_piaf_tileset        sprite_piaf_tileset
     001F7A45  _sprite_piaf_tileset               sprite_piaf_tileset
     001F7B07  ___func_sprite_ralseibt_tileset    sprite_ralseibt_tileset
     001F7B07  _sprite_ralseibt_tileset           sprite_ralseibt_tileset
     001F7BC9  ___func_sprite_susiebt_tileset     sprite_susiebt_tileset
     001F7BC9  _sprite_susiebt_tileset            sprite_susiebt_tileset
     001F7D0B  ___func_sprite_susiehs_copie       sprite_susiehs_copie
     001F7D0B  _sprite_susiehs_copie_metasprite   sprite_susiehs_copie
     001F7D2F  _sprite_susiehs_copie_metasprite   sprite_susiehs_copie
     001F7D53  _sprite_susiehs_copie_metasprite   sprite_susiehs_copie
     001F7D6F  _sprite_susiehs_copie_metasprite   sprite_susiehs_copie
     001F7D93  _sprite_susiehs_copie_metasprite   sprite_susiehs_copie
     001F7D9B  _sprite_susiehs_copie_animations   sprite_susiehs_copie
     001F7DAB  _sprite_susiehs_copie_animations   sprite_susiehs_copie
     001F7DAD  _sprite_susiehs_copie              sprite_susiehs_copie
     001F7DC0  ___func_sprite_toriel              sprite_toriel
     001F7DC0  _sprite_toriel_metasprite_0        sprite_toriel
     001F7DD4  _sprite_toriel_metasprite_1        sprite_toriel
     001F7DE8  _sprite_toriel_metasprite_2        sprite_toriel
     001F7DFC  _sprite_toriel_metasprite_3        sprite_toriel
     001F7E10  _sprite_toriel_metasprite_4        sprite_toriel
     001F7E24  _sprite_toriel_metasprite_5        sprite_toriel
     001F7E38  _sprite_toriel_metasprite_6        sprite_toriel
     001F7E4C  _sprite_toriel_metasprite_7        sprite_toriel
     001F7E60  _sprite_toriel_metasprite_8        sprite_toriel
     001F7E74  _sprite_toriel_metasprite_9        sprite_toriel
     001F7E88  _sprite_toriel_metasprites         sprite_toriel
     001F7EA8  _sprite_toriel_animations          sprite_toriel
     001F7EB8  _sprite_toriel_animations_lookup   sprite_toriel
     001F7EBA  _sprite_toriel                     sprite_toriel
     001F7ECD  _trigger_21_interact               trigger_21_interact
     001F7ECE  GBVM$trigger_21_interact$9bed4ab   trigger_21_interact
ASxxxx Linker V03.00/V05.40 + sdld,  page 124.
Hexadecimal  [32-Bits]

Area                                    Addr        Size        Decimal Bytes (Attributes)
--------------------------------        ----        ----        ------- ----- ------------
_CODE_3                             00034000    00004000 =       16384. bytes (REL,CON)

      Value  Global                              Global Defined In Module
      -----  --------------------------------   ------------------------
     00034000  ___func_VM_MUSIC                   vm_music
     00034000  _vm_music_play                     vm_music
     0003404D  _vm_music_stop                     vm_music
     0003406F  _vm_music_mute                     vm_music
     000340AD  _vm_music_routine                  vm_music
     000340D4  _vm_music_setpos                   vm_music
     000340DA  _vm_sound_mastervol                vm_music
     000340E0  _vm_sfx_play                       vm_music
     00034153  ___func_bg_3_tilemap               bg_3_tilemap
     00034153  _bg_3_tilemap                      bg_3_tilemap
     00037FE2  _song_the_real_door_Data           song_the_real_door_Data
     00037FF7  ___func_scene_44_sprites           scene_44_sprites
     00037FF7  _scene_44_sprites                  scene_44_sprites

ASxxxx Linker V03.00/V05.40 + sdld,  page 125.
Hexadecimal  [32-Bits]

Area                                    Addr        Size        Decimal Bytes (Attributes)
--------------------------------        ----        ----        ------- ----- ------------
_CODE_29                            001D4000    00004000 =       16384. bytes (REL,CON)

      Value  Global                              Global Defined In Module
      -----  --------------------------------   ------------------------
     001D4000  ___func_VM_PALETTE                 vm_palette
     001D4000  _vm_load_palette                   vm_palette
     001D41A9  _actor_17_interact                 actor_17_interact
     001D41AA  GBVM$actor_17_interact$7b719e10_   actor_17_interact
     001D41BC  GBVM$actor_17_interact$440c3c26_   actor_17_interact
     001D432A  GBVM$actor_17_interact$6490777c_   actor_17_interact
     001D4332  GBVM$actor_17_interact$415c2408_   actor_17_interact
     001D4382  GBVM_END$actor_17_interact$7b719   actor_17_interact
     001D4383  _actor_18_interact                 actor_18_interact
     001D4384  GBVM$actor_18_interact$5363e1f3_   actor_18_interact
     001D4396  GBVM$actor_18_interact$e12e7ee7_   actor_18_interact
     001D4504  GBVM$actor_18_interact$2fe6dd8c_   actor_18_interact
     001D450C  GBVM$actor_18_interact$1bf5ca76_   actor_18_interact
     001D455C  GBVM_END$actor_18_interact$5363e   actor_18_interact
     001D455D  _actor_19_interact                 actor_19_interact
     001D455E  GBVM$actor_19_interact$81690d12_   actor_19_interact
     001D4570  GBVM$actor_19_interact$6ffc3d4a_   actor_19_interact
     001D46DE  GBVM$actor_19_interact$577fc495_   actor_19_interact
     001D46E6  GBVM$actor_19_interact$4c66440f_   actor_19_interact
     001D4736  GBVM_END$actor_19_interact$81690   actor_19_interact
     001D4737  _actor_73_interact                 actor_73_interact
     001D473A  GBVM$actor_73_interact$78c6b5d5_   actor_73_interact
     001D4831  GBVM$actor_73_interact$81d411dc_   actor_73_interact
     001D486B  GBVM$actor_73_interact$f057ffd9_   actor_73_interact
     001D48AC  GBVM$actor_73_interact$7283abb5_   actor_73_interact
     001D48B5  GBVM$actor_73_interact$0f87287f_   actor_73_interact
     001D48BA  GBVM$actor_73_interact$c03fc1f3_   actor_73_interact
     001D48CA  GBVM$actor_73_interact$aab4d4d6_   actor_73_interact
     001D48F7  GBVM$actor_73_interact$autofade$   actor_73_interact
     001D4902  GBVM_END$actor_73_interact$c03fc   actor_73_interact
     001D4905  GBVM_END$actor_73_interact$7283a   actor_73_interact
     001D4906  _actor_85_interact                 actor_85_interact
     001D4909  GBVM$actor_85_interact$bb7357a6_   actor_85_interact
     001D4A15  GBVM$actor_85_interact$6b2a2c2d_   actor_85_interact
     001D4A50  GBVM$actor_85_interact$e85e09ea_   actor_85_interact
     001D4A65  GBVM$actor_85_interact$885ef211_   actor_85_interact
     001D4A75  GBVM$actor_85_interact$de41cc9f_   actor_85_interact
     001D4AAF  GBVM$actor_85_interact$autofade$   actor_85_interact
     001D4ABA  GBVM_END$actor_85_interact$885ef   actor_85_interact
     001D4ABA  GBVM_END$actor_85_interact$e85e0   actor_85_interact
     001D4ABB  ___func_bg_avcclaude_tilemap_att   bg_avcclaude_tilemap_attr
     001D4ABB  _bg_avcclaude_tilemap_attr         bg_avcclaude_tilemap_attr
     001D4C83  ___func_bg_avcclaude_tilemap       bg_avcclaude_tilemap
     001D4C83  _bg_avcclaude_tilemap              bg_avcclaude_tilemap
     001D4E4B  ___func_bg_castle_town_map2_tile   bg_castle_town_map2_tileset
     001D4E4B  _bg_castle_town_map2_tileset       bg_castle_town_map2_tileset
     001D4FDD  ___func_bg_chamberkriso2_tilemap   bg_chamberkriso2_tilemap_att
     001D4FDD  _bg_chamberkriso2_tilemap_attr     bg_chamberkriso2_tilemap_att
     001D5145  ___func_bg_city1_tilemap_attr      bg_city1_tilemap_attr
     001D5145  _bg_city1_tilemap_attr             bg_city1_tilemap_attr
ASxxxx Linker V03.00/V05.40 + sdld,  page 126.
Hexadecimal  [32-Bits]

Area                                    Addr        Size        Decimal Bytes (Attributes)
--------------------------------        ----        ----        ------- ----- ------------
_CODE_29                            001D4000    00004000 =       16384. bytes (REL,CON)

      Value  Global                              Global Defined In Module
      -----  --------------------------------   ------------------------
     001D5325  ___func_bg_city1_tilemap           bg_city1_tilemap
     001D5325  _bg_city1_tilemap                  bg_city1_tilemap
     001D5505  ___func_bg_dogchecksavedata_copi   bg_dogchecksavedata_copie_ti
     001D5505  _bg_dogchecksavedata_copie_tilem   bg_dogchecksavedata_copie_ti
     001D56A3  ___func_bg_dogchecksavedata_copi   bg_dogchecksavedata_copie_ti
     001D56A3  _bg_dogchecksavedata_copie_tilem   bg_dogchecksavedata_copie_ti
     001D5841  ___func_bg_dogchecksavedata_tile   bg_dogchecksavedata_tilemap_
     001D5841  _bg_dogchecksavedata_tilemap_att   bg_dogchecksavedata_tilemap_
     001D5A03  ___func_bg_dogchecksavedata_tile   bg_dogchecksavedata_tilemap
     001D5A03  _bg_dogchecksavedata_tilemap       bg_dogchecksavedata_tilemap
     001D5BC5  ___func_bg_legend3_tilemap_attr    bg_legend3_tilemap_attr
     001D5BC5  _bg_legend3_tilemap_attr           bg_legend3_tilemap_attr
     001D5D67  ___func_bg_legend3_tilemap         bg_legend3_tilemap
     001D5D67  _bg_legend3_tilemap                bg_legend3_tilemap
     001D5F09  ___func_bg_new_piskel_43__tilese   bg_new_piskel_43__tileset
     001D5F09  _bg_new_piskel_43__tileset         bg_new_piskel_43__tileset
     001D60EB  ___func_bg_quelesttonnom_copie_t   bg_quelesttonnom_copie_tilem
     001D60EB  _bg_quelesttonnom_copie_tilemap    bg_quelesttonnom_copie_tilem
     001D629B  ___func_bg_quelesttonnom_tilemap   bg_quelesttonnom_tilemap_att
     001D629B  _bg_quelesttonnom_tilemap_attr     bg_quelesttonnom_tilemap_att
     001D644B  ___func_bg_quelesttonnom_tilemap   bg_quelesttonnom_tilemap
     001D644B  _bg_quelesttonnom_tilemap          bg_quelesttonnom_tilemap
     001D65FB  ___func_bg_schoolext_tilemap_att   bg_schoolext_tilemap_attr
     001D65FB  _bg_schoolext_tilemap_attr         bg_schoolext_tilemap_attr
     001D67BD  ___func_bg_schoolext_tilemap       bg_schoolext_tilemap
     001D67BD  _bg_schoolext_tilemap              bg_schoolext_tilemap
     001D697F  ___func_scene_11_collisions        scene_11_collisions
     001D697F  _scene_11_collisions               scene_11_collisions
     001D6B47  ___func_scene_12_collisions        scene_12_collisions
     001D6B47  _scene_12_collisions               scene_12_collisions
     001D6CE5  ___func_scene_21_actors            scene_21_actors
     001D6CE5  _scene_21_actors                   scene_21_actors
     001D6EB9  ___func_scene_23_collisions        scene_23_collisions
     001D6EB9  _scene_23_collisions               scene_23_collisions
     001D7069  ___func_scene_24_collisions        scene_24_collisions
     001D7069  _scene_24_collisions               scene_24_collisions
     001D7219  ___func_scene_25_sprites           scene_25_sprites
     001D7219  _scene_25_sprites                  scene_25_sprites
     001D721C  ___func_scene_26_collisions        scene_26_collisions
     001D721C  _scene_26_collisions               scene_26_collisions
     001D73CC  ___func_scene_39_collisions        scene_39_collisions
     001D73CC  _scene_39_collisions               scene_39_collisions
     001D75AC  ___func_scene_41_collisions        scene_41_collisions
     001D75AC  _scene_41_collisions               scene_41_collisions
     001D776E  ___func_scene_42_collisions        scene_42_collisions
     001D776E  _scene_42_collisions               scene_42_collisions
     001D7930  ___func_scene_43_collisions        scene_43_collisions
     001D7930  _scene_43_collisions               scene_43_collisions
     001D7AF8  _scene_44_init                     scene_44_init
     001D7AFB  GBVM$scene_44_init$622dfc75_6ffc   scene_44_init
     001D7B04  GBVM$scene_44_init$9a53451c_7dcd   scene_44_init
ASxxxx Linker V03.00/V05.40 + sdld,  page 127.
Hexadecimal  [32-Bits]

Area                                    Addr        Size        Decimal Bytes (Attributes)
--------------------------------        ----        ----        ------- ----- ------------
_CODE_29                            001D4000    00004000 =       16384. bytes (REL,CON)

      Value  Global                              Global Defined In Module
      -----  --------------------------------   ------------------------
     001D7B05  GBVM$scene_44_init$autofade$4461   scene_44_init
     001D7B10  GBVM$scene_44_init$ff62fd6d_2d20   scene_44_init
     001D7B22  GBVM$scene_44_init$9af156c4_4b1a   scene_44_init
     001D7B2C  GBVM$scene_44_init$9d0e8b78_9098   scene_44_init
     001D7B9F  GBVM$scene_44_init$ecd37a00_7069   scene_44_init
     001D7BC2  GBVM$scene_44_init$ee6a5d91_298a   scene_44_init
     001D7BCB  GBVM$scene_44_init$0e6b4629_6889   scene_44_init
     001D7C13  GBVM$scene_44_init$89b978a2_ab14   scene_44_init
     001D7C36  GBVM$scene_44_init$1089c8a0_891b   scene_44_init
     001D7C40  GBVM$scene_44_init$2f104558_8c75   scene_44_init
     001D7C4A  GBVM$scene_44_init$5a07c7a6_ae09   scene_44_init
     001D7C54  GBVM$scene_44_init$df083c70_5f18   scene_44_init
     001D7C77  GBVM$scene_44_init$32d8aad7_0efe   scene_44_init
     001D7C7F  GBVM$scene_44_init$9ffc0f82_0516   scene_44_init
     001D7C89  GBVM_END$scene_44_init$ff62fd6d_   scene_44_init
     001D7C8A  ___func_scene_45_actors            scene_45_actors
     001D7C8A  _scene_45_actors                   scene_45_actors
     001D7E5E  ___func_scene_5_collisions         scene_5_collisions
     001D7E5E  _scene_5_collisions                scene_5_collisions
ASxxxx Linker V03.00/V05.40 + sdld,  page 128.
Hexadecimal  [32-Bits]

Area                                    Addr        Size        Decimal Bytes (Attributes)
--------------------------------        ----        ----        ------- ----- ------------
_CODE_13                            000D4000    00003FFF =       16383. bytes (REL,CON)

      Value  Global                              Global Defined In Module
      -----  --------------------------------   ------------------------
     000D4000  ___func_VM_MAIN                    vm
     000D4000  _vm_call                           vm
     000D4042  _vm_ret                            vm
     000D40A2  _vm_call_far                       vm
     000D4121  _vm_ret_far                        vm
     000D4199  _vm_push                           vm
     000D41C4  _vm_pop                            vm
     000D41FF  _vm_loop                           vm
     000D428A  _vm_jump                           vm
     000D4296  _wait_frames                       vm
     000D4303  _vm_invoke                         vm
     000D4430  _vm_join                           vm
     000D4492  _vm_terminate                      vm
     000D44BF  _vm_if                             vm
     000D4604  _vm_if_const                       vm
     000D4719  _vm_push_value                     vm
     000D476B  _vm_push_value_ind                 vm
     000D47E0  _vm_push_reference                 vm
     000D4837  _vm_reserve                        vm
     000D4865  _vm_set                            vm
     000D48C6  _vm_set_const                      vm
     000D48F2  _vm_get_tlocal                     vm
     000D497F  _vm_test_terminate                 vm
     000D498A  _vm_idle                           vm
     000D4996  _vm_init_rng                       vm
     000D49C2  _vm_rand                           vm
     000D4A04  _vm_lock                           vm
     000D4A13  _vm_unlock                         vm
     000D4A26  _vm_raise                          vm
     000D4A68  _vm_set_indirect                   vm
     000D4AE3  _vm_get_indirect                   vm
     000D4B5E  _vm_poll_loaded                    vm
     000D4B8E  _vm_memset                         vm
     000D4BC8  _vm_memcpy                         vm
     000D4C45  _script_runner_init                vm
     000D4CFC  _script_execute                    vm
     000D4E62  _script_terminate                  vm
     000D4EC7  _script_detach_hthread             vm
     000D4F03  ___func_bg_chamberkriso2_tileset   bg_chamberkriso2_tileset
     000D4F03  _bg_chamberkriso2_tileset          bg_chamberkriso2_tileset
     000D5515  ___func_font_gbs_mono_copie        font_gbs_mono_copie
     000D62C5  _font_gbs_mono_copie               font_gbs_mono_copie
     000D62CD  ___func_font_gbs_mono              font_gbs_mono
     000D707D  _font_gbs_mono                     font_gbs_mono
     000D7085  ___func_scene_28_sprites           scene_28_sprites
     000D7085  _scene_28_sprites                  scene_28_sprites
     000D708B  ___func_scene_60_collisions        scene_60_collisions
     000D708B  _scene_60_collisions               scene_60_collisions
ASxxxx Linker V03.00/V05.40 + sdld,  page 129.
Hexadecimal  [32-Bits]

Area                                    Addr        Size        Decimal Bytes (Attributes)
--------------------------------        ----        ----        ------- ----- ------------
_CODE_30                            001E4000    00004000 =       16384. bytes (REL,CON)

      Value  Global                              Global Defined In Module
      -----  --------------------------------   ------------------------
     001E4000  _actor_1_interact                  actor_1_interact
     001E4003  GBVM$actor_1_interact$bbb20ed9_6   actor_1_interact
     001E40A6  GBVM$actor_1_interact$e2c311f0_6   actor_1_interact
     001E40E0  GBVM$actor_1_interact$54e68f3a_2   actor_1_interact
     001E4121  GBVM$actor_1_interact$65202910_f   actor_1_interact
     001E412A  GBVM$actor_1_interact$3075da1e_5   actor_1_interact
     001E412F  GBVM$actor_1_interact$932e8994_1   actor_1_interact
     001E413F  GBVM$actor_1_interact$3a4dd1f6_0   actor_1_interact
     001E416C  GBVM$actor_1_interact$autofade$7   actor_1_interact
     001E4177  GBVM_END$actor_1_interact$932e89   actor_1_interact
     001E417A  GBVM_END$actor_1_interact$652029   actor_1_interact
     001E417B  _actor_21_interact                 actor_21_interact
     001E417E  GBVM$actor_21_interact$e9439320_   actor_21_interact
     001E4187  GBVM$actor_21_interact$fd40e9f0_   actor_21_interact
     001E4223  GBVM$actor_21_interact$0f82cd06_   actor_21_interact
     001E4275  GBVM$actor_21_interact$407189cc_   actor_21_interact
     001E427E  GBVM$actor_21_interact$2ddea851_   actor_21_interact
     001E42B3  GBVM_END$actor_21_interact$40718   actor_21_interact
     001E42B6  GBVM$actor_21_interact$4edf0db9_   actor_21_interact
     001E42E4  GBVM$actor_21_interact$e8bd0a32_   actor_21_interact
     001E42E9  GBVM_END$actor_21_interact$e9439   actor_21_interact
     001E42EA  _actor_23_interact                 actor_23_interact
     001E42ED  GBVM$actor_23_interact$eff05470_   actor_23_interact
     001E42F6  GBVM$actor_23_interact$d7bd0932_   actor_23_interact
     001E4392  GBVM$actor_23_interact$09a734bc_   actor_23_interact
     001E43E4  GBVM$actor_23_interact$411fe746_   actor_23_interact
     001E43ED  GBVM$actor_23_interact$64d85b7f_   actor_23_interact
     001E4422  GBVM_END$actor_23_interact$411fe   actor_23_interact
     001E4425  GBVM$actor_23_interact$58cc4c01_   actor_23_interact
     001E4453  GBVM$actor_23_interact$77292210_   actor_23_interact
     001E4458  GBVM_END$actor_23_interact$eff05   actor_23_interact
     001E4459  _actor_32_interact                 actor_32_interact
     001E445A  GBVM$actor_32_interact$bba2fdf4_   actor_32_interact
     001E4515  ___func_bg_black_copie_tilemap_a   bg_black_copie_tilemap_attr
     001E4515  _bg_black_copie_tilemap_attr       bg_black_copie_tilemap_attr
     001E468F  ___func_bg_black_copie_tilemap     bg_black_copie_tilemap
     001E468F  _bg_black_copie_tilemap            bg_black_copie_tilemap
     001E4809  ___func_bg_black_tilemap_attr      bg_black_tilemap_attr
     001E4809  _bg_black_tilemap_attr             bg_black_tilemap_attr
     001E4983  ___func_bg_black_tilemap           bg_black_tilemap
     001E4983  _bg_black_tilemap                  bg_black_tilemap
     001E4AFD  ___func_bg_chamberkriso2_tilemap   bg_chamberkriso2_tilemap
     001E4AFD  _bg_chamberkriso2_tilemap          bg_chamberkriso2_tilemap
     001E4C65  ___func_bg_krislegend_tilemap_at   bg_krislegend_tilemap_attr
     001E4C65  _bg_krislegend_tilemap_attr        bg_krislegend_tilemap_attr
     001E4DF1  ___func_bg_krislegend_tilemap      bg_krislegend_tilemap
     001E4DF1  _bg_krislegend_tilemap             bg_krislegend_tilemap
     001E4F7D  ___func_bg_legend1d_tilemap_attr   bg_legend1d_tilemap_attr
     001E4F7D  _bg_legend1d_tilemap_attr          bg_legend1d_tilemap_attr
     001E510D  ___func_bg_legend1d_tilemap        bg_legend1d_tilemap
ASxxxx Linker V03.00/V05.40 + sdld,  page 130.
Hexadecimal  [32-Bits]

Area                                    Addr        Size        Decimal Bytes (Attributes)
--------------------------------        ----        ----        ------- ----- ------------
_CODE_30                            001E4000    00004000 =       16384. bytes (REL,CON)

      Value  Global                              Global Defined In Module
      -----  --------------------------------   ------------------------
     001E510D  _bg_legend1d_tilemap               bg_legend1d_tilemap
     001E529D  ___func_bg_legend4_tilemap         bg_legend4_tilemap
     001E529D  _bg_legend4_tilemap                bg_legend4_tilemap
     001E5419  ___func_bg_ralseilegend_tilemap_   bg_ralseilegend_tilemap_attr
     001E5419  _bg_ralseilegend_tilemap_attr      bg_ralseilegend_tilemap_attr
     001E55A5  ___func_bg_ralseilegend_tilemap    bg_ralseilegend_tilemap
     001E55A5  _bg_ralseilegend_tilemap           bg_ralseilegend_tilemap
     001E5731  ___func_bg_susielegend_tilemap_a   bg_susielegend_tilemap_attr
     001E5731  _bg_susielegend_tilemap_attr       bg_susielegend_tilemap_attr
     001E58BD  ___func_bg_susielegend_tilemap     bg_susielegend_tilemap
     001E58BD  _bg_susielegend_tilemap            bg_susielegend_tilemap
     001E5A49  ___func_bg_thetle_tilemap_attr     bg_thetle_tilemap_attr
     001E5A49  _bg_thetle_tilemap_attr            bg_thetle_tilemap_attr
     001E5BD9  ___func_bg_thetle_tilemap          bg_thetle_tilemap
     001E5BD9  _bg_thetle_tilemap                 bg_thetle_tilemap
     001E5D69  ___func_scene_15_collisions        scene_15_collisions
     001E5D69  _scene_15_collisions               scene_15_collisions
     001E5EE3  ___func_scene_16_collisions        scene_16_collisions
     001E5EE3  _scene_16_collisions               scene_16_collisions
     001E606F  ___func_scene_17_collisions        scene_17_collisions
     001E606F  _scene_17_collisions               scene_17_collisions
     001E61FB  ___func_scene_18_collisions        scene_18_collisions
     001E61FB  _scene_18_collisions               scene_18_collisions
     001E6387  ___func_scene_19_collisions        scene_19_collisions
     001E6387  _scene_19_collisions               scene_19_collisions
     001E6501  ___func_scene_20_collisions        scene_20_collisions
     001E6501  _scene_20_collisions               scene_20_collisions
     001E667B  ___func_scene_22_collisions        scene_22_collisions
     001E667B  _scene_22_collisions               scene_22_collisions
     001E67F5  ___func_scene_27_collisions        scene_27_collisions
     001E67F5  _scene_27_collisions               scene_27_collisions
     001E696F  ___func_scene_31_collisions        scene_31_collisions
     001E696F  _scene_31_collisions               scene_31_collisions
     001E6AE9  ___func_scene_38_collisions        scene_38_collisions
     001E6AE9  _scene_38_collisions               scene_38_collisions
     001E6C63  _scene_45_init                     scene_45_init
     001E6C66  GBVM$scene_45_init$e6f1efb7_f3b0   scene_45_init
     001E6C70  GBVM$scene_45_init$8c542424_1962   scene_45_init
     001E6C7A  GBVM$scene_45_init$916d709e_deb0   scene_45_init
     001E6C84  GBVM$scene_45_init$24227c03_d072   scene_45_init
     001E6C88  GBVM$scene_45_init$autofade$fa30   scene_45_init
     001E6C93  GBVM$scene_45_init$7e730b8c_ed50   scene_45_init
     001E6CD9  GBVM$scene_45_init$4e3d06a0_74a4   scene_45_init
     001E6CE3  GBVM$scene_45_init$68cb7ec0_c327   scene_45_init
     001E6D06  GBVM$scene_45_init$f9d23d4b_0266   scene_45_init
     001E6DE1  ___func_scene_48_collisions        scene_48_collisions
     001E6DE1  _scene_48_collisions               scene_48_collisions
     001E6F5B  _scene_48_init                     scene_48_init
     001E6F5E  GBVM$scene_48_init$3f45c53b_326c   scene_48_init
     001E6F5F  GBVM$scene_48_init$69fd80ee_9763   scene_48_init
     001E6F71  GBVM$scene_48_init$autofade$17a1   scene_48_init
ASxxxx Linker V03.00/V05.40 + sdld,  page 131.
Hexadecimal  [32-Bits]

Area                                    Addr        Size        Decimal Bytes (Attributes)
--------------------------------        ----        ----        ------- ----- ------------
_CODE_30                            001E4000    00004000 =       16384. bytes (REL,CON)

      Value  Global                              Global Defined In Module
      -----  --------------------------------   ------------------------
     001E6F7C  GBVM$scene_48_init$1034bafc_78be   scene_48_init
     001E6F88  GBVM$scene_48_init$3c3c1f54_e778   scene_48_init
     001E7006  GBVM$scene_48_init$70f892a4_7896   scene_48_init
     001E7018  GBVM$scene_48_init$1e6643b0_5752   scene_48_init
     001E7063  GBVM$scene_48_init$52face32_790a   scene_48_init
     001E7069  GBVM$scene_48_init$e8447d86_a8b8   scene_48_init
     001E706F  GBVM$scene_48_init$31caf903_8c15   scene_48_init
     001E7075  GBVM$scene_48_init$16ff39f5_76e0   scene_48_init
     001E707B  GBVM$scene_48_init$16bd9504_dd84   scene_48_init
     001E708D  GBVM$scene_48_init$000ad3be_6a98   scene_48_init
     001E70B4  GBVM$scene_48_init$43731ed6_b4c7   scene_48_init
     001E70E7  ___func_scene_50_collisions        scene_50_collisions
     001E70E7  _scene_50_collisions               scene_50_collisions
     001E7261  ___func_scene_6_collisions         scene_6_collisions
     001E7261  _scene_6_collisions                scene_6_collisions
     001E73DD  ___func_scene_66_collisions        scene_66_collisions
     001E73DD  _scene_66_collisions               scene_66_collisions
     001E756D  ___func_scene_7_collisions         scene_7_collisions
     001E756D  _scene_7_collisions                scene_7_collisions
     001E76E7  ___func_scene_logo_collisions      scene_logo_collisions
     001E76E7  _scene_logo_collisions             scene_logo_collisions
     001E7877  ___func_sprite_dust_piles_tilese   sprite_dust_piles_tileset
     001E7877  _sprite_dust_piles_tileset         sprite_dust_piles_tileset
     001E79F9  ___func_sprite_kris_lightworld_t   sprite_kris_lightworld_tiles
     001E79F9  _sprite_kris_lightworld_tileset    sprite_kris_lightworld_tiles
     001E7B7B  ___func_sprite_ralsei_tileset      sprite_ralsei_tileset
     001E7B7B  _sprite_ralsei_tileset             sprite_ralsei_tileset
     001E7CFD  ___func_sprite_susie_tileset       sprite_susie_tileset
     001E7CFD  _sprite_susie_tileset              sprite_susie_tileset
     001E7E7F  _trigger_37_interact               trigger_37_interact
     001E7E82  GBVM$trigger_37_interact$a4b80a0   trigger_37_interact
     001E7E8B  GBVM$trigger_37_interact$8b1f6ca   trigger_37_interact
     001E7F10  GBVM$trigger_37_interact$bfa8395   trigger_37_interact
     001E7F23  GBVM$trigger_37_interact$0f8956f   trigger_37_interact
     001E7F42  GBVM$trigger_37_interact$171bdf6   trigger_37_interact
     001E7F46  GBVM$trigger_37_interact$9b96eed   trigger_37_interact
     001E7F7D  GBVM$trigger_37_interact$24834ef   trigger_37_interact
     001E7FA0  GBVM$trigger_37_interact$046ce2d   trigger_37_interact
     001E7FAA  GBVM$trigger_37_interact$f0341df   trigger_37_interact
     001E7FCD  GBVM$trigger_37_interact$115b55b   trigger_37_interact
ASxxxx Linker V03.00/V05.40 + sdld,  page 132.
Hexadecimal  [32-Bits]

Area                                    Addr        Size        Decimal Bytes (Attributes)
--------------------------------        ----        ----        ------- ----- ------------
_CODE_8                             00084000    00003FFF =       16383. bytes (REL,CON)

      Value  Global                              Global Defined In Module
      -----  --------------------------------   ------------------------
     00084000  _actor_33_interact                 actor_33_interact
     00084001  GBVM$actor_33_interact$f1ed644a_   actor_33_interact
     00086104  _song_lancervsvr_Data              song_lancervsvr_Data
     00086119  ___func_scene_14_sprites           scene_14_sprites
     00086119  _scene_14_sprites                  scene_14_sprites
     0008611C  _scene_65_init                     scene_65_init
     0008611F  GBVM$scene_65_init$5584f2fb_526b   scene_65_init
     00086129  GBVM$scene_65_init$ae381c8e_d0cb   scene_65_init
     0008613E  GBVM$scene_65_init$0467929d_a12b   scene_65_init
     00086148  GBVM$scene_65_init$143d95c9_19ec   scene_65_init
     00086152  GBVM$scene_65_init$autofade$64da   scene_65_init
     00086152  GBVM_END$scene_65_init$ae381c8e_   scene_65_init
     0008615D  GBVM$scene_65_init$21e4bc07_91ae   scene_65_init
     0008616F  GBVM$scene_65_init$8963da63_9cf6   scene_65_init
     00086181  GBVM$scene_65_init$162b82a6_44db   scene_65_init
     00086193  GBVM$scene_65_init$d3336553_eb77   scene_65_init
     0008619D  GBVM$scene_65_init$2c59dfef_411a   scene_65_init
     000861A7  GBVM$scene_65_init$0f721d59_ab78   scene_65_init
     000861B4  GBVM$scene_65_init$3a08258f_ff06   scene_65_init
     000861BE  GBVM$scene_65_init$61b8bcda_6fdb   scene_65_init
     000861C8  GBVM$scene_65_init$1254b7a4_9ca5   scene_65_init
     00086206  GBVM$scene_65_init$bc50bcd4_1d2b   scene_65_init
     00086229  GBVM$scene_65_init$328974b8_c31c   scene_65_init
     00086314  GBVM$scene_65_init$0dc5248c_e99e   scene_65_init
     0008631F  GBVM$scene_65_init$ddde4e47_b0f9   scene_65_init
     0008646F  GBVM$scene_65_init$7d8b27eb_12d5   scene_65_init
     00086478  GBVM$scene_65_init$e560af36_9dd6   scene_65_init
     00086484  GBVM$scene_65_init$883a589d_9156   scene_65_init
     0008648D  GBVM$scene_65_init$4c4d7fe9_95c4   scene_65_init
     000864D0  GBVM$scene_65_init$f10a3c9b_c36b   scene_65_init
     000864F3  GBVM$scene_65_init$47d293ff_e83b   scene_65_init
     000864FD  GBVM$scene_65_init$f3c2abd5_50f5   scene_65_init
     00086565  GBVM$scene_65_init$a27c818e_74ab   scene_65_init
     00086588  GBVM$scene_65_init$726483fd_6316   scene_65_init
     00086591  GBVM$scene_65_init$dedd81b4_9bcc   scene_65_init
     000866D7  GBVM$scene_65_init$a1c4da6a_fc3c   scene_65_init
     000866E0  GBVM$scene_65_init$c3a2efac_dc27   scene_65_init
     00086782  GBVM$scene_65_init$2696a678_e57d   scene_65_init
     00086877  GBVM$scene_65_init$5802d3d1_7d8e   scene_65_init
     0008687C  GBVM$scene_65_init$d6b85fb0_2dc3   scene_65_init
     00086886  GBVM_END$scene_65_init$162b82a6_   scene_65_init
     00086889  GBVM$scene_65_init$9017a676_df43   scene_65_init
     00086C71  GBVM$scene_65_init$05aa28ad_d70d   scene_65_init
     00086C7A  GBVM$scene_65_init$86788104_573e   scene_65_init
     00086C86  GBVM$scene_65_init$07d5aff6_16e5   scene_65_init
     00086C90  GBVM$scene_65_init$583ae2b5_3b63   scene_65_init
     00086CB3  GBVM$scene_65_init$c0bebe51_bf8d   scene_65_init
     00086CB9  GBVM$scene_65_init$f326bf16_1572   scene_65_init
     00086CC3  GBVM$scene_65_init$25527042_106e   scene_65_init
     00086CDC  GBVM$scene_65_init$34ed3ec8_63d6   scene_65_init
ASxxxx Linker V03.00/V05.40 + sdld,  page 133.
Hexadecimal  [32-Bits]

Area                                    Addr        Size        Decimal Bytes (Attributes)
--------------------------------        ----        ----        ------- ----- ------------
_CODE_8                             00084000    00003FFF =       16383. bytes (REL,CON)

      Value  Global                              Global Defined In Module
      -----  --------------------------------   ------------------------
     000870D1  GBVM$scene_65_init$b4123c78_5974   scene_65_init
     000870D6  GBVM$scene_65_init$d251aae9_eda6   scene_65_init
     00087108  GBVM_END$scene_65_init$8963da63_   scene_65_init
     0008710B  GBVM$scene_65_init$37fef17c_dcd0   scene_65_init
     0008712E  GBVM$scene_65_init$e867d1fa_a93b   scene_65_init
     0008725D  GBVM$scene_65_init$9e623366_1edf   scene_65_init
     00087280  GBVM$scene_65_init$febb45fc_3631   scene_65_init
     000872A3  GBVM$scene_65_init$33f2027f_bba4   scene_65_init
     00087435  GBVM$scene_65_init$877d321f_60d0   scene_65_init
     00087473  GBVM$scene_65_init$3193e5fa_ca7b   scene_65_init
     00087485  GBVM$scene_65_init$3dcfb510_fd82   scene_65_init
     00087568  GBVM$scene_65_init$738bc8dc_112c   scene_65_init
     000875AF  GBVM$scene_65_init$b390baba_83ed   scene_65_init
     000875C1  GBVM$scene_65_init$8f64517f_1d4a   scene_65_init
     000878BE  GBVM$scene_65_init$2f2d89ec_bdbc   scene_65_init
     000878C8  GBVM$scene_65_init$0ae22711_a3e4   scene_65_init
     000878EB  GBVM$scene_65_init$f2756025_31e7   scene_65_init
     000878F1  GBVM$scene_65_init$d17351f1_39d5   scene_65_init
     000878FB  GBVM$scene_65_init$c8c134aa_f205   scene_65_init
     00087914  GBVM$scene_65_init$80ab658c_7a61   scene_65_init
     00087EC6  GBVM$scene_65_init$3de446cd_6723   scene_65_init
     00087ECB  GBVM$scene_65_init$16953c2c_5406   scene_65_init
     00087F00  GBVM$scene_65_init$7c09b104_51b5   scene_65_init
     00087F54  GBVM$scene_65_init$57355ad6_315d   scene_65_init
     00087F59  GBVM$scene_65_init$769f5585_75da   scene_65_init
     00087F8B  GBVM_END$scene_65_init$b390baba_   scene_65_init
     00087F8E  GBVM$scene_65_init$f061d15d_f1b9   scene_65_init
     00087FC7  GBVM$scene_65_init$afcb0749_8f1f   scene_65_init
     00087FCC  GBVM$scene_65_init$42c65e15_e01a   scene_65_init
     00087FFE  GBVM_END$scene_65_init$21e4bc07_   scene_65_init
     00087FFE  GBVM_END$scene_65_init$3193e5fa_   scene_65_init
ASxxxx Linker V03.00/V05.40 + sdld,  page 134.
Hexadecimal  [32-Bits]

Area                                    Addr        Size        Decimal Bytes (Attributes)
--------------------------------        ----        ----        ------- ----- ------------
_CODE_19                            00134000    00003FFE =       16382. bytes (REL,CON)

      Value  Global                              Global Defined In Module
      -----  --------------------------------   ------------------------
     00134000  _actor_52_interact                 actor_52_interact
     00134001  GBVM$actor_52_interact$2eac5d4f_   actor_52_interact
     0013402A  ___func_bg_city1_tileset           bg_city1_tileset
     0013402A  _bg_city1_tileset                  bg_city1_tileset
     0013488C  ___func_bg_legend1d_tileset        bg_legend1d_tileset
     0013488C  _bg_legend1d_tileset               bg_legend1d_tileset
     0013508E  ___func_bg_schoolcorridor1_tilem   bg_schoolcorridor1_tilemap_a
     0013508E  _bg_schoolcorridor1_tilemap_attr   bg_schoolcorridor1_tilemap_a
     001358AE  ___func_bg_schoolcorridor1_tilem   bg_schoolcorridor1_tilemap
     001358AE  _bg_schoolcorridor1_tilemap        bg_schoolcorridor1_tilemap
     001360CE  ___func_bg_susielegend_tileset     bg_susielegend_tileset
     001360CE  _bg_susielegend_tileset            bg_susielegend_tileset
     00136980  ___func_bg_toilet2_tileset         bg_toilet2_tileset
     00136980  _bg_toilet2_tileset                bg_toilet2_tileset
     00137222  ___func_scene_13_collisions        scene_13_collisions
     00137222  _scene_13_collisions               scene_13_collisions
     00137A42  _scene_42_init                     scene_42_init
     00137A45  GBVM$scene_42_init$1d0647c9_a5fb   scene_42_init
     00137A54  GBVM$scene_42_init$195d0c77_0f00   scene_42_init
     00137B83  GBVM$scene_42_init$a3aee0b6_b984   scene_42_init
     00137BBE  GBVM$scene_42_init$07f7330b_01d1   scene_42_init
     00137BC7  GBVM$scene_42_init$834e80b7_e6c6   scene_42_init
     00137C20  GBVM$scene_42_init$8395b016_eb7e   scene_42_init
     00137C95  GBVM$scene_42_init$43d8a596_695d   scene_42_init
     00137C9E  GBVM$scene_42_init$e5062d6f_19b9   scene_42_init
     00137CB0  GBVM$scene_42_init$1f0fc8e6_9fe0   scene_42_init
     00137CC2  GBVM$scene_42_init$34c3f8db_c617   scene_42_init
     00137CC4  GBVM$scene_42_init$fb6b1e85_f9f1   scene_42_init
     00137CCA  GBVM$scene_42_init$090a22a6_9989   scene_42_init
     00137CD0  GBVM$scene_42_init$b6902674_4bb7   scene_42_init
     00137CD6  GBVM$scene_42_init$3d09c91d_80c2   scene_42_init
     00137CDC  GBVM$scene_42_init$aefe712c_2fa8   scene_42_init
     00137CEC  GBVM$scene_42_init$2e57ef5b_bfd1   scene_42_init
     00137DA3  GBVM$scene_42_init$22f14e61_f7eb   scene_42_init
     00137DA6  GBVM$scene_42_init$autofade$4899   scene_42_init
     00137DB1  GBVM$scene_42_init$eb4dca6f_2bdd   scene_42_init
     00137DBA  GBVM$scene_42_init$7625a7e3_992f   scene_42_init
     00137DC6  GBVM_END$scene_42_init$7625a7e3_   scene_42_init
     00137DC9  GBVM$scene_42_init$b2e7468f_0678   scene_42_init
     00137E49  GBVM_END$scene_42_init$aefe712c_   scene_42_init
     00137E49  GBVM_END$scene_42_init$eb4dca6f_   scene_42_init
     00137E4C  GBVM$scene_42_init$70c77f3b_0493   scene_42_init
     00137E5F  GBVM$scene_42_init$5bd80903_65c9   scene_42_init
     00137ED9  GBVM$scene_42_init$56235e4c_495f   scene_42_init
     00137EF1  GBVM$scene_42_init$cdd7e32f_40ea   scene_42_init
     00137F09  GBVM$scene_42_init$33285938_8af9   scene_42_init
     00137F21  GBVM$scene_42_init$1362694c_7b9c   scene_42_init
     00137F39  GBVM$scene_42_init$e85aadd3_6d36   scene_42_init
     00137F3E  GBVM$scene_42_init$bc14db01_8d5e   scene_42_init
     00137F40  GBVM$scene_42_init$096e7618_4300   scene_42_init
ASxxxx Linker V03.00/V05.40 + sdld,  page 135.
Hexadecimal  [32-Bits]

Area                                    Addr        Size        Decimal Bytes (Attributes)
--------------------------------        ----        ----        ------- ----- ------------
_CODE_19                            00134000    00003FFE =       16382. bytes (REL,CON)

      Value  Global                              Global Defined In Module
      -----  --------------------------------   ------------------------
     00137F46  GBVM$scene_42_init$2fec251a_c9cc   scene_42_init
     00137F4C  GBVM$scene_42_init$62d6a3a5_468a   scene_42_init
     00137F52  GBVM$scene_42_init$88da2201_0ef6   scene_42_init
     00137F58  GBVM$scene_42_init$c9796e3e_0ca0   scene_42_init
     00137F5E  GBVM_END$scene_42_init$1f0fc8e6_   scene_42_init
     00137F5E  GBVM_END$scene_42_init$70c77f3b_   scene_42_init
     00137F61  GBVM$scene_42_init$a5b9090d_9a99   scene_42_init
     00137F93  GBVM_END$scene_42_init$e5062d6f_   scene_42_init
     00137F96  GBVM$scene_42_init$2dc3f6ee_5e1a   scene_42_init
     00137FC8  GBVM_END$scene_42_init$43d8a596_   scene_42_init
     00137FCB  GBVM$scene_42_init$67cdfdb2_2603   scene_42_init
     00137FFD  GBVM_END$scene_42_init$07f7330b_   scene_42_init

ASxxxx Linker V03.00/V05.40 + sdld,  page 136.
Hexadecimal  [32-Bits]

Area                                    Addr        Size        Decimal Bytes (Attributes)
--------------------------------        ----        ----        ------- ----- ------------
_CODE_9                             00094000    00004000 =       16384. bytes (REL,CON)

      Value  Global                              Global Defined In Module
      -----  --------------------------------   ------------------------
     00094000  _actor_84_interact                 actor_84_interact
     00094001  GBVM$actor_84_interact$74c55148_   actor_84_interact
     000940E0  ___func_font_gbsmono20             font_gbsmono20
     00094EB0  _font_gbsmono20                    font_gbsmono20
     000967AF  _song_anothergameover_Data         song_anothergameover_Data
     00097FEB  _song_song_template_0_Data         song_song_template_0_Data
ASxxxx Linker V03.00/V05.40 + sdld,  page 137.
Hexadecimal  [32-Bits]

Area                                    Addr        Size        Decimal Bytes (Attributes)
--------------------------------        ----        ----        ------- ----- ------------
_CODE_5                             00054000    00004000 =       16384. bytes (REL,CON)

      Value  Global                              Global Defined In Module
      -----  --------------------------------   ------------------------
     00054000  ___func_bg_4_tilemap_attr          bg_4_tilemap_attr
     00054000  _bg_4_tilemap_attr                 bg_4_tilemap_attr
     00057FAF  _song_beginning_Data               song_beginning_Data
     00057FC4  _trigger_15_interact               trigger_15_interact
     00057FC5  GBVM$trigger_15_interact$fcea300   trigger_15_interact

ASxxxx Linker V03.00/V05.40 + sdld,  page 138.
Hexadecimal  [32-Bits]

Area                                    Addr        Size        Decimal Bytes (Attributes)
--------------------------------        ----        ----        ------- ----- ------------
_CODE_23                            00174000    00004000 =       16384. bytes (REL,CON)

      Value  Global                              Global Defined In Module
      -----  --------------------------------   ------------------------
     00174000  ___func_bg_7_tilemap_attr          bg_7_tilemap_attr
     00174000  _bg_7_tilemap_attr                 bg_7_tilemap_attr
     00174580  ___func_bg_7_tilemap               bg_7_tilemap
     00174580  _bg_7_tilemap                      bg_7_tilemap
     00174B00  ___func_bg_7_tileset               bg_7_tileset
     00174B00  _bg_7_tileset                      bg_7_tileset
     001750F2  ___func_bg_9_tileset               bg_9_tileset
     001750F2  _bg_9_tileset                      bg_9_tileset
     00175654  ___func_bg_b0027_copie_tileset     bg_b0027_copie_tileset
     00175654  _bg_b0027_copie_tileset            bg_b0027_copie_tileset
     00175996  ___func_bg_legend3_tileset         bg_legend3_tileset
     00175996  _bg_legend3_tileset                bg_legend3_tileset
     00175F48  ___func_bg_legend7f_tileset        bg_legend7f_tileset
     00175F48  _bg_legend7f_tileset               bg_legend7f_tileset
     001764AA  ___func_bg_worldddd_tilemap_attr   bg_worldddd_tilemap_attr
     001764AA  _bg_worldddd_tilemap_attr          bg_worldddd_tilemap_attr
     00176A02  ___func_bg_worldddd_tilemap        bg_worldddd_tilemap
     00176A02  _bg_worldddd_tilemap               bg_worldddd_tilemap
     00176F5A  ___func_bg_worldddddark_tileset    bg_worldddddark_tileset
     00176F5A  _bg_worldddddark_tileset           bg_worldddddark_tileset
     0017750C  _scene_24_init                     scene_24_init
     0017750F  GBVM$scene_24_init$860a18c9_cc78   scene_24_init
     00177514  GBVM$scene_24_init$c8e61e05_22f5   scene_24_init
     00177519  GBVM$scene_24_init$0fa2ab83_a094   scene_24_init
     0017751E  GBVM$scene_24_init$aa40ced5_a319   scene_24_init
     00177523  GBVM$scene_24_init$d39b3c1b_edfe   scene_24_init
     00177528  GBVM$scene_24_init$cafa139a_c79e   scene_24_init
     0017752D  GBVM$scene_24_init$e8b58620_ec7f   scene_24_init
     00177532  GBVM$scene_24_init$7c2bdc95_4ffd   scene_24_init
     00177537  GBVM$scene_24_init$812653bd_5f9e   scene_24_init
     0017753C  GBVM$scene_24_init$baca71c2_cbc8   scene_24_init
     00177541  GBVM$scene_24_init$c004cde2_2cf3   scene_24_init
     00177546  GBVM$scene_24_init$9a62f7a2_ec87   scene_24_init
     0017754B  GBVM$scene_24_init$b91e8008_bc4d   scene_24_init
     00177550  GBVM$scene_24_init$68864798_3967   scene_24_init
     00177555  GBVM$scene_24_init$9cbb14c9_b287   scene_24_init
     0017755A  GBVM$scene_24_init$autofade$5cb5   scene_24_init
     00177565  GBVM$scene_24_init$e9fc09d2_11b9   scene_24_init
     00177611  GBVM$scene_24_init$2df55fca_592c   scene_24_init
     00177688  GBVM$scene_24_init$4ff4ba7e_5c7f   scene_24_init
     0017768D  GBVM$scene_24_init$8b696544_064d   scene_24_init
     001776CC  GBVM$scene_24_init$5778cb5d_0b35   scene_24_init
     00177726  GBVM$scene_24_init$cfa682be_bfaf   scene_24_init
     0017772B  GBVM$scene_24_init$e66138f4_80a8   scene_24_init
     0017776E  GBVM$scene_24_init$8a3c8b07_2150   scene_24_init
     001777C6  GBVM$scene_24_init$c4e4cf90_74f1   scene_24_init
     001777CB  GBVM$scene_24_init$64315b37_3a94   scene_24_init
     00177806  GBVM$scene_24_init$24a4a630_617d   scene_24_init
     0017787A  GBVM$scene_24_init$52a7395a_ddb5   scene_24_init
     0017787F  GBVM$scene_24_init$b0e7a06e_6ddf   scene_24_init
ASxxxx Linker V03.00/V05.40 + sdld,  page 139.
Hexadecimal  [32-Bits]

Area                                    Addr        Size        Decimal Bytes (Attributes)
--------------------------------        ----        ----        ------- ----- ------------
_CODE_23                            00174000    00004000 =       16384. bytes (REL,CON)

      Value  Global                              Global Defined In Module
      -----  --------------------------------   ------------------------
     001778EB  GBVM$scene_24_init$370f149b_5090   scene_24_init
     00177946  GBVM$scene_24_init$a8be1ec8_1fa1   scene_24_init
     0017794B  GBVM$scene_24_init$0ebeb920_0931   scene_24_init
     001779A1  GBVM$scene_24_init$3fc069bc_2541   scene_24_init
     001779DC  GBVM$scene_24_init$536f29f6_a4ee   scene_24_init
     00177A39  GBVM$scene_24_init$bb28e9cd_5e1e   scene_24_init
     00177A6C  ___func_scene_59_collisions        scene_59_collisions
     00177A6C  _scene_59_collisions               scene_59_collisions
     00177FEC  _script_engine_init                

ASxxxx Linker V03.00/V05.40 + sdld,  page 140.
Hexadecimal  [32-Bits]

Area                                    Addr        Size        Decimal Bytes (Attributes)
--------------------------------        ----        ----        ------- ----- ------------
_CODE_16                            00104000    00003FFF =       16383. bytes (REL,CON)

      Value  Global                              Global Defined In Module
      -----  --------------------------------   ------------------------
     00104000  ___func_bg_fountaincastle_tilese   bg_fountaincastle_tileset
     00104000  _bg_fountaincastle_tileset         bg_fountaincastle_tileset
     00104BA2  ___func_bg_legend4_tileset         bg_legend4_tileset
     00104BA2  _bg_legend4_tileset                bg_legend4_tileset
     00105174  ___func_bg_ralseilegend_tileset    bg_ralseilegend_tileset
     00105174  _bg_ralseilegend_tileset           bg_ralseilegend_tileset
     00105D16  ___func_bg_schoolcorridor1_tiles   bg_schoolcorridor1_tileset
     00105D16  _bg_schoolcorridor1_tileset        bg_schoolcorridor1_tileset
     001068F8  ___func_bg_the_castle_copie_tile   bg_the_castle_copie_tileset
     001068F8  _bg_the_castle_copie_tileset       bg_the_castle_copie_tileset
     001074CA  _scene_13_init                     scene_13_init
     001074CD  GBVM$scene_13_init$autofade$0224   scene_13_init
     001074D8  GBVM$scene_13_init$e0229e04_f58c   scene_13_init
     001074E1  GBVM$scene_13_init$4df431b8_e61a   scene_13_init
     001074EB  GBVM$scene_13_init$32132c7f_e9ea   scene_13_init
     001074FE  GBVM$scene_13_init$d6cec6e9_59b0   scene_13_init
     0010750A  GBVM$scene_13_init$8f8cf984_5a2e   scene_13_init
     00107513  GBVM$scene_13_init$5e8937b8_e87d   scene_13_init
     0010751F  GBVM$scene_13_init$543eac1e_8edc   scene_13_init
     00107528  GBVM$scene_13_init$617a7be8_a810   scene_13_init
     0010754B  GBVM$scene_13_init$9aa06c34_fc33   scene_13_init
     00107556  GBVM$scene_13_init$83768e3d_7825   scene_13_init
     00107569  GBVM$scene_13_init$070a9583_7662   scene_13_init
     001075C2  GBVM$scene_13_init$586d62af_dae3   scene_13_init
     001075CB  GBVM$scene_13_init$488c8d67_4b91   scene_13_init
     001075D7  GBVM$scene_13_init$049a7598_6402   scene_13_init
     00107644  GBVM$scene_13_init$1fd412e9_e699   scene_13_init
     00107650  GBVM$scene_13_init$c4ac417e_e510   scene_13_init
     001076BD  GBVM$scene_13_init$c80e334c_61b2   scene_13_init
     001076DC  GBVM$scene_13_init$2677f85b_6e50   scene_13_init
     001076FF  GBVM$scene_13_init$597915d4_f315   scene_13_init
     00107722  GBVM$scene_13_init$529d5f5d_42dd   scene_13_init
     0010772B  GBVM$scene_13_init$37cf8d20_3aba   scene_13_init
     00107771  GBVM$scene_13_init$ad798e7d_4f7f   scene_13_init
     00107794  GBVM$scene_13_init$ead130f8_4b38   scene_13_init
     001077B7  GBVM$scene_13_init$ad4f107f_8d44   scene_13_init
     001077C0  GBVM$scene_13_init$a445d820_129f   scene_13_init
     001077D2  GBVM$scene_13_init$9f06b4db_725b   scene_13_init
     001077D6  GBVM$scene_13_init$b7dd4a39_3537   scene_13_init
     00107BA8  GBVM$scene_13_init$80f04f10_7101   scene_13_init
     00107BA9  GBVM$scene_13_init$eed5035b_9bab   scene_13_init
     00107BB5  GBVM$scene_13_init$da4b2f2a_814b   scene_13_init
     00107BE4  GBVM$scene_13_init$d64db7c2_d98c   scene_13_init
     00107C07  GBVM$scene_13_init$861a58a0_4724   scene_13_init
     00107C89  GBVM$scene_13_init$0de600e3_995c   scene_13_init
     00107C92  GBVM$scene_13_init$5633cf8e_222b   scene_13_init
     00107D73  GBVM$scene_13_init$a2feab45_3a12   scene_13_init
     00107DB0  GBVM$scene_13_init$59098002_ab47   scene_13_init
     00107E47  GBVM$scene_13_init$78f112e2_ab63   scene_13_init
     00107E6A  GBVM$scene_13_init$9283463b_757f   scene_13_init
ASxxxx Linker V03.00/V05.40 + sdld,  page 141.
Hexadecimal  [32-Bits]

Area                                    Addr        Size        Decimal Bytes (Attributes)
--------------------------------        ----        ----        ------- ----- ------------
_CODE_16                            00104000    00003FFF =       16383. bytes (REL,CON)

      Value  Global                              Global Defined In Module
      -----  --------------------------------   ------------------------
     00107E9F  GBVM$scene_13_init$9efe35fb_e619   scene_13_init
     00107EC2  GBVM$scene_13_init$ba36e300_e68f   scene_13_init
     00107EE8  GBVM$scene_13_init$8d3327b0_4ac1   scene_13_init
     00107EF2  GBVM$scene_13_init$39e9e408_0149   scene_13_init
     00107EF2  GBVM_END$scene_13_init$e0229e04_   scene_13_init
     00107EFB  GBVM$scene_13_init$13036dd5_4daa   scene_13_init
     00107F08  GBVM$scene_13_init$5ed04063_8120   scene_13_init
     00107F2B  GBVM$scene_13_init$1f456db9_3460   scene_13_init
     00107F4E  GBVM$scene_13_init$2395ccd8_b437   scene_13_init
     00107F5A  GBVM$scene_13_init$e11a7139_fdfa   scene_13_init
     00107F7D  GBVM$scene_13_init$12eefd4b_6e52   scene_13_init
     00107FA0  GBVM$scene_13_init$399cdb05_4ebe   scene_13_init
     00107FC3  GBVM$scene_13_init$b57700a0_fba3   scene_13_init
     00107FF5  GBVM_END$scene_13_init$39e9e408_   scene_13_init
     00107FF6  ___func_scene_56_sprites           scene_56_sprites
     00107FF6  _scene_56_sprites                  scene_56_sprites
ASxxxx Linker V03.00/V05.40 + sdld,  page 142.
Hexadecimal  [32-Bits]

Area                                    Addr        Size        Decimal Bytes (Attributes)
--------------------------------        ----        ----        ------- ----- ------------
_CODE_4                             00044000    00004000 =       16384. bytes (REL,CON)

      Value  Global                              Global Defined In Module
      -----  --------------------------------   ------------------------
     00044000  ___func_bg_legend4_tilemap_attr    bg_legend4_tilemap_attr
     00044000  _bg_legend4_tilemap_attr           bg_legend4_tilemap_attr
     0004581B  _song_susie_Data                   song_susie_Data
     00045830  ___func_scene_14_collisions        scene_14_collisions
     00045830  _scene_14_collisions               scene_14_collisions

ASxxxx Linker V03.00/V05.40 + sdld,  page 143.
Hexadecimal  [32-Bits]

Area                                    Addr        Size        Decimal Bytes (Attributes)
--------------------------------        ----        ----        ------- ----- ------------
_CODE_14                            000E4000    00004000 =       16384. bytes (REL,CON)

      Value  Global                              Global Defined In Module
      -----  --------------------------------   ------------------------
     000E4000  ___func_bg_room_tileset            bg_room_tileset
     000E4000  _bg_room_tileset                   bg_room_tileset
     000E4C02  ___func_bg_schoolint_tileset       bg_schoolint_tileset
     000E4C02  _bg_schoolint_tileset              bg_schoolint_tileset
     000E57B4  ___func_font_gbs_portrait_copie    font_gbs_portrait_copie
     000E6554  _font_gbs_portrait_copie           font_gbs_portrait_copie
     000E655C  ___func_font_gbs_portrait          font_gbs_portrait
     000E730C  _font_gbs_portrait                 font_gbs_portrait
     000E7FD3  _song_anotherhim_Data              song_anotherhim_Data
     000E7FE8  ___func_scene_13_triggers          scene_13_triggers
     000E7FE8  _scene_13_triggers                 scene_13_triggers

ASxxxx Linker V03.00/V05.40 + sdld,  page 144.
Hexadecimal  [32-Bits]

Area                                    Addr        Size        Decimal Bytes (Attributes)
--------------------------------        ----        ----        ------- ----- ------------
_CODE_10                            000A4000    00004000 =       16384. bytes (REL,CON)

      Value  Global                              Global Defined In Module
      -----  --------------------------------   ------------------------
     000A5177  _song_emptytown_Data               song_emptytown_Data
     000A518C  _script_3_0                        script_3_0
     000A518E  GBVM$script_3_0$28854f1b_0edb_40   script_3_0
     000A51B6  GBVM$script_3_0$4eb54835_3a00_4f   script_3_0
     000A51C8  GBVM$script_3_0$f80daa85_e925_4b   script_3_0
     000A51D0  GBVM$script_3_0$e08dfaa1_4f2f_49   script_3_0
     000A51E2  GBVM$script_3_0$865b224e_e5b3_4a   script_3_0
     000A51EA  GBVM$script_3_0$4916db9b_28c7_41   script_3_0
     000A51FC  GBVM$script_3_0$223868d3_8a72_49   script_3_0
     000A5204  GBVM$script_3_0$01219d6d_e5bf_49   script_3_0
     000A5216  GBVM$script_3_0$e25c4ad8_6c10_4e   script_3_0
     000A521E  GBVM$script_3_0$5212d287_3180_47   script_3_0
     000A5230  GBVM$script_3_0$75dc2a3c_f9f1_45   script_3_0
     000A5238  GBVM$script_3_0$91322e40_0b24_43   script_3_0
     000A524A  GBVM$script_3_0$ac552365_d678_48   script_3_0
     000A5252  GBVM$script_3_0$58032629_ee12_45   script_3_0
     000A5264  GBVM$script_3_0$1fce17dc_e19e_4f   script_3_0
     000A526C  GBVM$script_3_0$27d4321b_6ca6_48   script_3_0
     000A526C  GBVM_END$script_3_0$01219d6d_e5b   script_3_0
     000A526C  GBVM_END$script_3_0$4916db9b_28c   script_3_0
     000A526C  GBVM_END$script_3_0$4eb54835_3a0   script_3_0
     000A526C  GBVM_END$script_3_0$5212d287_318   script_3_0
     000A526C  GBVM_END$script_3_0$58032629_ee1   script_3_0
     000A526C  GBVM_END$script_3_0$91322e40_0b2   script_3_0
     000A526C  GBVM_END$script_3_0$e08dfaa1_4f2   script_3_0
     000A5273  GBVM$script_3_0$87d688e1_af78_4a   script_3_0
     000A529B  GBVM$script_3_0$ac111d32_5a8d_4d   script_3_0
     000A52AD  GBVM$script_3_0$c9ad98a7_d31b_4e   script_3_0
     000A52B5  GBVM$script_3_0$702563e5_8d29_40   script_3_0
     000A52C7  GBVM$script_3_0$69e7ac22_08c3_40   script_3_0
     000A52CF  GBVM$script_3_0$21806ed9_4268_4f   script_3_0
     000A52E1  GBVM$script_3_0$087a84e4_a117_49   script_3_0
     000A52E9  GBVM$script_3_0$53c0da70_a035_4e   script_3_0
     000A52FB  GBVM$script_3_0$63dd3c8f_c764_42   script_3_0
     000A5303  GBVM$script_3_0$4063d7c3_a4d2_4b   script_3_0
     000A5315  GBVM$script_3_0$572855cc_74e4_45   script_3_0
     000A531D  GBVM$script_3_0$076761c4_37b4_44   script_3_0
     000A532F  GBVM$script_3_0$a098a942_ea00_45   script_3_0
     000A5337  GBVM$script_3_0$0386dbd1_de45_49   script_3_0
     000A5349  GBVM$script_3_0$cd62b534_c31a_43   script_3_0
     000A5351  GBVM$script_3_0$9c207294_6f20_4b   script_3_0
     000A5351  GBVM_END$script_3_0$0386dbd1_de4   script_3_0
     000A5351  GBVM_END$script_3_0$076761c4_37b   script_3_0
     000A5351  GBVM_END$script_3_0$21806ed9_426   script_3_0
     000A5351  GBVM_END$script_3_0$4063d7c3_a4d   script_3_0
     000A5351  GBVM_END$script_3_0$53c0da70_a03   script_3_0
     000A5351  GBVM_END$script_3_0$702563e5_8d2   script_3_0
     000A5351  GBVM_END$script_3_0$ac111d32_5a8   script_3_0
     000A5358  GBVM$script_3_0$cc40aff3_a31b_48   script_3_0
     000A5380  GBVM$script_3_0$03e381e1_673b_49   script_3_0
ASxxxx Linker V03.00/V05.40 + sdld,  page 145.
Hexadecimal  [32-Bits]

Area                                    Addr        Size        Decimal Bytes (Attributes)
--------------------------------        ----        ----        ------- ----- ------------
_CODE_10                            000A4000    00004000 =       16384. bytes (REL,CON)

      Value  Global                              Global Defined In Module
      -----  --------------------------------   ------------------------
     000A5392  GBVM$script_3_0$a54c30d4_f474_42   script_3_0
     000A539A  GBVM$script_3_0$786bdf5e_f561_4e   script_3_0
     000A53AC  GBVM$script_3_0$e82b88d8_c35d_46   script_3_0
     000A53B4  GBVM$script_3_0$8b8bee59_9886_4c   script_3_0
     000A53C6  GBVM$script_3_0$38a818d3_228c_41   script_3_0
     000A53CE  GBVM$script_3_0$ec7eff45_f196_41   script_3_0
     000A53E0  GBVM$script_3_0$e6c9596f_2efe_4b   script_3_0
     000A53E8  GBVM$script_3_0$9840b63c_6006_4e   script_3_0
     000A53FA  GBVM$script_3_0$b3e68912_113a_40   script_3_0
     000A5402  GBVM$script_3_0$c301e3e1_471f_44   script_3_0
     000A5414  GBVM$script_3_0$abaf43b1_d52f_40   script_3_0
     000A541C  GBVM$script_3_0$74d6d891_d34f_4d   script_3_0
     000A542E  GBVM$script_3_0$5b1bd268_18cd_4e   script_3_0
     000A5436  GBVM$script_3_0$035d3494_a70f_4e   script_3_0
     000A5436  GBVM_END$script_3_0$03e381e1_673   script_3_0
     000A5436  GBVM_END$script_3_0$74d6d891_d34   script_3_0
     000A5436  GBVM_END$script_3_0$786bdf5e_f56   script_3_0
     000A5436  GBVM_END$script_3_0$8b8bee59_988   script_3_0
     000A5436  GBVM_END$script_3_0$9840b63c_600   script_3_0
     000A5436  GBVM_END$script_3_0$c301e3e1_471   script_3_0
     000A5436  GBVM_END$script_3_0$ec7eff45_f19   script_3_0
     000A543D  GBVM$script_3_0$4a7996b1_8729_43   script_3_0
     000A5465  GBVM$script_3_0$526e4b0d_effd_4e   script_3_0
     000A5477  GBVM$script_3_0$ba6165af_9d7e_47   script_3_0
     000A547F  GBVM$script_3_0$d47074fa_79b0_41   script_3_0
     000A5491  GBVM$script_3_0$0a759303_9999_46   script_3_0
     000A5499  GBVM$script_3_0$3910f9b2_e8c1_46   script_3_0
     000A54AB  GBVM$script_3_0$ffd789e1_4662_44   script_3_0
     000A54B3  GBVM$script_3_0$7bd2c787_dd05_4e   script_3_0
     000A54C5  GBVM$script_3_0$323ff867_68e1_4c   script_3_0
     000A54CD  GBVM$script_3_0$167b0685_949b_49   script_3_0
     000A54DF  GBVM$script_3_0$364ccd89_bf29_4c   script_3_0
     000A54E7  GBVM$script_3_0$dcbab5ad_2c7d_4a   script_3_0
     000A54F9  GBVM$script_3_0$cd4d5cd8_465a_40   script_3_0
     000A5501  GBVM$script_3_0$994551a7_ca50_40   script_3_0
     000A5513  GBVM$script_3_0$70bbfcdc_755e_43   script_3_0
     000A551B  GBVM$script_3_0$1d0b5e88_01a2_4e   script_3_0
     000A551B  GBVM_END$script_3_0$167b0685_949   script_3_0
     000A551B  GBVM_END$script_3_0$3910f9b2_e8c   script_3_0
     000A551B  GBVM_END$script_3_0$526e4b0d_eff   script_3_0
     000A551B  GBVM_END$script_3_0$7bd2c787_dd0   script_3_0
     000A551B  GBVM_END$script_3_0$994551a7_ca5   script_3_0
     000A551B  GBVM_END$script_3_0$d47074fa_79b   script_3_0
     000A551B  GBVM_END$script_3_0$dcbab5ad_2c7   script_3_0
     000A5522  GBVM$script_3_0$d84280d7_d885_43   script_3_0
     000A554A  GBVM$script_3_0$232e29e5_30a6_4c   script_3_0
     000A555C  GBVM$script_3_0$ee29d5d7_0874_44   script_3_0
     000A5564  GBVM$script_3_0$e5ca2441_8e58_4f   script_3_0
     000A5576  GBVM$script_3_0$c6cd4ed5_177a_4c   script_3_0
     000A557E  GBVM$script_3_0$fb5cc945_eab7_45   script_3_0
     000A5590  GBVM$script_3_0$ce1c19c4_5ac6_49   script_3_0
ASxxxx Linker V03.00/V05.40 + sdld,  page 146.
Hexadecimal  [32-Bits]

Area                                    Addr        Size        Decimal Bytes (Attributes)
--------------------------------        ----        ----        ------- ----- ------------
_CODE_10                            000A4000    00004000 =       16384. bytes (REL,CON)

      Value  Global                              Global Defined In Module
      -----  --------------------------------   ------------------------
     000A5598  GBVM$script_3_0$2e04a4ad_5cf8_4e   script_3_0
     000A55AA  GBVM$script_3_0$caeff1d8_dc83_43   script_3_0
     000A55B2  GBVM$script_3_0$319b890f_5500_40   script_3_0
     000A55C4  GBVM$script_3_0$f4c1420e_6b6a_42   script_3_0
     000A55CC  GBVM$script_3_0$28b1ff7a_5d51_48   script_3_0
     000A55DE  GBVM$script_3_0$dba36f5c_4556_49   script_3_0
     000A55E6  GBVM$script_3_0$4fc1e2ea_bc04_4e   script_3_0
     000A55F8  GBVM$script_3_0$bf4e7b75_9372_4a   script_3_0
     000A5600  GBVM$script_3_0$20f7beea_1f31_4c   script_3_0
     000A5600  GBVM_END$script_3_0$232e29e5_30a   script_3_0
     000A5600  GBVM_END$script_3_0$28b1ff7a_5d5   script_3_0
     000A5600  GBVM_END$script_3_0$2e04a4ad_5cf   script_3_0
     000A5600  GBVM_END$script_3_0$319b890f_550   script_3_0
     000A5600  GBVM_END$script_3_0$4fc1e2ea_bc0   script_3_0
     000A5600  GBVM_END$script_3_0$e5ca2441_8e5   script_3_0
     000A5600  GBVM_END$script_3_0$fb5cc945_eab   script_3_0
     000A5607  GBVM$script_3_0$e9ceb567_86a4_43   script_3_0
     000A562F  GBVM$script_3_0$2bece195_5242_4e   script_3_0
     000A5641  GBVM$script_3_0$8b42c0ba_ee94_40   script_3_0
     000A5649  GBVM$script_3_0$1ce234a7_d533_4e   script_3_0
     000A565B  GBVM$script_3_0$cebb341e_2533_40   script_3_0
     000A5663  GBVM$script_3_0$dbcf33df_e324_4d   script_3_0
     000A5675  GBVM$script_3_0$0906648c_c7ee_47   script_3_0
     000A567D  GBVM$script_3_0$a37c5daf_b59f_4a   script_3_0
     000A568F  GBVM$script_3_0$b5956349_1508_49   script_3_0
     000A5697  GBVM$script_3_0$030a7575_3ce3_47   script_3_0
     000A56A9  GBVM$script_3_0$f131aea3_a9e4_48   script_3_0
     000A56B1  GBVM$script_3_0$bb7c001f_d706_4c   script_3_0
     000A56C3  GBVM$script_3_0$c0dc414b_2a42_48   script_3_0
     000A56CB  GBVM$script_3_0$ae1ddad0_c54c_48   script_3_0
     000A56DD  GBVM$script_3_0$9b6830b0_71f1_44   script_3_0
     000A56E5  GBVM$script_3_0$8d872791_4567_41   script_3_0
     000A56E5  GBVM_END$script_3_0$030a7575_3ce   script_3_0
     000A56E5  GBVM_END$script_3_0$1ce234a7_d53   script_3_0
     000A56E5  GBVM_END$script_3_0$2bece195_524   script_3_0
     000A56E5  GBVM_END$script_3_0$a37c5daf_b59   script_3_0
     000A56E5  GBVM_END$script_3_0$ae1ddad0_c54   script_3_0
     000A56E5  GBVM_END$script_3_0$bb7c001f_d70   script_3_0
     000A56E5  GBVM_END$script_3_0$dbcf33df_e32   script_3_0
     000A56EC  GBVM$script_3_0$156d5584_f0b6_44   script_3_0
     000A5714  GBVM$script_3_0$7d21b2fd_78f0_40   script_3_0
     000A5726  GBVM$script_3_0$177d4615_f52a_4d   script_3_0
     000A572E  GBVM$script_3_0$a5628d9e_9a32_42   script_3_0
     000A5740  GBVM$script_3_0$8b6fc078_4777_44   script_3_0
     000A5748  GBVM$script_3_0$c627c76e_0469_41   script_3_0
     000A575A  GBVM$script_3_0$8a4d68c9_9c9f_46   script_3_0
     000A5762  GBVM$script_3_0$0d5141c2_05b4_4c   script_3_0
     000A5774  GBVM$script_3_0$29f55b91_ad50_47   script_3_0
     000A577C  GBVM$script_3_0$997825ba_01e6_43   script_3_0
     000A578E  GBVM$script_3_0$9e091f91_8f8b_4e   script_3_0
     000A5796  GBVM$script_3_0$a5cb5d61_43dd_4a   script_3_0
ASxxxx Linker V03.00/V05.40 + sdld,  page 147.
Hexadecimal  [32-Bits]

Area                                    Addr        Size        Decimal Bytes (Attributes)
--------------------------------        ----        ----        ------- ----- ------------
_CODE_10                            000A4000    00004000 =       16384. bytes (REL,CON)

      Value  Global                              Global Defined In Module
      -----  --------------------------------   ------------------------
     000A57A8  GBVM$script_3_0$8065aca5_1959_44   script_3_0
     000A57B0  GBVM$script_3_0$3986ab5d_dc40_47   script_3_0
     000A57C2  GBVM$script_3_0$77cdb8fa_a703_49   script_3_0
     000A57CA  GBVM$script_3_0$dccae55c_5045_4f   script_3_0
     000A57CA  GBVM_END$script_3_0$0d5141c2_05b   script_3_0
     000A57CA  GBVM_END$script_3_0$3986ab5d_dc4   script_3_0
     000A57CA  GBVM_END$script_3_0$7d21b2fd_78f   script_3_0
     000A57CA  GBVM_END$script_3_0$997825ba_01e   script_3_0
     000A57CA  GBVM_END$script_3_0$a5628d9e_9a3   script_3_0
     000A57CA  GBVM_END$script_3_0$a5cb5d61_43d   script_3_0
     000A57CA  GBVM_END$script_3_0$c627c76e_046   script_3_0
     000A57D1  GBVM$script_3_0$19b2e008_317b_4b   script_3_0
     000A57F9  GBVM$script_3_0$6cdb9608_d732_48   script_3_0
     000A580B  GBVM$script_3_0$43150c76_2eeb_4f   script_3_0
     000A5813  GBVM$script_3_0$9f42240e_d6b0_4d   script_3_0
     000A5825  GBVM$script_3_0$768195ec_1105_4b   script_3_0
     000A582D  GBVM$script_3_0$77f3e20d_4f6e_4f   script_3_0
     000A583F  GBVM$script_3_0$9dab41e7_0e86_4d   script_3_0
     000A5847  GBVM$script_3_0$4e1901bc_43a4_42   script_3_0
     000A5859  GBVM$script_3_0$17e2d3ea_1986_44   script_3_0
     000A5861  GBVM$script_3_0$9904b5e4_768c_46   script_3_0
     000A5873  GBVM$script_3_0$9ac6d998_31ff_4e   script_3_0
     000A587B  GBVM$script_3_0$ea6a11fa_d3c3_47   script_3_0
     000A588D  GBVM$script_3_0$02ed2496_2946_4b   script_3_0
     000A5895  GBVM$script_3_0$e835e903_1bce_48   script_3_0
     000A58A7  GBVM$script_3_0$a828ef7c_2db2_42   script_3_0
     000A58AF  GBVM$script_3_0$bbd97887_4e1c_47   script_3_0
     000A58AF  GBVM_END$script_3_0$4e1901bc_43a   script_3_0
     000A58AF  GBVM_END$script_3_0$6cdb9608_d73   script_3_0
     000A58AF  GBVM_END$script_3_0$77f3e20d_4f6   script_3_0
     000A58AF  GBVM_END$script_3_0$9904b5e4_768   script_3_0
     000A58AF  GBVM_END$script_3_0$9f42240e_d6b   script_3_0
     000A58AF  GBVM_END$script_3_0$e835e903_1bc   script_3_0
     000A58AF  GBVM_END$script_3_0$ea6a11fa_d3c   script_3_0
     000A58B6  GBVM$script_3_0$33a3d600_a2dd_41   script_3_0
     000A58DE  GBVM$script_3_0$73fbde51_60ee_4d   script_3_0
     000A58F0  GBVM$script_3_0$509f98b3_ba66_42   script_3_0
     000A58F8  GBVM$script_3_0$a2064cbb_5df9_4d   script_3_0
     000A590A  GBVM$script_3_0$a2705b6e_7736_49   script_3_0
     000A5912  GBVM$script_3_0$1dcfcb94_a0d0_47   script_3_0
     000A5924  GBVM$script_3_0$2a9e752e_db09_49   script_3_0
     000A592C  GBVM$script_3_0$cb7b5a70_ffe7_45   script_3_0
     000A593E  GBVM$script_3_0$809d7147_ef36_47   script_3_0
     000A5946  GBVM$script_3_0$5231e7c0_4f94_45   script_3_0
     000A5958  GBVM$script_3_0$9ca51732_deb9_4e   script_3_0
     000A5960  GBVM$script_3_0$1abafe36_c514_45   script_3_0
     000A5972  GBVM$script_3_0$62c755a4_d780_4a   script_3_0
     000A597A  GBVM$script_3_0$3d994934_ef55_48   script_3_0
     000A598C  GBVM$script_3_0$c3ab4145_5016_46   script_3_0
     000A5994  GBVM$script_3_0$9c65efb1_8922_4d   script_3_0
     000A5994  GBVM_END$script_3_0$1abafe36_c51   script_3_0
ASxxxx Linker V03.00/V05.40 + sdld,  page 148.
Hexadecimal  [32-Bits]

Area                                    Addr        Size        Decimal Bytes (Attributes)
--------------------------------        ----        ----        ------- ----- ------------
_CODE_10                            000A4000    00004000 =       16384. bytes (REL,CON)

      Value  Global                              Global Defined In Module
      -----  --------------------------------   ------------------------
     000A5994  GBVM_END$script_3_0$1dcfcb94_a0d   script_3_0
     000A5994  GBVM_END$script_3_0$3d994934_ef5   script_3_0
     000A5994  GBVM_END$script_3_0$5231e7c0_4f9   script_3_0
     000A5994  GBVM_END$script_3_0$73fbde51_60e   script_3_0
     000A5994  GBVM_END$script_3_0$a2064cbb_5df   script_3_0
     000A5994  GBVM_END$script_3_0$cb7b5a70_ffe   script_3_0
     000A599B  GBVM$script_3_0$94e3cc8b_fab3_45   script_3_0
     000A59C3  GBVM$script_3_0$b18b9440_76eb_47   script_3_0
     000A59D5  GBVM$script_3_0$14397187_cbbf_4d   script_3_0
     000A59DD  GBVM$script_3_0$645794ad_0d28_46   script_3_0
     000A59EF  GBVM$script_3_0$17df9755_311a_4a   script_3_0
     000A59F7  GBVM$script_3_0$7f9ce7f8_7d5b_46   script_3_0
     000A5A09  GBVM$script_3_0$a6f30d74_74b5_42   script_3_0
     000A5A11  GBVM$script_3_0$f404ecaa_08d9_47   script_3_0
     000A5A23  GBVM$script_3_0$aed32309_0ba8_48   script_3_0
     000A5A2B  GBVM$script_3_0$dffbb8f0_aa92_4e   script_3_0
     000A5A3D  GBVM$script_3_0$e732d44e_e6dd_48   script_3_0
     000A5A45  GBVM$script_3_0$938ac5cd_3fbe_49   script_3_0
     000A5A57  GBVM$script_3_0$1cda9796_26c2_41   script_3_0
     000A5A5F  GBVM$script_3_0$b5fb5ca2_9f34_49   script_3_0
     000A5A71  GBVM$script_3_0$88e37b15_3f87_49   script_3_0
     000A5A79  GBVM$script_3_0$b919381a_0733_41   script_3_0
     000A5A79  GBVM_END$script_3_0$645794ad_0d2   script_3_0
     000A5A79  GBVM_END$script_3_0$7f9ce7f8_7d5   script_3_0
     000A5A79  GBVM_END$script_3_0$938ac5cd_3fb   script_3_0
     000A5A79  GBVM_END$script_3_0$b18b9440_76e   script_3_0
     000A5A79  GBVM_END$script_3_0$b5fb5ca2_9f3   script_3_0
     000A5A79  GBVM_END$script_3_0$dffbb8f0_aa9   script_3_0
     000A5A79  GBVM_END$script_3_0$f404ecaa_08d   script_3_0
     000A5A80  GBVM$script_3_0$d6c85e82_82e8_48   script_3_0
     000A5AA8  GBVM$script_3_0$96368708_0630_4b   script_3_0
     000A5ABA  GBVM$script_3_0$4f967ff1_014f_4c   script_3_0
     000A5AC2  GBVM$script_3_0$437be05f_2780_49   script_3_0
     000A5AD4  GBVM$script_3_0$53dabdb8_daa2_42   script_3_0
     000A5ADC  GBVM$script_3_0$ee39b976_8407_4c   script_3_0
     000A5AEE  GBVM$script_3_0$7bf85874_5675_4b   script_3_0
     000A5AF6  GBVM$script_3_0$ef35bf7a_5efb_4e   script_3_0
     000A5B08  GBVM$script_3_0$1b05cda9_046b_4c   script_3_0
     000A5B10  GBVM$script_3_0$085ceabf_f084_43   script_3_0
     000A5B22  GBVM$script_3_0$9779e071_c445_47   script_3_0
     000A5B2A  GBVM$script_3_0$c3682355_9c78_44   script_3_0
     000A5B3C  GBVM$script_3_0$ccf48ed0_81db_4f   script_3_0
     000A5B44  GBVM$script_3_0$c2d3a071_407e_4c   script_3_0
     000A5B56  GBVM$script_3_0$6b87c5c7_6649_44   script_3_0
     000A5B5E  GBVM$script_3_0$b1fca50f_3183_4d   script_3_0
     000A5B5E  GBVM_END$script_3_0$085ceabf_f08   script_3_0
     000A5B5E  GBVM_END$script_3_0$437be05f_278   script_3_0
     000A5B5E  GBVM_END$script_3_0$96368708_063   script_3_0
     000A5B5E  GBVM_END$script_3_0$c2d3a071_407   script_3_0
     000A5B5E  GBVM_END$script_3_0$c3682355_9c7   script_3_0
     000A5B5E  GBVM_END$script_3_0$ee39b976_840   script_3_0
ASxxxx Linker V03.00/V05.40 + sdld,  page 149.
Hexadecimal  [32-Bits]

Area                                    Addr        Size        Decimal Bytes (Attributes)
--------------------------------        ----        ----        ------- ----- ------------
_CODE_10                            000A4000    00004000 =       16384. bytes (REL,CON)

      Value  Global                              Global Defined In Module
      -----  --------------------------------   ------------------------
     000A5B5E  GBVM_END$script_3_0$ef35bf7a_5ef   script_3_0
     000A5B65  GBVM$script_3_0$ea94d685_190a_42   script_3_0
     000A5B8D  GBVM$script_3_0$f0c0ac85_75c9_4b   script_3_0
     000A5B9F  GBVM$script_3_0$efe85e4b_f8f0_4e   script_3_0
     000A5BA7  GBVM$script_3_0$9532a43f_9b28_47   script_3_0
     000A5BB9  GBVM$script_3_0$918594fd_2baf_4e   script_3_0
     000A5BC1  GBVM$script_3_0$2f88a457_9e26_45   script_3_0
     000A5BD3  GBVM$script_3_0$78f9716a_9023_46   script_3_0
     000A5BDB  GBVM$script_3_0$9a44a371_e520_47   script_3_0
     000A5BED  GBVM$script_3_0$db1c21e2_19f1_4b   script_3_0
     000A5BF5  GBVM$script_3_0$03dd2c19_0e5b_4b   script_3_0
     000A5C07  GBVM$script_3_0$7c3dd5bd_e86c_4b   script_3_0
     000A5C0F  GBVM$script_3_0$acf0acd1_697f_40   script_3_0
     000A5C21  GBVM$script_3_0$a853c6b3_d5c4_4d   script_3_0
     000A5C29  GBVM$script_3_0$2d278df9_a68f_44   script_3_0
     000A5C3B  GBVM$script_3_0$a2418f23_2c61_4a   script_3_0
     000A5C43  GBVM$script_3_0$905fed96_8ef2_49   script_3_0
     000A5C43  GBVM_END$script_3_0$03dd2c19_0e5   script_3_0
     000A5C43  GBVM_END$script_3_0$2d278df9_a68   script_3_0
     000A5C43  GBVM_END$script_3_0$2f88a457_9e2   script_3_0
     000A5C43  GBVM_END$script_3_0$9532a43f_9b2   script_3_0
     000A5C43  GBVM_END$script_3_0$9a44a371_e52   script_3_0
     000A5C43  GBVM_END$script_3_0$acf0acd1_697   script_3_0
     000A5C43  GBVM_END$script_3_0$f0c0ac85_75c   script_3_0
     000A5C4A  GBVM$script_3_0$cb40d7c9_950b_49   script_3_0
     000A5C72  GBVM$script_3_0$ba38b718_7383_48   script_3_0
     000A5C84  GBVM$script_3_0$60d2ff95_8694_46   script_3_0
     000A5CB6  GBVM$script_3_0$de2e3efd_fa7d_4c   script_3_0
     000A5CBE  GBVM$script_3_0$536f447a_e1a3_47   script_3_0
     000A5CD0  GBVM$script_3_0$1f937feb_9956_46   script_3_0
     000A5CD8  GBVM$script_3_0$832f3b05_0081_4f   script_3_0
     000A5CEA  GBVM$script_3_0$6fef20b6_d1d1_48   script_3_0
     000A5CF2  GBVM$script_3_0$d8433f50_6f4d_40   script_3_0
     000A5D04  GBVM$script_3_0$fd78f14d_87dc_4f   script_3_0
     000A5D0C  GBVM$script_3_0$d8fd95b6_1f3e_4e   script_3_0
     000A5D1E  GBVM$script_3_0$997d7d8c_f2a7_45   script_3_0
     000A5D26  GBVM$script_3_0$1b07fd53_d4b0_40   script_3_0
     000A5D38  GBVM$script_3_0$e08886ce_d4f4_47   script_3_0
     000A5D40  GBVM$script_3_0$e91045c5_3be7_43   script_3_0
     000A5D52  GBVM$script_3_0$285c7bd4_23d4_40   script_3_0
     000A5D5A  GBVM$script_3_0$390a6151_765a_42   script_3_0
     000A5D5A  GBVM_END$script_3_0$1b07fd53_d4b   script_3_0
     000A5D5A  GBVM_END$script_3_0$536f447a_e1a   script_3_0
     000A5D5A  GBVM_END$script_3_0$832f3b05_008   script_3_0
     000A5D5A  GBVM_END$script_3_0$ba38b718_738   script_3_0
     000A5D5A  GBVM_END$script_3_0$d8433f50_6f4   script_3_0
     000A5D5A  GBVM_END$script_3_0$d8fd95b6_1f3   script_3_0
     000A5D5A  GBVM_END$script_3_0$e91045c5_3be   script_3_0
     000A5D61  GBVM$script_3_0$b91469e5_17f5_44   script_3_0
     000A5D89  GBVM$script_3_0$f16233c7_50d1_49   script_3_0
     000A5D9B  GBVM$script_3_0$2e0ca4c3_9e76_44   script_3_0
ASxxxx Linker V03.00/V05.40 + sdld,  page 150.
Hexadecimal  [32-Bits]

Area                                    Addr        Size        Decimal Bytes (Attributes)
--------------------------------        ----        ----        ------- ----- ------------
_CODE_10                            000A4000    00004000 =       16384. bytes (REL,CON)

      Value  Global                              Global Defined In Module
      -----  --------------------------------   ------------------------
     000A5DA3  GBVM$script_3_0$61e85d7c_eb52_41   script_3_0
     000A5DB5  GBVM$script_3_0$52ed733a_a1f4_4f   script_3_0
     000A5DBD  GBVM$script_3_0$83fc37f7_1b61_42   script_3_0
     000A5DCF  GBVM$script_3_0$59a2faa5_ff90_4a   script_3_0
     000A5DD7  GBVM$script_3_0$6a73bef8_70ae_4b   script_3_0
     000A5DE9  GBVM$script_3_0$0924c679_abf6_4e   script_3_0
     000A5DF1  GBVM$script_3_0$3400ffd1_590a_43   script_3_0
     000A5E03  GBVM$script_3_0$866bd81d_f51c_4c   script_3_0
     000A5E0B  GBVM$script_3_0$d8d7f5b9_c09b_45   script_3_0
     000A5E1D  GBVM$script_3_0$bab8940c_0f84_48   script_3_0
     000A5E25  GBVM$script_3_0$b0a5712a_e919_47   script_3_0
     000A5E37  GBVM$script_3_0$f3b7bea2_1a8d_48   script_3_0
     000A5E3F  GBVM$script_3_0$3469a70b_b520_44   script_3_0
     000A5E3F  GBVM_END$script_3_0$3400ffd1_590   script_3_0
     000A5E3F  GBVM_END$script_3_0$61e85d7c_eb5   script_3_0
     000A5E3F  GBVM_END$script_3_0$6a73bef8_70a   script_3_0
     000A5E3F  GBVM_END$script_3_0$83fc37f7_1b6   script_3_0
     000A5E3F  GBVM_END$script_3_0$b0a5712a_e91   script_3_0
     000A5E3F  GBVM_END$script_3_0$d8d7f5b9_c09   script_3_0
     000A5E3F  GBVM_END$script_3_0$f16233c7_50d   script_3_0
     000A5E46  GBVM$script_3_0$c8108b90_dff5_48   script_3_0
     000A5E6E  GBVM$script_3_0$4671c83d_d63d_46   script_3_0
     000A5E80  GBVM$script_3_0$6a7fc8b3_31ea_45   script_3_0
     000A5E88  GBVM$script_3_0$9e8ffa83_b5dd_4b   script_3_0
     000A5E9A  GBVM$script_3_0$f3fd84db_7fbd_4a   script_3_0
     000A5EA2  GBVM$script_3_0$0d52cdc3_cade_42   script_3_0
     000A5EB4  GBVM$script_3_0$38db2bca_e641_4e   script_3_0
     000A5EBC  GBVM$script_3_0$c7a7fde6_ce26_41   script_3_0
     000A5ECE  GBVM$script_3_0$be0be75d_b652_4a   script_3_0
     000A5ED6  GBVM$script_3_0$0434e078_f599_45   script_3_0
     000A5EE8  GBVM$script_3_0$f1092d42_b901_4f   script_3_0
     000A5EF0  GBVM$script_3_0$418123d7_cb57_42   script_3_0
     000A5F02  GBVM$script_3_0$d3b35f9c_b2c9_4c   script_3_0
     000A5F0A  GBVM$script_3_0$c25aff5d_0dbb_4d   script_3_0
     000A5F1C  GBVM$script_3_0$ce1b7f68_c214_44   script_3_0
     000A5F24  GBVM$script_3_0$1cd8db84_5c9c_42   script_3_0
     000A5F24  GBVM_END$script_3_0$0434e078_f59   script_3_0
     000A5F24  GBVM_END$script_3_0$0d52cdc3_cad   script_3_0
     000A5F24  GBVM_END$script_3_0$418123d7_cb5   script_3_0
     000A5F24  GBVM_END$script_3_0$4671c83d_d63   script_3_0
     000A5F24  GBVM_END$script_3_0$9e8ffa83_b5d   script_3_0
     000A5F24  GBVM_END$script_3_0$c25aff5d_0db   script_3_0
     000A5F24  GBVM_END$script_3_0$c7a7fde6_ce2   script_3_0
     000A5F2B  GBVM$script_3_0$cdd93f2d_5d72_4a   script_3_0
     000A5F53  GBVM$script_3_0$ec512089_dbfd_48   script_3_0
     000A5F65  GBVM$script_3_0$a6f797b4_fc13_4a   script_3_0
     000A5F6D  GBVM$script_3_0$262c7ab8_b23d_40   script_3_0
     000A5F7F  GBVM$script_3_0$a54c24a7_4877_47   script_3_0
     000A5F87  GBVM$script_3_0$28854821_b114_46   script_3_0
     000A5F99  GBVM$script_3_0$186fe43e_2c6d_49   script_3_0
     000A5FA1  GBVM$script_3_0$18285949_83a2_44   script_3_0
ASxxxx Linker V03.00/V05.40 + sdld,  page 151.
Hexadecimal  [32-Bits]

Area                                    Addr        Size        Decimal Bytes (Attributes)
--------------------------------        ----        ----        ------- ----- ------------
_CODE_10                            000A4000    00004000 =       16384. bytes (REL,CON)

      Value  Global                              Global Defined In Module
      -----  --------------------------------   ------------------------
     000A5FB3  GBVM$script_3_0$311544aa_ef64_4d   script_3_0
     000A5FBB  GBVM$script_3_0$2883f6a8_0d23_42   script_3_0
     000A5FCD  GBVM$script_3_0$19d30821_eeb2_43   script_3_0
     000A5FD5  GBVM$script_3_0$798e0cf4_87ee_42   script_3_0
     000A5FE7  GBVM$script_3_0$2bf16b13_b46a_4f   script_3_0
     000A5FEF  GBVM$script_3_0$2954c31a_6e6f_41   script_3_0
     000A6001  GBVM$script_3_0$fe623ff5_dc85_4a   script_3_0
     000A6009  GBVM$script_3_0$a54fdc17_00a8_45   script_3_0
     000A6009  GBVM_END$script_3_0$18285949_83a   script_3_0
     000A6009  GBVM_END$script_3_0$262c7ab8_b23   script_3_0
     000A6009  GBVM_END$script_3_0$2883f6a8_0d2   script_3_0
     000A6009  GBVM_END$script_3_0$28854821_b11   script_3_0
     000A6009  GBVM_END$script_3_0$2954c31a_6e6   script_3_0
     000A6009  GBVM_END$script_3_0$798e0cf4_87e   script_3_0
     000A6009  GBVM_END$script_3_0$ec512089_dbf   script_3_0
     000A6010  GBVM$script_3_0$ba03a9ad_aab6_45   script_3_0
     000A6038  GBVM$script_3_0$1f8a2c85_2251_4b   script_3_0
     000A604A  GBVM$script_3_0$52d3f979_d8fd_46   script_3_0
     000A6052  GBVM$script_3_0$93e79460_3bfa_48   script_3_0
     000A6064  GBVM$script_3_0$1b7b4807_fbb1_45   script_3_0
     000A606C  GBVM$script_3_0$c30a707e_b723_45   script_3_0
     000A607E  GBVM$script_3_0$f9248303_9b9c_43   script_3_0
     000A6086  GBVM$script_3_0$2a0d297f_b580_4f   script_3_0
     000A6098  GBVM$script_3_0$ea5b6e9c_e6f9_43   script_3_0
     000A60A0  GBVM$script_3_0$7507298d_60f5_49   script_3_0
     000A60B2  GBVM$script_3_0$0a0eac6f_e852_43   script_3_0
     000A60BA  GBVM$script_3_0$4a5036eb_7ba6_43   script_3_0
     000A60CC  GBVM$script_3_0$cfe66abb_1320_49   script_3_0
     000A60D4  GBVM$script_3_0$8fc2b088_9d24_44   script_3_0
     000A60E6  GBVM$script_3_0$c3785b60_b1ae_4f   script_3_0
     000A60EE  GBVM$script_3_0$0053a7d2_3fb6_47   script_3_0
     000A60EE  GBVM_END$script_3_0$1f8a2c85_225   script_3_0
     000A60EE  GBVM_END$script_3_0$2a0d297f_b58   script_3_0
     000A60EE  GBVM_END$script_3_0$4a5036eb_7ba   script_3_0
     000A60EE  GBVM_END$script_3_0$7507298d_60f   script_3_0
     000A60EE  GBVM_END$script_3_0$8fc2b088_9d2   script_3_0
     000A60EE  GBVM_END$script_3_0$93e79460_3bf   script_3_0
     000A60EE  GBVM_END$script_3_0$c30a707e_b72   script_3_0
     000A60F5  GBVM$script_3_0$5669d8d5_5572_4c   script_3_0
     000A611D  GBVM$script_3_0$187496f7_8177_4e   script_3_0
     000A612F  GBVM$script_3_0$b1b817d1_7a37_47   script_3_0
     000A6137  GBVM$script_3_0$f9c65b34_18ca_42   script_3_0
     000A6149  GBVM$script_3_0$b0a4fea8_6493_40   script_3_0
     000A6151  GBVM$script_3_0$7aae6abf_9e32_47   script_3_0
     000A6163  GBVM$script_3_0$bf55d002_83c5_4d   script_3_0
     000A616B  GBVM$script_3_0$c2fafa68_3c9c_43   script_3_0
     000A617D  GBVM$script_3_0$ec0dff3b_92a6_41   script_3_0
     000A6185  GBVM$script_3_0$649ab6a5_e19b_41   script_3_0
     000A6197  GBVM$script_3_0$214a88e9_94cf_41   script_3_0
     000A619F  GBVM$script_3_0$85340746_96d1_40   script_3_0
     000A61B1  GBVM$script_3_0$ad6e4e22_42c4_41   script_3_0
ASxxxx Linker V03.00/V05.40 + sdld,  page 152.
Hexadecimal  [32-Bits]

Area                                    Addr        Size        Decimal Bytes (Attributes)
--------------------------------        ----        ----        ------- ----- ------------
_CODE_10                            000A4000    00004000 =       16384. bytes (REL,CON)

      Value  Global                              Global Defined In Module
      -----  --------------------------------   ------------------------
     000A61B9  GBVM$script_3_0$de411069_5495_45   script_3_0
     000A61CB  GBVM$script_3_0$a694e103_9c79_48   script_3_0
     000A61D3  GBVM$script_3_0$2ad4ab5a_bfa1_49   script_3_0
     000A61D3  GBVM_END$script_3_0$649ab6a5_e19   script_3_0
     000A61D3  GBVM_END$script_3_0$7aae6abf_9e3   script_3_0
     000A61D3  GBVM_END$script_3_0$85340746_96d   script_3_0
     000A61D3  GBVM_END$script_3_0$c2fafa68_3c9   script_3_0
     000A61D3  GBVM_END$script_3_0$de411069_549   script_3_0
     000A61D3  GBVM_END$script_3_0$f9c65b34_18c   script_3_0
     000A61D7  GBVM$script_3_0$9573e535_6f90_4e   script_3_0
     000A61D7  GBVM_END$script_3_0$187496f7_817   script_3_0
     000A61DE  GBVM$script_3_0$74dafd55_b0e4_47   script_3_0
     000A6206  GBVM$script_3_0$f773ccca_1d78_4e   script_3_0
     000A6218  GBVM$script_3_0$15de4718_9508_48   script_3_0
     000A6220  GBVM$script_3_0$41b962ea_e4c0_4f   script_3_0
     000A6232  GBVM$script_3_0$1cbbaa42_f505_48   script_3_0
     000A623A  GBVM$script_3_0$79926785_bb34_46   script_3_0
     000A624C  GBVM$script_3_0$5d804824_1ea4_4a   script_3_0
     000A6254  GBVM$script_3_0$f425958b_61a3_47   script_3_0
     000A6266  GBVM$script_3_0$4d77d3cf_d88f_40   script_3_0
     000A626E  GBVM$script_3_0$2f30cbb4_a56b_4f   script_3_0
     000A6280  GBVM$script_3_0$4187e7f3_101f_40   script_3_0
     000A6288  GBVM$script_3_0$a6d70f1d_5272_4f   script_3_0
     000A629A  GBVM$script_3_0$ae2001bf_dd39_4d   script_3_0
     000A62A2  GBVM$script_3_0$f71cfbfb_6270_42   script_3_0
     000A62B4  GBVM$script_3_0$e8d64445_c503_44   script_3_0
     000A62BC  GBVM$script_3_0$126bf913_6796_48   script_3_0
     000A62BC  GBVM_END$script_3_0$2f30cbb4_a56   script_3_0
     000A62BC  GBVM_END$script_3_0$41b962ea_e4c   script_3_0
     000A62BC  GBVM_END$script_3_0$79926785_bb3   script_3_0
     000A62BC  GBVM_END$script_3_0$a6d70f1d_527   script_3_0
     000A62BC  GBVM_END$script_3_0$f425958b_61a   script_3_0
     000A62BC  GBVM_END$script_3_0$f71cfbfb_627   script_3_0
     000A62BC  GBVM_END$script_3_0$f773ccca_1d7   script_3_0
     000A62C3  GBVM$script_3_0$241c25f6_b630_43   script_3_0
     000A62EB  GBVM$script_3_0$887acb5c_c776_4a   script_3_0
     000A62FD  GBVM$script_3_0$db27d46d_136f_4e   script_3_0
     000A6305  GBVM$script_3_0$2f186859_a6b8_4a   script_3_0
     000A6317  GBVM$script_3_0$b232f387_5ba0_46   script_3_0
     000A631F  GBVM$script_3_0$a5f7c93e_adc2_48   script_3_0
     000A6331  GBVM$script_3_0$1fe6a6cc_f5c9_47   script_3_0
     000A6339  GBVM$script_3_0$0698f924_9436_43   script_3_0
     000A634B  GBVM$script_3_0$bd0c8683_707a_4b   script_3_0
     000A6353  GBVM$script_3_0$267b8ef4_98c9_49   script_3_0
     000A6365  GBVM$script_3_0$a1fbf065_af14_47   script_3_0
     000A636D  GBVM$script_3_0$7f80e721_f48a_41   script_3_0
     000A637F  GBVM$script_3_0$1895b0e6_57a4_4c   script_3_0
     000A6387  GBVM$script_3_0$d13a2e8e_3d9d_4e   script_3_0
     000A6399  GBVM$script_3_0$3deb390e_13b1_4a   script_3_0
     000A63A1  GBVM$script_3_0$5bb06e4a_e0d8_44   script_3_0
     000A63A1  GBVM_END$script_3_0$0698f924_943   script_3_0
ASxxxx Linker V03.00/V05.40 + sdld,  page 153.
Hexadecimal  [32-Bits]

Area                                    Addr        Size        Decimal Bytes (Attributes)
--------------------------------        ----        ----        ------- ----- ------------
_CODE_10                            000A4000    00004000 =       16384. bytes (REL,CON)

      Value  Global                              Global Defined In Module
      -----  --------------------------------   ------------------------
     000A63A1  GBVM_END$script_3_0$267b8ef4_98c   script_3_0
     000A63A1  GBVM_END$script_3_0$2f186859_a6b   script_3_0
     000A63A1  GBVM_END$script_3_0$7f80e721_f48   script_3_0
     000A63A1  GBVM_END$script_3_0$887acb5c_c77   script_3_0
     000A63A1  GBVM_END$script_3_0$a5f7c93e_adc   script_3_0
     000A63A1  GBVM_END$script_3_0$d13a2e8e_3d9   script_3_0
     000A63A8  GBVM$script_3_0$72a593d2_a62e_4f   script_3_0
     000A63D0  GBVM$script_3_0$9cfdf313_f30c_4a   script_3_0
     000A63E2  GBVM$script_3_0$22be7b2a_bf2f_47   script_3_0
     000A63EA  GBVM$script_3_0$777c0ac8_1896_44   script_3_0
     000A63FC  GBVM$script_3_0$6aec1ca5_af68_4d   script_3_0
     000A6404  GBVM$script_3_0$b67e1225_a263_4f   script_3_0
     000A6416  GBVM$script_3_0$6e7e3914_799a_4e   script_3_0
     000A641E  GBVM$script_3_0$56a38fde_7d6a_45   script_3_0
     000A6430  GBVM$script_3_0$1899f951_d685_42   script_3_0
     000A6438  GBVM$script_3_0$c4b65a71_aab1_4c   script_3_0
     000A644A  GBVM$script_3_0$abd158cf_1e0f_45   script_3_0
     000A6452  GBVM$script_3_0$5026e1c5_02fa_48   script_3_0
     000A6464  GBVM$script_3_0$5acf0abf_aad0_47   script_3_0
     000A646C  GBVM$script_3_0$a6e2631b_29c9_46   script_3_0
     000A647E  GBVM$script_3_0$384a9e56_ee7f_40   script_3_0
     000A6486  GBVM$script_3_0$cabaec20_2cc5_4a   script_3_0
     000A6486  GBVM_END$script_3_0$5026e1c5_02f   script_3_0
     000A6486  GBVM_END$script_3_0$56a38fde_7d6   script_3_0
     000A6486  GBVM_END$script_3_0$777c0ac8_189   script_3_0
     000A6486  GBVM_END$script_3_0$9cfdf313_f30   script_3_0
     000A6486  GBVM_END$script_3_0$a6e2631b_29c   script_3_0
     000A6486  GBVM_END$script_3_0$b67e1225_a26   script_3_0
     000A6486  GBVM_END$script_3_0$c4b65a71_aab   script_3_0
     000A648D  GBVM$script_3_0$e6e6de4d_5fcd_4f   script_3_0
     000A64B5  GBVM$script_3_0$ac575bff_a913_4e   script_3_0
     000A64C7  GBVM$script_3_0$a52324ca_45d7_46   script_3_0
     000A64CF  GBVM$script_3_0$f7944f58_4631_4a   script_3_0
     000A64E1  GBVM$script_3_0$d26291ab_ca92_4d   script_3_0
     000A64E9  GBVM$script_3_0$2a4f7344_096d_47   script_3_0
     000A64FB  GBVM$script_3_0$53c998d2_f97e_43   script_3_0
     000A6503  GBVM$script_3_0$db6683ab_a933_4e   script_3_0
     000A6515  GBVM$script_3_0$449296bd_0641_4c   script_3_0
     000A651D  GBVM$script_3_0$748e9fd3_4e07_40   script_3_0
     000A652F  GBVM$script_3_0$ff87ed5d_d93c_47   script_3_0
     000A6537  GBVM$script_3_0$a74e6777_64d3_40   script_3_0
     000A6549  GBVM$script_3_0$b91295be_6df5_44   script_3_0
     000A6551  GBVM$script_3_0$2051c219_3ada_4d   script_3_0
     000A6563  GBVM$script_3_0$347880b6_6a58_4f   script_3_0
     000A656B  GBVM$script_3_0$e5e583cb_2da8_45   script_3_0
     000A656B  GBVM_END$script_3_0$2051c219_3ad   script_3_0
     000A656B  GBVM_END$script_3_0$2a4f7344_096   script_3_0
     000A656B  GBVM_END$script_3_0$748e9fd3_4e0   script_3_0
     000A656B  GBVM_END$script_3_0$a74e6777_64d   script_3_0
     000A656B  GBVM_END$script_3_0$ac575bff_a91   script_3_0
     000A656B  GBVM_END$script_3_0$db6683ab_a93   script_3_0
ASxxxx Linker V03.00/V05.40 + sdld,  page 154.
Hexadecimal  [32-Bits]

Area                                    Addr        Size        Decimal Bytes (Attributes)
--------------------------------        ----        ----        ------- ----- ------------
_CODE_10                            000A4000    00004000 =       16384. bytes (REL,CON)

      Value  Global                              Global Defined In Module
      -----  --------------------------------   ------------------------
     000A656B  GBVM_END$script_3_0$f7944f58_463   script_3_0
     000A6572  GBVM$script_3_0$c6d67bd8_49f2_48   script_3_0
     000A659A  GBVM$script_3_0$9c40ca1e_55fb_4e   script_3_0
     000A65AC  GBVM$script_3_0$91f20ad6_1888_4e   script_3_0
     000A65B4  GBVM$script_3_0$43e80a62_13ea_4a   script_3_0
     000A65C6  GBVM$script_3_0$04529fa3_a3e8_4f   script_3_0
     000A65CE  GBVM$script_3_0$82fbee5f_a736_43   script_3_0
     000A65E0  GBVM$script_3_0$4169e778_e391_4b   script_3_0
     000A65E8  GBVM$script_3_0$65eabe32_d922_44   script_3_0
     000A65FA  GBVM$script_3_0$31d1524b_e7c4_49   script_3_0
     000A6602  GBVM$script_3_0$64558a3e_2230_44   script_3_0
     000A6614  GBVM$script_3_0$b573919b_8573_41   script_3_0
     000A661C  GBVM$script_3_0$cbe9560e_975a_4c   script_3_0
     000A662E  GBVM$script_3_0$6537e70d_124e_45   script_3_0
     000A6636  GBVM$script_3_0$856a5d64_925f_47   script_3_0
     000A6648  GBVM$script_3_0$ade7f323_a34e_42   script_3_0
     000A6650  GBVM$script_3_0$4e32c0ff_90f8_49   script_3_0
     000A6650  GBVM_END$script_3_0$43e80a62_13e   script_3_0
     000A6650  GBVM_END$script_3_0$64558a3e_223   script_3_0
     000A6650  GBVM_END$script_3_0$65eabe32_d92   script_3_0
     000A6650  GBVM_END$script_3_0$82fbee5f_a73   script_3_0
     000A6650  GBVM_END$script_3_0$856a5d64_925   script_3_0
     000A6650  GBVM_END$script_3_0$9c40ca1e_55f   script_3_0
     000A6650  GBVM_END$script_3_0$cbe9560e_975   script_3_0
     000A6657  GBVM$script_3_0$ecb67340_4789_4b   script_3_0
     000A667F  GBVM$script_3_0$5797f7c9_ae6f_46   script_3_0
     000A6691  GBVM$script_3_0$aeffd899_256e_48   script_3_0
     000A6699  GBVM$script_3_0$a6242080_0a0a_44   script_3_0
     000A66AB  GBVM$script_3_0$f92f076e_ed21_40   script_3_0
     000A66B3  GBVM$script_3_0$9199904f_f718_42   script_3_0
     000A66C5  GBVM$script_3_0$bc27d239_0b0f_4d   script_3_0
     000A66CD  GBVM$script_3_0$b0547175_7d7b_4f   script_3_0
     000A66DF  GBVM$script_3_0$7d71d74b_2358_4e   script_3_0
     000A66E7  GBVM$script_3_0$ec3b0814_22fc_4a   script_3_0
     000A66F9  GBVM$script_3_0$ed60843a_3d85_4b   script_3_0
     000A6701  GBVM$script_3_0$96aec3bc_89bd_42   script_3_0
     000A6713  GBVM$script_3_0$37aeb5a9_76da_46   script_3_0
     000A671B  GBVM$script_3_0$09166f33_e8cd_46   script_3_0
     000A672D  GBVM$script_3_0$70676cf8_b06d_4e   script_3_0
     000A6735  GBVM$script_3_0$873be0b2_e395_4c   script_3_0
     000A6735  GBVM_END$script_3_0$09166f33_e8c   script_3_0
     000A6735  GBVM_END$script_3_0$5797f7c9_ae6   script_3_0
     000A6735  GBVM_END$script_3_0$9199904f_f71   script_3_0
     000A6735  GBVM_END$script_3_0$96aec3bc_89b   script_3_0
     000A6735  GBVM_END$script_3_0$a6242080_0a0   script_3_0
     000A6735  GBVM_END$script_3_0$b0547175_7d7   script_3_0
     000A6735  GBVM_END$script_3_0$ec3b0814_22f   script_3_0
     000A673C  GBVM$script_3_0$cd0ada15_9731_4a   script_3_0
     000A6764  GBVM$script_3_0$5751ffb3_5107_45   script_3_0
     000A6776  GBVM$script_3_0$02b0e282_526c_44   script_3_0
     000A677E  GBVM$script_3_0$8a421323_30e8_4d   script_3_0
ASxxxx Linker V03.00/V05.40 + sdld,  page 155.
Hexadecimal  [32-Bits]

Area                                    Addr        Size        Decimal Bytes (Attributes)
--------------------------------        ----        ----        ------- ----- ------------
_CODE_10                            000A4000    00004000 =       16384. bytes (REL,CON)

      Value  Global                              Global Defined In Module
      -----  --------------------------------   ------------------------
     000A6790  GBVM$script_3_0$37d1358e_b274_49   script_3_0
     000A6798  GBVM$script_3_0$ab33649c_b5bf_40   script_3_0
     000A67AA  GBVM$script_3_0$69be3a10_ec3b_4e   script_3_0
     000A67B2  GBVM$script_3_0$33406595_dde0_44   script_3_0
     000A67C4  GBVM$script_3_0$1d254e7b_01a4_48   script_3_0
     000A67CC  GBVM$script_3_0$d5283c18_d66f_49   script_3_0
     000A67DE  GBVM$script_3_0$10148fbf_4073_4c   script_3_0
     000A67E6  GBVM$script_3_0$986b47f3_4c89_4d   script_3_0
     000A67F8  GBVM$script_3_0$82a660dc_6d4b_43   script_3_0
     000A6800  GBVM$script_3_0$7022e57a_c713_46   script_3_0
     000A6812  GBVM$script_3_0$e9ef9f3b_e266_4e   script_3_0
     000A681A  GBVM$script_3_0$da3da52e_aceb_46   script_3_0
     000A681A  GBVM_END$script_3_0$33406595_dde   script_3_0
     000A681A  GBVM_END$script_3_0$5751ffb3_510   script_3_0
     000A681A  GBVM_END$script_3_0$7022e57a_c71   script_3_0
     000A681A  GBVM_END$script_3_0$8a421323_30e   script_3_0
     000A681A  GBVM_END$script_3_0$986b47f3_4c8   script_3_0
     000A681A  GBVM_END$script_3_0$ab33649c_b5b   script_3_0
     000A681A  GBVM_END$script_3_0$d5283c18_d66   script_3_0
     000A6821  GBVM_END$script_3_0$156d5584_f0b   script_3_0
     000A6821  GBVM_END$script_3_0$19b2e008_317   script_3_0
     000A6821  GBVM_END$script_3_0$241c25f6_b63   script_3_0
     000A6821  GBVM_END$script_3_0$28854f1b_0ed   script_3_0
     000A6821  GBVM_END$script_3_0$33a3d600_a2d   script_3_0
     000A6821  GBVM_END$script_3_0$4a7996b1_872   script_3_0
     000A6821  GBVM_END$script_3_0$5669d8d5_557   script_3_0
     000A6821  GBVM_END$script_3_0$72a593d2_a62   script_3_0
     000A6821  GBVM_END$script_3_0$74dafd55_b0e   script_3_0
     000A6821  GBVM_END$script_3_0$87d688e1_af7   script_3_0
     000A6821  GBVM_END$script_3_0$94e3cc8b_fab   script_3_0
     000A6821  GBVM_END$script_3_0$b91469e5_17f   script_3_0
     000A6821  GBVM_END$script_3_0$ba03a9ad_aab   script_3_0
     000A6821  GBVM_END$script_3_0$c6d67bd8_49f   script_3_0
     000A6821  GBVM_END$script_3_0$c8108b90_dff   script_3_0
     000A6821  GBVM_END$script_3_0$cb40d7c9_950   script_3_0
     000A6821  GBVM_END$script_3_0$cc40aff3_a31   script_3_0
     000A6821  GBVM_END$script_3_0$cd0ada15_973   script_3_0
     000A6821  GBVM_END$script_3_0$cdd93f2d_5d7   script_3_0
     000A6821  GBVM_END$script_3_0$d6c85e82_82e   script_3_0
     000A6821  GBVM_END$script_3_0$d84280d7_d88   script_3_0
     000A6821  GBVM_END$script_3_0$e6e6de4d_5fc   script_3_0
     000A6821  GBVM_END$script_3_0$e9ceb567_86a   script_3_0
     000A6821  GBVM_END$script_3_0$ea94d685_190   script_3_0
     000A6821  GBVM_END$script_3_0$ecb67340_478   script_3_0
     000A6825  _script_3                          script_3
     000A6827  GBVM$script_3$28854f1b_0edb_4013   script_3
     000A684F  GBVM$script_3$4eb54835_3a00_4f89   script_3
     000A6861  GBVM$script_3$f80daa85_e925_4b4b   script_3
     000A6869  GBVM$script_3$e08dfaa1_4f2f_494f   script_3
     000A687B  GBVM$script_3$865b224e_e5b3_4a20   script_3
     000A6883  GBVM$script_3$4916db9b_28c7_4179   script_3
ASxxxx Linker V03.00/V05.40 + sdld,  page 156.
Hexadecimal  [32-Bits]

Area                                    Addr        Size        Decimal Bytes (Attributes)
--------------------------------        ----        ----        ------- ----- ------------
_CODE_10                            000A4000    00004000 =       16384. bytes (REL,CON)

      Value  Global                              Global Defined In Module
      -----  --------------------------------   ------------------------
     000A6895  GBVM$script_3$223868d3_8a72_49d3   script_3
     000A689D  GBVM$script_3$01219d6d_e5bf_496a   script_3
     000A68AF  GBVM$script_3$e25c4ad8_6c10_4ea2   script_3
     000A68B7  GBVM$script_3$5212d287_3180_47a2   script_3
     000A68C9  GBVM$script_3$75dc2a3c_f9f1_459a   script_3
     000A68D1  GBVM$script_3$91322e40_0b24_4339   script_3
     000A68E3  GBVM$script_3$ac552365_d678_4858   script_3
     000A68EB  GBVM$script_3$58032629_ee12_4590   script_3
     000A68FD  GBVM$script_3$1fce17dc_e19e_4fff   script_3
     000A6905  GBVM$script_3$27d4321b_6ca6_48dc   script_3
     000A6905  GBVM_END$script_3$01219d6d_e5bf_   script_3
     000A6905  GBVM_END$script_3$4916db9b_28c7_   script_3
     000A6905  GBVM_END$script_3$4eb54835_3a00_   script_3
     000A6905  GBVM_END$script_3$5212d287_3180_   script_3
     000A6905  GBVM_END$script_3$58032629_ee12_   script_3
     000A6905  GBVM_END$script_3$91322e40_0b24_   script_3
     000A6905  GBVM_END$script_3$e08dfaa1_4f2f_   script_3
     000A690C  GBVM$script_3$87d688e1_af78_4a1a   script_3
     000A6934  GBVM$script_3$ac111d32_5a8d_4dca   script_3
     000A6946  GBVM$script_3$c9ad98a7_d31b_4ec3   script_3
     000A694E  GBVM$script_3$702563e5_8d29_40b9   script_3
     000A6960  GBVM$script_3$69e7ac22_08c3_405d   script_3
     000A6968  GBVM$script_3$21806ed9_4268_4f89   script_3
     000A697A  GBVM$script_3$087a84e4_a117_4915   script_3
     000A6982  GBVM$script_3$53c0da70_a035_4ec6   script_3
     000A6994  GBVM$script_3$63dd3c8f_c764_42ce   script_3
     000A699C  GBVM$script_3$4063d7c3_a4d2_4b15   script_3
     000A69AE  GBVM$script_3$572855cc_74e4_4574   script_3
     000A69B6  GBVM$script_3$076761c4_37b4_4406   script_3
     000A69C8  GBVM$script_3$a098a942_ea00_45bd   script_3
     000A69D0  GBVM$script_3$0386dbd1_de45_4950   script_3
     000A69E2  GBVM$script_3$cd62b534_c31a_4315   script_3
     000A69EA  GBVM$script_3$9c207294_6f20_4b80   script_3
     000A69EA  GBVM_END$script_3$0386dbd1_de45_   script_3
     000A69EA  GBVM_END$script_3$076761c4_37b4_   script_3
     000A69EA  GBVM_END$script_3$21806ed9_4268_   script_3
     000A69EA  GBVM_END$script_3$4063d7c3_a4d2_   script_3
     000A69EA  GBVM_END$script_3$53c0da70_a035_   script_3
     000A69EA  GBVM_END$script_3$702563e5_8d29_   script_3
     000A69EA  GBVM_END$script_3$ac111d32_5a8d_   script_3
     000A69F1  GBVM$script_3$cc40aff3_a31b_4849   script_3
     000A6A19  GBVM$script_3$03e381e1_673b_49c9   script_3
     000A6A2B  GBVM$script_3$a54c30d4_f474_422a   script_3
     000A6A33  GBVM$script_3$786bdf5e_f561_4e08   script_3
     000A6A45  GBVM$script_3$e82b88d8_c35d_46ff   script_3
     000A6A4D  GBVM$script_3$8b8bee59_9886_4c2d   script_3
     000A6A5F  GBVM$script_3$38a818d3_228c_41a2   script_3
     000A6A67  GBVM$script_3$ec7eff45_f196_41c0   script_3
     000A6A79  GBVM$script_3$e6c9596f_2efe_4b52   script_3
     000A6A81  GBVM$script_3$9840b63c_6006_4ed6   script_3
     000A6A93  GBVM$script_3$b3e68912_113a_4078   script_3
ASxxxx Linker V03.00/V05.40 + sdld,  page 157.
Hexadecimal  [32-Bits]

Area                                    Addr        Size        Decimal Bytes (Attributes)
--------------------------------        ----        ----        ------- ----- ------------
_CODE_10                            000A4000    00004000 =       16384. bytes (REL,CON)

      Value  Global                              Global Defined In Module
      -----  --------------------------------   ------------------------
     000A6A9B  GBVM$script_3$c301e3e1_471f_44cf   script_3
     000A6AAD  GBVM$script_3$abaf43b1_d52f_40b9   script_3
     000A6AB5  GBVM$script_3$74d6d891_d34f_4d42   script_3
     000A6AC7  GBVM$script_3$5b1bd268_18cd_4eb1   script_3
     000A6ACF  GBVM$script_3$035d3494_a70f_4e97   script_3
     000A6ACF  GBVM_END$script_3$03e381e1_673b_   script_3
     000A6ACF  GBVM_END$script_3$74d6d891_d34f_   script_3
     000A6ACF  GBVM_END$script_3$786bdf5e_f561_   script_3
     000A6ACF  GBVM_END$script_3$8b8bee59_9886_   script_3
     000A6ACF  GBVM_END$script_3$9840b63c_6006_   script_3
     000A6ACF  GBVM_END$script_3$c301e3e1_471f_   script_3
     000A6ACF  GBVM_END$script_3$ec7eff45_f196_   script_3
     000A6AD6  GBVM$script_3$4a7996b1_8729_4301   script_3
     000A6AFE  GBVM$script_3$526e4b0d_effd_4ecf   script_3
     000A6B10  GBVM$script_3$ba6165af_9d7e_475d   script_3
     000A6B18  GBVM$script_3$d47074fa_79b0_4158   script_3
     000A6B2A  GBVM$script_3$0a759303_9999_46dd   script_3
     000A6B32  GBVM$script_3$3910f9b2_e8c1_4620   script_3
     000A6B44  GBVM$script_3$ffd789e1_4662_44d6   script_3
     000A6B4C  GBVM$script_3$7bd2c787_dd05_4ed6   script_3
     000A6B5E  GBVM$script_3$323ff867_68e1_4c3e   script_3
     000A6B66  GBVM$script_3$167b0685_949b_49b4   script_3
     000A6B78  GBVM$script_3$364ccd89_bf29_4c49   script_3
     000A6B80  GBVM$script_3$dcbab5ad_2c7d_4ac3   script_3
     000A6B92  GBVM$script_3$cd4d5cd8_465a_407d   script_3
     000A6B9A  GBVM$script_3$994551a7_ca50_406b   script_3
     000A6BAC  GBVM$script_3$70bbfcdc_755e_4356   script_3
     000A6BB4  GBVM$script_3$1d0b5e88_01a2_4e62   script_3
     000A6BB4  GBVM_END$script_3$167b0685_949b_   script_3
     000A6BB4  GBVM_END$script_3$3910f9b2_e8c1_   script_3
     000A6BB4  GBVM_END$script_3$526e4b0d_effd_   script_3
     000A6BB4  GBVM_END$script_3$7bd2c787_dd05_   script_3
     000A6BB4  GBVM_END$script_3$994551a7_ca50_   script_3
     000A6BB4  GBVM_END$script_3$d47074fa_79b0_   script_3
     000A6BB4  GBVM_END$script_3$dcbab5ad_2c7d_   script_3
     000A6BBB  GBVM$script_3$d84280d7_d885_430b   script_3
     000A6BE3  GBVM$script_3$232e29e5_30a6_4c82   script_3
     000A6BF5  GBVM$script_3$ee29d5d7_0874_447c   script_3
     000A6BFD  GBVM$script_3$e5ca2441_8e58_4f3e   script_3
     000A6C0F  GBVM$script_3$c6cd4ed5_177a_4c1a   script_3
     000A6C17  GBVM$script_3$fb5cc945_eab7_450b   script_3
     000A6C29  GBVM$script_3$ce1c19c4_5ac6_49e7   script_3
     000A6C31  GBVM$script_3$2e04a4ad_5cf8_4ec0   script_3
     000A6C43  GBVM$script_3$caeff1d8_dc83_43da   script_3
     000A6C4B  GBVM$script_3$319b890f_5500_40a0   script_3
     000A6C5D  GBVM$script_3$f4c1420e_6b6a_429b   script_3
     000A6C65  GBVM$script_3$28b1ff7a_5d51_488c   script_3
     000A6C77  GBVM$script_3$dba36f5c_4556_490c   script_3
     000A6C7F  GBVM$script_3$4fc1e2ea_bc04_4e5d   script_3
     000A6C91  GBVM$script_3$bf4e7b75_9372_4a94   script_3
     000A6C99  GBVM$script_3$20f7beea_1f31_4cc2   script_3
ASxxxx Linker V03.00/V05.40 + sdld,  page 158.
Hexadecimal  [32-Bits]

Area                                    Addr        Size        Decimal Bytes (Attributes)
--------------------------------        ----        ----        ------- ----- ------------
_CODE_10                            000A4000    00004000 =       16384. bytes (REL,CON)

      Value  Global                              Global Defined In Module
      -----  --------------------------------   ------------------------
     000A6C99  GBVM_END$script_3$232e29e5_30a6_   script_3
     000A6C99  GBVM_END$script_3$28b1ff7a_5d51_   script_3
     000A6C99  GBVM_END$script_3$2e04a4ad_5cf8_   script_3
     000A6C99  GBVM_END$script_3$319b890f_5500_   script_3
     000A6C99  GBVM_END$script_3$4fc1e2ea_bc04_   script_3
     000A6C99  GBVM_END$script_3$e5ca2441_8e58_   script_3
     000A6C99  GBVM_END$script_3$fb5cc945_eab7_   script_3
     000A6CA0  GBVM$script_3$e9ceb567_86a4_4371   script_3
     000A6CC8  GBVM$script_3$2bece195_5242_4e72   script_3
     000A6CDA  GBVM$script_3$8b42c0ba_ee94_40c1   script_3
     000A6CE2  GBVM$script_3$1ce234a7_d533_4ecb   script_3
     000A6CF4  GBVM$script_3$cebb341e_2533_40a2   script_3
     000A6CFC  GBVM$script_3$dbcf33df_e324_4d96   script_3
     000A6D0E  GBVM$script_3$0906648c_c7ee_470b   script_3
     000A6D16  GBVM$script_3$a37c5daf_b59f_4a9b   script_3
     000A6D28  GBVM$script_3$b5956349_1508_49da   script_3
     000A6D30  GBVM$script_3$030a7575_3ce3_4759   script_3
     000A6D42  GBVM$script_3$f131aea3_a9e4_4861   script_3
     000A6D4A  GBVM$script_3$bb7c001f_d706_4c0c   script_3
     000A6D5C  GBVM$script_3$c0dc414b_2a42_4809   script_3
     000A6D64  GBVM$script_3$ae1ddad0_c54c_4844   script_3
     000A6D76  GBVM$script_3$9b6830b0_71f1_4475   script_3
     000A6D7E  GBVM$script_3$8d872791_4567_41c2   script_3
     000A6D7E  GBVM_END$script_3$030a7575_3ce3_   script_3
     000A6D7E  GBVM_END$script_3$1ce234a7_d533_   script_3
     000A6D7E  GBVM_END$script_3$2bece195_5242_   script_3
     000A6D7E  GBVM_END$script_3$a37c5daf_b59f_   script_3
     000A6D7E  GBVM_END$script_3$ae1ddad0_c54c_   script_3
     000A6D7E  GBVM_END$script_3$bb7c001f_d706_   script_3
     000A6D7E  GBVM_END$script_3$dbcf33df_e324_   script_3
     000A6D85  GBVM$script_3$156d5584_f0b6_4468   script_3
     000A6DAD  GBVM$script_3$7d21b2fd_78f0_40a3   script_3
     000A6DBF  GBVM$script_3$177d4615_f52a_4d22   script_3
     000A6DC7  GBVM$script_3$a5628d9e_9a32_428c   script_3
     000A6DD9  GBVM$script_3$8b6fc078_4777_4432   script_3
     000A6DE1  GBVM$script_3$c627c76e_0469_4152   script_3
     000A6DF3  GBVM$script_3$8a4d68c9_9c9f_4640   script_3
     000A6DFB  GBVM$script_3$0d5141c2_05b4_4c59   script_3
     000A6E0D  GBVM$script_3$29f55b91_ad50_47c7   script_3
     000A6E15  GBVM$script_3$997825ba_01e6_4347   script_3
     000A6E27  GBVM$script_3$9e091f91_8f8b_4ecb   script_3
     000A6E2F  GBVM$script_3$a5cb5d61_43dd_4a33   script_3
     000A6E41  GBVM$script_3$8065aca5_1959_444e   script_3
     000A6E49  GBVM$script_3$3986ab5d_dc40_4794   script_3
     000A6E5B  GBVM$script_3$77cdb8fa_a703_4946   script_3
     000A6E63  GBVM$script_3$dccae55c_5045_4f2b   script_3
     000A6E63  GBVM_END$script_3$0d5141c2_05b4_   script_3
     000A6E63  GBVM_END$script_3$3986ab5d_dc40_   script_3
     000A6E63  GBVM_END$script_3$7d21b2fd_78f0_   script_3
     000A6E63  GBVM_END$script_3$997825ba_01e6_   script_3
     000A6E63  GBVM_END$script_3$a5628d9e_9a32_   script_3
ASxxxx Linker V03.00/V05.40 + sdld,  page 159.
Hexadecimal  [32-Bits]

Area                                    Addr        Size        Decimal Bytes (Attributes)
--------------------------------        ----        ----        ------- ----- ------------
_CODE_10                            000A4000    00004000 =       16384. bytes (REL,CON)

      Value  Global                              Global Defined In Module
      -----  --------------------------------   ------------------------
     000A6E63  GBVM_END$script_3$a5cb5d61_43dd_   script_3
     000A6E63  GBVM_END$script_3$c627c76e_0469_   script_3
     000A6E6A  GBVM$script_3$19b2e008_317b_4b00   script_3
     000A6E92  GBVM$script_3$6cdb9608_d732_48e4   script_3
     000A6EA4  GBVM$script_3$43150c76_2eeb_4f4b   script_3
     000A6EAC  GBVM$script_3$9f42240e_d6b0_4d02   script_3
     000A6EBE  GBVM$script_3$768195ec_1105_4b91   script_3
     000A6EC6  GBVM$script_3$77f3e20d_4f6e_4f5f   script_3
     000A6ED8  GBVM$script_3$9dab41e7_0e86_4da4   script_3
     000A6EE0  GBVM$script_3$4e1901bc_43a4_4205   script_3
     000A6EF2  GBVM$script_3$17e2d3ea_1986_4497   script_3
     000A6EFA  GBVM$script_3$9904b5e4_768c_4616   script_3
     000A6F0C  GBVM$script_3$9ac6d998_31ff_4ee7   script_3
     000A6F14  GBVM$script_3$ea6a11fa_d3c3_4785   script_3
     000A6F26  GBVM$script_3$02ed2496_2946_4bcc   script_3
     000A6F2E  GBVM$script_3$e835e903_1bce_4806   script_3
     000A6F40  GBVM$script_3$a828ef7c_2db2_42fe   script_3
     000A6F48  GBVM$script_3$bbd97887_4e1c_47ec   script_3
     000A6F48  GBVM_END$script_3$4e1901bc_43a4_   script_3
     000A6F48  GBVM_END$script_3$6cdb9608_d732_   script_3
     000A6F48  GBVM_END$script_3$77f3e20d_4f6e_   script_3
     000A6F48  GBVM_END$script_3$9904b5e4_768c_   script_3
     000A6F48  GBVM_END$script_3$9f42240e_d6b0_   script_3
     000A6F48  GBVM_END$script_3$e835e903_1bce_   script_3
     000A6F48  GBVM_END$script_3$ea6a11fa_d3c3_   script_3
     000A6F4F  GBVM$script_3$33a3d600_a2dd_416d   script_3
     000A6F77  GBVM$script_3$73fbde51_60ee_4d67   script_3
     000A6F89  GBVM$script_3$509f98b3_ba66_426e   script_3
     000A6F91  GBVM$script_3$a2064cbb_5df9_4d09   script_3
     000A6FA3  GBVM$script_3$a2705b6e_7736_49aa   script_3
     000A6FAB  GBVM$script_3$1dcfcb94_a0d0_47fe   script_3
     000A6FBD  GBVM$script_3$2a9e752e_db09_4914   script_3
     000A6FC5  GBVM$script_3$cb7b5a70_ffe7_4570   script_3
     000A6FD7  GBVM$script_3$809d7147_ef36_47f9   script_3
     000A6FDF  GBVM$script_3$5231e7c0_4f94_4547   script_3
     000A6FF1  GBVM$script_3$9ca51732_deb9_4e82   script_3
     000A6FF9  GBVM$script_3$1abafe36_c514_45eb   script_3
     000A700B  GBVM$script_3$62c755a4_d780_4a8f   script_3
     000A7013  GBVM$script_3$3d994934_ef55_4853   script_3
     000A7025  GBVM$script_3$c3ab4145_5016_4648   script_3
     000A702D  GBVM$script_3$9c65efb1_8922_4d67   script_3
     000A702D  GBVM_END$script_3$1abafe36_c514_   script_3
     000A702D  GBVM_END$script_3$1dcfcb94_a0d0_   script_3
     000A702D  GBVM_END$script_3$3d994934_ef55_   script_3
     000A702D  GBVM_END$script_3$5231e7c0_4f94_   script_3
     000A702D  GBVM_END$script_3$73fbde51_60ee_   script_3
     000A702D  GBVM_END$script_3$a2064cbb_5df9_   script_3
     000A702D  GBVM_END$script_3$cb7b5a70_ffe7_   script_3
     000A7034  GBVM$script_3$94e3cc8b_fab3_4532   script_3
     000A705C  GBVM$script_3$b18b9440_76eb_4774   script_3
     000A706E  GBVM$script_3$14397187_cbbf_4d02   script_3
ASxxxx Linker V03.00/V05.40 + sdld,  page 160.
Hexadecimal  [32-Bits]

Area                                    Addr        Size        Decimal Bytes (Attributes)
--------------------------------        ----        ----        ------- ----- ------------
_CODE_10                            000A4000    00004000 =       16384. bytes (REL,CON)

      Value  Global                              Global Defined In Module
      -----  --------------------------------   ------------------------
     000A7076  GBVM$script_3$645794ad_0d28_4634   script_3
     000A7088  GBVM$script_3$17df9755_311a_4a41   script_3
     000A7090  GBVM$script_3$7f9ce7f8_7d5b_4685   script_3
     000A70A2  GBVM$script_3$a6f30d74_74b5_4232   script_3
     000A70AA  GBVM$script_3$f404ecaa_08d9_4742   script_3
     000A70BC  GBVM$script_3$aed32309_0ba8_48f7   script_3
     000A70C4  GBVM$script_3$dffbb8f0_aa92_4e44   script_3
     000A70D6  GBVM$script_3$e732d44e_e6dd_483f   script_3
     000A70DE  GBVM$script_3$938ac5cd_3fbe_492a   script_3
     000A70F0  GBVM$script_3$1cda9796_26c2_4180   script_3
     000A70F8  GBVM$script_3$b5fb5ca2_9f34_4998   script_3
     000A710A  GBVM$script_3$88e37b15_3f87_498b   script_3
     000A7112  GBVM$script_3$b919381a_0733_411c   script_3
     000A7112  GBVM_END$script_3$645794ad_0d28_   script_3
     000A7112  GBVM_END$script_3$7f9ce7f8_7d5b_   script_3
     000A7112  GBVM_END$script_3$938ac5cd_3fbe_   script_3
     000A7112  GBVM_END$script_3$b18b9440_76eb_   script_3
     000A7112  GBVM_END$script_3$b5fb5ca2_9f34_   script_3
     000A7112  GBVM_END$script_3$dffbb8f0_aa92_   script_3
     000A7112  GBVM_END$script_3$f404ecaa_08d9_   script_3
     000A7119  GBVM$script_3$d6c85e82_82e8_48f5   script_3
     000A7141  GBVM$script_3$96368708_0630_4b1e   script_3
     000A7153  GBVM$script_3$4f967ff1_014f_4c5f   script_3
     000A715B  GBVM$script_3$437be05f_2780_49f9   script_3
     000A716D  GBVM$script_3$53dabdb8_daa2_4289   script_3
     000A7175  GBVM$script_3$ee39b976_8407_4ceb   script_3
     000A7187  GBVM$script_3$7bf85874_5675_4b28   script_3
     000A718F  GBVM$script_3$ef35bf7a_5efb_4e4e   script_3
     000A71A1  GBVM$script_3$1b05cda9_046b_4c1d   script_3
     000A71A9  GBVM$script_3$085ceabf_f084_43aa   script_3
     000A71BB  GBVM$script_3$9779e071_c445_47b1   script_3
     000A71C3  GBVM$script_3$c3682355_9c78_4478   script_3
     000A71D5  GBVM$script_3$ccf48ed0_81db_4fe4   script_3
     000A71DD  GBVM$script_3$c2d3a071_407e_4c1d   script_3
     000A71EF  GBVM$script_3$6b87c5c7_6649_44ad   script_3
     000A71F7  GBVM$script_3$b1fca50f_3183_4dba   script_3
     000A71F7  GBVM_END$script_3$085ceabf_f084_   script_3
     000A71F7  GBVM_END$script_3$437be05f_2780_   script_3
     000A71F7  GBVM_END$script_3$96368708_0630_   script_3
     000A71F7  GBVM_END$script_3$c2d3a071_407e_   script_3
     000A71F7  GBVM_END$script_3$c3682355_9c78_   script_3
     000A71F7  GBVM_END$script_3$ee39b976_8407_   script_3
     000A71F7  GBVM_END$script_3$ef35bf7a_5efb_   script_3
     000A71FE  GBVM$script_3$ea94d685_190a_4236   script_3
     000A7226  GBVM$script_3$f0c0ac85_75c9_4bc8   script_3
     000A7238  GBVM$script_3$efe85e4b_f8f0_4eaa   script_3
     000A7240  GBVM$script_3$9532a43f_9b28_47af   script_3
     000A7252  GBVM$script_3$918594fd_2baf_4e4f   script_3
     000A725A  GBVM$script_3$2f88a457_9e26_4515   script_3
     000A726C  GBVM$script_3$78f9716a_9023_46af   script_3
     000A7274  GBVM$script_3$9a44a371_e520_47a4   script_3
ASxxxx Linker V03.00/V05.40 + sdld,  page 161.
Hexadecimal  [32-Bits]

Area                                    Addr        Size        Decimal Bytes (Attributes)
--------------------------------        ----        ----        ------- ----- ------------
_CODE_10                            000A4000    00004000 =       16384. bytes (REL,CON)

      Value  Global                              Global Defined In Module
      -----  --------------------------------   ------------------------
     000A7286  GBVM$script_3$db1c21e2_19f1_4b7b   script_3
     000A728E  GBVM$script_3$03dd2c19_0e5b_4b54   script_3
     000A72A0  GBVM$script_3$7c3dd5bd_e86c_4bab   script_3
     000A72A8  GBVM$script_3$acf0acd1_697f_4054   script_3
     000A72BA  GBVM$script_3$a853c6b3_d5c4_4d1c   script_3
     000A72C2  GBVM$script_3$2d278df9_a68f_44a0   script_3
     000A72D4  GBVM$script_3$a2418f23_2c61_4a94   script_3
     000A72DC  GBVM$script_3$905fed96_8ef2_4904   script_3
     000A72DC  GBVM_END$script_3$03dd2c19_0e5b_   script_3
     000A72DC  GBVM_END$script_3$2d278df9_a68f_   script_3
     000A72DC  GBVM_END$script_3$2f88a457_9e26_   script_3
     000A72DC  GBVM_END$script_3$9532a43f_9b28_   script_3
     000A72DC  GBVM_END$script_3$9a44a371_e520_   script_3
     000A72DC  GBVM_END$script_3$acf0acd1_697f_   script_3
     000A72DC  GBVM_END$script_3$f0c0ac85_75c9_   script_3
     000A72E3  GBVM$script_3$cb40d7c9_950b_49fd   script_3
     000A730B  GBVM$script_3$ba38b718_7383_4889   script_3
     000A731D  GBVM$script_3$60d2ff95_8694_465f   script_3
     000A734F  GBVM$script_3$de2e3efd_fa7d_4c49   script_3
     000A7357  GBVM$script_3$536f447a_e1a3_476a   script_3
     000A7369  GBVM$script_3$1f937feb_9956_463a   script_3
     000A7371  GBVM$script_3$832f3b05_0081_4f6b   script_3
     000A7383  GBVM$script_3$6fef20b6_d1d1_48a5   script_3
     000A738B  GBVM$script_3$d8433f50_6f4d_4053   script_3
     000A739D  GBVM$script_3$fd78f14d_87dc_4fb6   script_3
     000A73A5  GBVM$script_3$d8fd95b6_1f3e_4e90   script_3
     000A73B7  GBVM$script_3$997d7d8c_f2a7_4502   script_3
     000A73BF  GBVM$script_3$1b07fd53_d4b0_4019   script_3
     000A73D1  GBVM$script_3$e08886ce_d4f4_471d   script_3
     000A73D9  GBVM$script_3$e91045c5_3be7_432e   script_3
     000A73EB  GBVM$script_3$285c7bd4_23d4_4018   script_3
     000A73F3  GBVM$script_3$390a6151_765a_424d   script_3
     000A73F3  GBVM_END$script_3$1b07fd53_d4b0_   script_3
     000A73F3  GBVM_END$script_3$536f447a_e1a3_   script_3
     000A73F3  GBVM_END$script_3$832f3b05_0081_   script_3
     000A73F3  GBVM_END$script_3$ba38b718_7383_   script_3
     000A73F3  GBVM_END$script_3$d8433f50_6f4d_   script_3
     000A73F3  GBVM_END$script_3$d8fd95b6_1f3e_   script_3
     000A73F3  GBVM_END$script_3$e91045c5_3be7_   script_3
     000A73FA  GBVM$script_3$b91469e5_17f5_445f   script_3
     000A7422  GBVM$script_3$f16233c7_50d1_497e   script_3
     000A7434  GBVM$script_3$2e0ca4c3_9e76_4446   script_3
     000A743C  GBVM$script_3$61e85d7c_eb52_41b3   script_3
     000A744E  GBVM$script_3$52ed733a_a1f4_4fa0   script_3
     000A7456  GBVM$script_3$83fc37f7_1b61_4266   script_3
     000A7468  GBVM$script_3$59a2faa5_ff90_4ab6   script_3
     000A7470  GBVM$script_3$6a73bef8_70ae_4b05   script_3
     000A7482  GBVM$script_3$0924c679_abf6_4e65   script_3
     000A748A  GBVM$script_3$3400ffd1_590a_4381   script_3
     000A749C  GBVM$script_3$866bd81d_f51c_4c70   script_3
     000A74A4  GBVM$script_3$d8d7f5b9_c09b_457d   script_3
ASxxxx Linker V03.00/V05.40 + sdld,  page 162.
Hexadecimal  [32-Bits]

Area                                    Addr        Size        Decimal Bytes (Attributes)
--------------------------------        ----        ----        ------- ----- ------------
_CODE_10                            000A4000    00004000 =       16384. bytes (REL,CON)

      Value  Global                              Global Defined In Module
      -----  --------------------------------   ------------------------
     000A74B6  GBVM$script_3$bab8940c_0f84_4839   script_3
     000A74BE  GBVM$script_3$b0a5712a_e919_4796   script_3
     000A74D0  GBVM$script_3$f3b7bea2_1a8d_48e9   script_3
     000A74D8  GBVM$script_3$3469a70b_b520_4437   script_3
     000A74D8  GBVM_END$script_3$3400ffd1_590a_   script_3
     000A74D8  GBVM_END$script_3$61e85d7c_eb52_   script_3
     000A74D8  GBVM_END$script_3$6a73bef8_70ae_   script_3
     000A74D8  GBVM_END$script_3$83fc37f7_1b61_   script_3
     000A74D8  GBVM_END$script_3$b0a5712a_e919_   script_3
     000A74D8  GBVM_END$script_3$d8d7f5b9_c09b_   script_3
     000A74D8  GBVM_END$script_3$f16233c7_50d1_   script_3
     000A74DF  GBVM$script_3$c8108b90_dff5_4819   script_3
     000A7507  GBVM$script_3$4671c83d_d63d_46c0   script_3
     000A7519  GBVM$script_3$6a7fc8b3_31ea_45a2   script_3
     000A7521  GBVM$script_3$9e8ffa83_b5dd_4b96   script_3
     000A7533  GBVM$script_3$f3fd84db_7fbd_4a88   script_3
     000A753B  GBVM$script_3$0d52cdc3_cade_424c   script_3
     000A754D  GBVM$script_3$38db2bca_e641_4e1f   script_3
     000A7555  GBVM$script_3$c7a7fde6_ce26_410e   script_3
     000A7567  GBVM$script_3$be0be75d_b652_4ae1   script_3
     000A756F  GBVM$script_3$0434e078_f599_4524   script_3
     000A7581  GBVM$script_3$f1092d42_b901_4f5f   script_3
     000A7589  GBVM$script_3$418123d7_cb57_42de   script_3
     000A759B  GBVM$script_3$d3b35f9c_b2c9_4c7d   script_3
     000A75A3  GBVM$script_3$c25aff5d_0dbb_4d75   script_3
     000A75B5  GBVM$script_3$ce1b7f68_c214_44be   script_3
     000A75BD  GBVM$script_3$1cd8db84_5c9c_4278   script_3
     000A75BD  GBVM_END$script_3$0434e078_f599_   script_3
     000A75BD  GBVM_END$script_3$0d52cdc3_cade_   script_3
     000A75BD  GBVM_END$script_3$418123d7_cb57_   script_3
     000A75BD  GBVM_END$script_3$4671c83d_d63d_   script_3
     000A75BD  GBVM_END$script_3$9e8ffa83_b5dd_   script_3
     000A75BD  GBVM_END$script_3$c25aff5d_0dbb_   script_3
     000A75BD  GBVM_END$script_3$c7a7fde6_ce26_   script_3
     000A75C4  GBVM$script_3$cdd93f2d_5d72_4a07   script_3
     000A75EC  GBVM$script_3$ec512089_dbfd_488e   script_3
     000A75FE  GBVM$script_3$a6f797b4_fc13_4ab0   script_3
     000A7606  GBVM$script_3$262c7ab8_b23d_4052   script_3
     000A7618  GBVM$script_3$a54c24a7_4877_4790   script_3
     000A7620  GBVM$script_3$28854821_b114_46fe   script_3
     000A7632  GBVM$script_3$186fe43e_2c6d_4997   script_3
     000A763A  GBVM$script_3$18285949_83a2_44ff   script_3
     000A764C  GBVM$script_3$311544aa_ef64_4d32   script_3
     000A7654  GBVM$script_3$2883f6a8_0d23_420c   script_3
     000A7666  GBVM$script_3$19d30821_eeb2_4382   script_3
     000A766E  GBVM$script_3$798e0cf4_87ee_4235   script_3
     000A7680  GBVM$script_3$2bf16b13_b46a_4f0a   script_3
     000A7688  GBVM$script_3$2954c31a_6e6f_412e   script_3
     000A769A  GBVM$script_3$fe623ff5_dc85_4a39   script_3
     000A76A2  GBVM$script_3$a54fdc17_00a8_458a   script_3
     000A76A2  GBVM_END$script_3$18285949_83a2_   script_3
ASxxxx Linker V03.00/V05.40 + sdld,  page 163.
Hexadecimal  [32-Bits]

Area                                    Addr        Size        Decimal Bytes (Attributes)
--------------------------------        ----        ----        ------- ----- ------------
_CODE_10                            000A4000    00004000 =       16384. bytes (REL,CON)

      Value  Global                              Global Defined In Module
      -----  --------------------------------   ------------------------
     000A76A2  GBVM_END$script_3$262c7ab8_b23d_   script_3
     000A76A2  GBVM_END$script_3$2883f6a8_0d23_   script_3
     000A76A2  GBVM_END$script_3$28854821_b114_   script_3
     000A76A2  GBVM_END$script_3$2954c31a_6e6f_   script_3
     000A76A2  GBVM_END$script_3$798e0cf4_87ee_   script_3
     000A76A2  GBVM_END$script_3$ec512089_dbfd_   script_3
     000A76A9  GBVM$script_3$ba03a9ad_aab6_4508   script_3
     000A76D1  GBVM$script_3$1f8a2c85_2251_4beb   script_3
     000A76E3  GBVM$script_3$52d3f979_d8fd_46d6   script_3
     000A76EB  GBVM$script_3$93e79460_3bfa_4885   script_3
     000A76FD  GBVM$script_3$1b7b4807_fbb1_4521   script_3
     000A7705  GBVM$script_3$c30a707e_b723_4539   script_3
     000A7717  GBVM$script_3$f9248303_9b9c_4374   script_3
     000A771F  GBVM$script_3$2a0d297f_b580_4fc3   script_3
     000A7731  GBVM$script_3$ea5b6e9c_e6f9_434c   script_3
     000A7739  GBVM$script_3$7507298d_60f5_4968   script_3
     000A774B  GBVM$script_3$0a0eac6f_e852_43fc   script_3
     000A7753  GBVM$script_3$4a5036eb_7ba6_4347   script_3
     000A7765  GBVM$script_3$cfe66abb_1320_49f0   script_3
     000A776D  GBVM$script_3$8fc2b088_9d24_446e   script_3
     000A777F  GBVM$script_3$c3785b60_b1ae_4f6a   script_3
     000A7787  GBVM$script_3$0053a7d2_3fb6_47f6   script_3
     000A7787  GBVM_END$script_3$1f8a2c85_2251_   script_3
     000A7787  GBVM_END$script_3$2a0d297f_b580_   script_3
     000A7787  GBVM_END$script_3$4a5036eb_7ba6_   script_3
     000A7787  GBVM_END$script_3$7507298d_60f5_   script_3
     000A7787  GBVM_END$script_3$8fc2b088_9d24_   script_3
     000A7787  GBVM_END$script_3$93e79460_3bfa_   script_3
     000A7787  GBVM_END$script_3$c30a707e_b723_   script_3
     000A778E  GBVM$script_3$5669d8d5_5572_4cbf   script_3
     000A77B6  GBVM$script_3$187496f7_8177_4e6b   script_3
     000A77C8  GBVM$script_3$b1b817d1_7a37_47e8   script_3
     000A77D0  GBVM$script_3$f9c65b34_18ca_4297   script_3
     000A77E2  GBVM$script_3$b0a4fea8_6493_40ff   script_3
     000A77EA  GBVM$script_3$7aae6abf_9e32_4750   script_3
     000A77FC  GBVM$script_3$bf55d002_83c5_4de2   script_3
     000A7804  GBVM$script_3$c2fafa68_3c9c_430d   script_3
     000A7816  GBVM$script_3$ec0dff3b_92a6_41ef   script_3
     000A781E  GBVM$script_3$649ab6a5_e19b_41b5   script_3
     000A7830  GBVM$script_3$214a88e9_94cf_4186   script_3
     000A7838  GBVM$script_3$85340746_96d1_40ef   script_3
     000A784A  GBVM$script_3$ad6e4e22_42c4_41b2   script_3
     000A7852  GBVM$script_3$de411069_5495_452e   script_3
     000A7864  GBVM$script_3$a694e103_9c79_4894   script_3
     000A786C  GBVM$script_3$2ad4ab5a_bfa1_49ed   script_3
     000A786C  GBVM_END$script_3$649ab6a5_e19b_   script_3
     000A786C  GBVM_END$script_3$7aae6abf_9e32_   script_3
     000A786C  GBVM_END$script_3$85340746_96d1_   script_3
     000A786C  GBVM_END$script_3$c2fafa68_3c9c_   script_3
     000A786C  GBVM_END$script_3$de411069_5495_   script_3
     000A786C  GBVM_END$script_3$f9c65b34_18ca_   script_3
ASxxxx Linker V03.00/V05.40 + sdld,  page 164.
Hexadecimal  [32-Bits]

Area                                    Addr        Size        Decimal Bytes (Attributes)
--------------------------------        ----        ----        ------- ----- ------------
_CODE_10                            000A4000    00004000 =       16384. bytes (REL,CON)

      Value  Global                              Global Defined In Module
      -----  --------------------------------   ------------------------
     000A7870  GBVM$script_3$9573e535_6f90_4eed   script_3
     000A7870  GBVM_END$script_3$187496f7_8177_   script_3
     000A7877  GBVM$script_3$74dafd55_b0e4_478c   script_3
     000A789F  GBVM$script_3$f773ccca_1d78_4e56   script_3
     000A78B1  GBVM$script_3$15de4718_9508_4860   script_3
     000A78B9  GBVM$script_3$41b962ea_e4c0_4f60   script_3
     000A78CB  GBVM$script_3$1cbbaa42_f505_48cb   script_3
     000A78D3  GBVM$script_3$79926785_bb34_46c6   script_3
     000A78E5  GBVM$script_3$5d804824_1ea4_4a96   script_3
     000A78ED  GBVM$script_3$f425958b_61a3_4798   script_3
     000A78FF  GBVM$script_3$4d77d3cf_d88f_40b0   script_3
     000A7907  GBVM$script_3$2f30cbb4_a56b_4f4d   script_3
     000A7919  GBVM$script_3$4187e7f3_101f_40d3   script_3
     000A7921  GBVM$script_3$a6d70f1d_5272_4f96   script_3
     000A7933  GBVM$script_3$ae2001bf_dd39_4d1b   script_3
     000A793B  GBVM$script_3$f71cfbfb_6270_4294   script_3
     000A794D  GBVM$script_3$e8d64445_c503_4484   script_3
     000A7955  GBVM$script_3$126bf913_6796_48c4   script_3
     000A7955  GBVM_END$script_3$2f30cbb4_a56b_   script_3
     000A7955  GBVM_END$script_3$41b962ea_e4c0_   script_3
     000A7955  GBVM_END$script_3$79926785_bb34_   script_3
     000A7955  GBVM_END$script_3$a6d70f1d_5272_   script_3
     000A7955  GBVM_END$script_3$f425958b_61a3_   script_3
     000A7955  GBVM_END$script_3$f71cfbfb_6270_   script_3
     000A7955  GBVM_END$script_3$f773ccca_1d78_   script_3
     000A795C  GBVM$script_3$241c25f6_b630_434f   script_3
     000A7984  GBVM$script_3$887acb5c_c776_4a71   script_3
     000A7996  GBVM$script_3$db27d46d_136f_4e07   script_3
     000A799E  GBVM$script_3$2f186859_a6b8_4aab   script_3
     000A79B0  GBVM$script_3$b232f387_5ba0_4675   script_3
     000A79B8  GBVM$script_3$a5f7c93e_adc2_482b   script_3
     000A79CA  GBVM$script_3$1fe6a6cc_f5c9_471f   script_3
     000A79D2  GBVM$script_3$0698f924_9436_43cd   script_3
     000A79E4  GBVM$script_3$bd0c8683_707a_4bc7   script_3
     000A79EC  GBVM$script_3$267b8ef4_98c9_4966   script_3
     000A79FE  GBVM$script_3$a1fbf065_af14_470e   script_3
     000A7A06  GBVM$script_3$7f80e721_f48a_4148   script_3
     000A7A18  GBVM$script_3$1895b0e6_57a4_4cc1   script_3
     000A7A20  GBVM$script_3$d13a2e8e_3d9d_4e4c   script_3
     000A7A32  GBVM$script_3$3deb390e_13b1_4aa7   script_3
     000A7A3A  GBVM$script_3$5bb06e4a_e0d8_4417   script_3
     000A7A3A  GBVM_END$script_3$0698f924_9436_   script_3
     000A7A3A  GBVM_END$script_3$267b8ef4_98c9_   script_3
     000A7A3A  GBVM_END$script_3$2f186859_a6b8_   script_3
     000A7A3A  GBVM_END$script_3$7f80e721_f48a_   script_3
     000A7A3A  GBVM_END$script_3$887acb5c_c776_   script_3
     000A7A3A  GBVM_END$script_3$a5f7c93e_adc2_   script_3
     000A7A3A  GBVM_END$script_3$d13a2e8e_3d9d_   script_3
     000A7A41  GBVM$script_3$72a593d2_a62e_4f07   script_3
     000A7A69  GBVM$script_3$9cfdf313_f30c_4a3e   script_3
     000A7A7B  GBVM$script_3$22be7b2a_bf2f_47e4   script_3
ASxxxx Linker V03.00/V05.40 + sdld,  page 165.
Hexadecimal  [32-Bits]

Area                                    Addr        Size        Decimal Bytes (Attributes)
--------------------------------        ----        ----        ------- ----- ------------
_CODE_10                            000A4000    00004000 =       16384. bytes (REL,CON)

      Value  Global                              Global Defined In Module
      -----  --------------------------------   ------------------------
     000A7A83  GBVM$script_3$777c0ac8_1896_44a2   script_3
     000A7A95  GBVM$script_3$6aec1ca5_af68_4d8c   script_3
     000A7A9D  GBVM$script_3$b67e1225_a263_4fa2   script_3
     000A7AAF  GBVM$script_3$6e7e3914_799a_4e93   script_3
     000A7AB7  GBVM$script_3$56a38fde_7d6a_45fe   script_3
     000A7AC9  GBVM$script_3$1899f951_d685_4267   script_3
     000A7AD1  GBVM$script_3$c4b65a71_aab1_4ccf   script_3
     000A7AE3  GBVM$script_3$abd158cf_1e0f_4547   script_3
     000A7AEB  GBVM$script_3$5026e1c5_02fa_4864   script_3
     000A7AFD  GBVM$script_3$5acf0abf_aad0_474e   script_3
     000A7B05  GBVM$script_3$a6e2631b_29c9_4632   script_3
     000A7B17  GBVM$script_3$384a9e56_ee7f_4057   script_3
     000A7B1F  GBVM$script_3$cabaec20_2cc5_4adb   script_3
     000A7B1F  GBVM_END$script_3$5026e1c5_02fa_   script_3
     000A7B1F  GBVM_END$script_3$56a38fde_7d6a_   script_3
     000A7B1F  GBVM_END$script_3$777c0ac8_1896_   script_3
     000A7B1F  GBVM_END$script_3$9cfdf313_f30c_   script_3
     000A7B1F  GBVM_END$script_3$a6e2631b_29c9_   script_3
     000A7B1F  GBVM_END$script_3$b67e1225_a263_   script_3
     000A7B1F  GBVM_END$script_3$c4b65a71_aab1_   script_3
     000A7B26  GBVM$script_3$e6e6de4d_5fcd_4f0d   script_3
     000A7B4E  GBVM$script_3$ac575bff_a913_4e21   script_3
     000A7B60  GBVM$script_3$a52324ca_45d7_46de   script_3
     000A7B68  GBVM$script_3$f7944f58_4631_4a3e   script_3
     000A7B7A  GBVM$script_3$d26291ab_ca92_4db2   script_3
     000A7B82  GBVM$script_3$2a4f7344_096d_47cc   script_3
     000A7B94  GBVM$script_3$53c998d2_f97e_4350   script_3
     000A7B9C  GBVM$script_3$db6683ab_a933_4eb6   script_3
     000A7BAE  GBVM$script_3$449296bd_0641_4c36   script_3
     000A7BB6  GBVM$script_3$748e9fd3_4e07_401a   script_3
     000A7BC8  GBVM$script_3$ff87ed5d_d93c_479f   script_3
     000A7BD0  GBVM$script_3$a74e6777_64d3_406e   script_3
     000A7BE2  GBVM$script_3$b91295be_6df5_4423   script_3
     000A7BEA  GBVM$script_3$2051c219_3ada_4d58   script_3
     000A7BFC  GBVM$script_3$347880b6_6a58_4fb3   script_3
     000A7C04  GBVM$script_3$e5e583cb_2da8_4553   script_3
     000A7C04  GBVM_END$script_3$2051c219_3ada_   script_3
     000A7C04  GBVM_END$script_3$2a4f7344_096d_   script_3
     000A7C04  GBVM_END$script_3$748e9fd3_4e07_   script_3
     000A7C04  GBVM_END$script_3$a74e6777_64d3_   script_3
     000A7C04  GBVM_END$script_3$ac575bff_a913_   script_3
     000A7C04  GBVM_END$script_3$db6683ab_a933_   script_3
     000A7C04  GBVM_END$script_3$f7944f58_4631_   script_3
     000A7C0B  GBVM$script_3$c6d67bd8_49f2_4860   script_3
     000A7C33  GBVM$script_3$9c40ca1e_55fb_4ed8   script_3
     000A7C45  GBVM$script_3$91f20ad6_1888_4edf   script_3
     000A7C4D  GBVM$script_3$43e80a62_13ea_4a7c   script_3
     000A7C5F  GBVM$script_3$04529fa3_a3e8_4f07   script_3
     000A7C67  GBVM$script_3$82fbee5f_a736_4399   script_3
     000A7C79  GBVM$script_3$4169e778_e391_4b81   script_3
     000A7C81  GBVM$script_3$65eabe32_d922_4468   script_3
ASxxxx Linker V03.00/V05.40 + sdld,  page 166.
Hexadecimal  [32-Bits]

Area                                    Addr        Size        Decimal Bytes (Attributes)
--------------------------------        ----        ----        ------- ----- ------------
_CODE_10                            000A4000    00004000 =       16384. bytes (REL,CON)

      Value  Global                              Global Defined In Module
      -----  --------------------------------   ------------------------
     000A7C93  GBVM$script_3$31d1524b_e7c4_4953   script_3
     000A7C9B  GBVM$script_3$64558a3e_2230_44f8   script_3
     000A7CAD  GBVM$script_3$b573919b_8573_4178   script_3
     000A7CB5  GBVM$script_3$cbe9560e_975a_4c61   script_3
     000A7CC7  GBVM$script_3$6537e70d_124e_45f5   script_3
     000A7CCF  GBVM$script_3$856a5d64_925f_4728   script_3
     000A7CE1  GBVM$script_3$ade7f323_a34e_4244   script_3
     000A7CE9  GBVM$script_3$4e32c0ff_90f8_49aa   script_3
     000A7CE9  GBVM_END$script_3$43e80a62_13ea_   script_3
     000A7CE9  GBVM_END$script_3$64558a3e_2230_   script_3
     000A7CE9  GBVM_END$script_3$65eabe32_d922_   script_3
     000A7CE9  GBVM_END$script_3$82fbee5f_a736_   script_3
     000A7CE9  GBVM_END$script_3$856a5d64_925f_   script_3
     000A7CE9  GBVM_END$script_3$9c40ca1e_55fb_   script_3
     000A7CE9  GBVM_END$script_3$cbe9560e_975a_   script_3
     000A7CF0  GBVM$script_3$ecb67340_4789_4b7f   script_3
     000A7D18  GBVM$script_3$5797f7c9_ae6f_4612   script_3
     000A7D2A  GBVM$script_3$aeffd899_256e_48b6   script_3
     000A7D32  GBVM$script_3$a6242080_0a0a_44ce   script_3
     000A7D44  GBVM$script_3$f92f076e_ed21_4037   script_3
     000A7D4C  GBVM$script_3$9199904f_f718_421b   script_3
     000A7D5E  GBVM$script_3$bc27d239_0b0f_4d3e   script_3
     000A7D66  GBVM$script_3$b0547175_7d7b_4fab   script_3
     000A7D78  GBVM$script_3$7d71d74b_2358_4e33   script_3
     000A7D80  GBVM$script_3$ec3b0814_22fc_4a7e   script_3
     000A7D92  GBVM$script_3$ed60843a_3d85_4b69   script_3
     000A7D9A  GBVM$script_3$96aec3bc_89bd_4296   script_3
     000A7DAC  GBVM$script_3$37aeb5a9_76da_464a   script_3
     000A7DB4  GBVM$script_3$09166f33_e8cd_4626   script_3
     000A7DC6  GBVM$script_3$70676cf8_b06d_4eb2   script_3
     000A7DCE  GBVM$script_3$873be0b2_e395_4cae   script_3
     000A7DCE  GBVM_END$script_3$09166f33_e8cd_   script_3
     000A7DCE  GBVM_END$script_3$5797f7c9_ae6f_   script_3
     000A7DCE  GBVM_END$script_3$9199904f_f718_   script_3
     000A7DCE  GBVM_END$script_3$96aec3bc_89bd_   script_3
     000A7DCE  GBVM_END$script_3$a6242080_0a0a_   script_3
     000A7DCE  GBVM_END$script_3$b0547175_7d7b_   script_3
     000A7DCE  GBVM_END$script_3$ec3b0814_22fc_   script_3
     000A7DD5  GBVM$script_3$cd0ada15_9731_4a63   script_3
     000A7DFD  GBVM$script_3$5751ffb3_5107_4579   script_3
     000A7E0F  GBVM$script_3$02b0e282_526c_4466   script_3
     000A7E17  GBVM$script_3$8a421323_30e8_4d23   script_3
     000A7E29  GBVM$script_3$37d1358e_b274_49ba   script_3
     000A7E31  GBVM$script_3$ab33649c_b5bf_4013   script_3
     000A7E43  GBVM$script_3$69be3a10_ec3b_4efb   script_3
     000A7E4B  GBVM$script_3$33406595_dde0_449b   script_3
     000A7E5D  GBVM$script_3$1d254e7b_01a4_48ad   script_3
     000A7E65  GBVM$script_3$d5283c18_d66f_49bc   script_3
     000A7E77  GBVM$script_3$10148fbf_4073_4cee   script_3
     000A7E7F  GBVM$script_3$986b47f3_4c89_4d8d   script_3
     000A7E91  GBVM$script_3$82a660dc_6d4b_432f   script_3
ASxxxx Linker V03.00/V05.40 + sdld,  page 167.
Hexadecimal  [32-Bits]

Area                                    Addr        Size        Decimal Bytes (Attributes)
--------------------------------        ----        ----        ------- ----- ------------
_CODE_10                            000A4000    00004000 =       16384. bytes (REL,CON)

      Value  Global                              Global Defined In Module
      -----  --------------------------------   ------------------------
     000A7E99  GBVM$script_3$7022e57a_c713_4612   script_3
     000A7EAB  GBVM$script_3$e9ef9f3b_e266_4ef9   script_3
     000A7EB3  GBVM$script_3$da3da52e_aceb_46df   script_3
     000A7EB3  GBVM_END$script_3$33406595_dde0_   script_3
     000A7EB3  GBVM_END$script_3$5751ffb3_5107_   script_3
     000A7EB3  GBVM_END$script_3$7022e57a_c713_   script_3
     000A7EB3  GBVM_END$script_3$8a421323_30e8_   script_3
     000A7EB3  GBVM_END$script_3$986b47f3_4c89_   script_3
     000A7EB3  GBVM_END$script_3$ab33649c_b5bf_   script_3
     000A7EB3  GBVM_END$script_3$d5283c18_d66f_   script_3
     000A7EBA  GBVM_END$script_3$156d5584_f0b6_   script_3
     000A7EBA  GBVM_END$script_3$19b2e008_317b_   script_3
     000A7EBA  GBVM_END$script_3$241c25f6_b630_   script_3
     000A7EBA  GBVM_END$script_3$28854f1b_0edb_   script_3
     000A7EBA  GBVM_END$script_3$33a3d600_a2dd_   script_3
     000A7EBA  GBVM_END$script_3$4a7996b1_8729_   script_3
     000A7EBA  GBVM_END$script_3$5669d8d5_5572_   script_3
     000A7EBA  GBVM_END$script_3$72a593d2_a62e_   script_3
     000A7EBA  GBVM_END$script_3$74dafd55_b0e4_   script_3
     000A7EBA  GBVM_END$script_3$87d688e1_af78_   script_3
     000A7EBA  GBVM_END$script_3$94e3cc8b_fab3_   script_3
     000A7EBA  GBVM_END$script_3$b91469e5_17f5_   script_3
     000A7EBA  GBVM_END$script_3$ba03a9ad_aab6_   script_3
     000A7EBA  GBVM_END$script_3$c6d67bd8_49f2_   script_3
     000A7EBA  GBVM_END$script_3$c8108b90_dff5_   script_3
     000A7EBA  GBVM_END$script_3$cb40d7c9_950b_   script_3
     000A7EBA  GBVM_END$script_3$cc40aff3_a31b_   script_3
     000A7EBA  GBVM_END$script_3$cd0ada15_9731_   script_3
     000A7EBA  GBVM_END$script_3$cdd93f2d_5d72_   script_3
     000A7EBA  GBVM_END$script_3$d6c85e82_82e8_   script_3
     000A7EBA  GBVM_END$script_3$d84280d7_d885_   script_3
     000A7EBA  GBVM_END$script_3$e6e6de4d_5fcd_   script_3
     000A7EBA  GBVM_END$script_3$e9ceb567_86a4_   script_3
     000A7EBA  GBVM_END$script_3$ea94d685_190a_   script_3
     000A7EBA  GBVM_END$script_3$ecb67340_4789_   script_3
     000A7EBE  ___func_sprite_image_tileset       sprite_image_tileset
     000A7EBE  _sprite_image_tileset              sprite_image_tileset
ASxxxx Linker V03.00/V05.40 + sdld,  page 168.
Hexadecimal  [32-Bits]

Area                                    Addr        Size        Decimal Bytes (Attributes)
--------------------------------        ----        ----        ------- ----- ------------
_CODE_2                             00024000    00004000 =       16384. bytes (REL,CON)

      Value  Global                              Global Defined In Module
      -----  --------------------------------   ------------------------
     0002747F  _song_song_template_Data           song_song_template_Data
     00027494  GBVM$script_input_3$78be96f2_448   script_input_3
     00027494  _script_input_3                    script_input_3
     00027499  GBVM$script_input_3$90b6ed26_09d   script_input_3
     0002749E  ___func_sprite_room2_tileset       sprite_room2_tileset
     0002749E  _sprite_room2_tileset              sprite_room2_tileset
ASxxxx Linker V03.00/V05.40 + sdld,  page 169.
Hexadecimal  [32-Bits]

Area                                    Addr        Size        Decimal Bytes (Attributes)
--------------------------------        ----        ----        ------- ----- ------------
_HEADER_LCD0                        00000000    00000003 =           3. bytes (ABS,CON)

      Value  Global                              Global Defined In Module
      -----  --------------------------------   ------------------------
ASxxxx Linker V03.00/V05.40 + sdld,  page 170.

Files Linked                              [ module(s) ]

C:\Users\f_bes\AppData\Local\Temp/_gbstools/gbdk/lib/gb/crt0.o
                                          [ Runtime ]
C:/Users/f_bes/AppData/Local/Temp/_gbsbuild/obj/absolute.rel
                                          [ absolute ]
C:/Users/f_bes/AppData/Local/Temp/_gbsbuild/obj/actor.rel
                                          [ actor ]
C:/Users/f_bes/AppData/Local/Temp/_gbsbuild/obj/bankdata.rel
                                          [ bankdata ]
C:/Users/f_bes/AppData/Local/Temp/_gbsbuild/obj/bootstrap.rel
                                          [  ]
C:/Users/f_bes/AppData/Local/Temp/_gbsbuild/obj/camera.rel
                                          [ camera ]
C:/Users/f_bes/AppData/Local/Temp/_gbsbuild/obj/core.rel
                                          [ core ]
C:/Users/f_bes/AppData/Local/Temp/_gbsbuild/obj/crash_handler.rel
                                          [  ]
C:/Users/f_bes/AppData/Local/Temp/_gbsbuild/obj/data_manager.rel
                                          [ data_manager ]
C:/Users/f_bes/AppData/Local/Temp/_gbsbuild/obj/events.rel
                                          [ events ]
C:/Users/f_bes/AppData/Local/Temp/_gbsbuild/obj/fade_manager.rel
                                          [ fade_manager ]
C:/Users/f_bes/AppData/Local/Temp/_gbsbuild/obj/flasher_s.rel
                                          [  ]
C:/Users/f_bes/AppData/Local/Temp/_gbsbuild/obj/flasher.rel
                                          [ flasher ]
C:/Users/f_bes/AppData/Local/Temp/_gbsbuild/obj/game_time.rel
                                          [ game_time ]
C:/Users/f_bes/AppData/Local/Temp/_gbsbuild/obj/gbprinter.rel
                                          [ gbprinter ]
C:/Users/f_bes/AppData/Local/Temp/_gbsbuild/obj/input.rel
                                          [ input ]
C:/Users/f_bes/AppData/Local/Temp/_gbsbuild/obj/interrupt_sio.rel
                                          [  ]
C:/Users/f_bes/AppData/Local/Temp/_gbsbuild/obj/interrupt_timer.rel
                                          [  ]
C:/Users/f_bes/AppData/Local/Temp/_gbsbuild/obj/interrupts.rel
                                          [ interrupts ]
C:/Users/f_bes/AppData/Local/Temp/_gbsbuild/obj/load_save.rel
                                          [ load_save ]
C:/Users/f_bes/AppData/Local/Temp/_gbsbuild/obj/math_atan2.rel
                                          [ math_atan2 ]
C:/Users/f_bes/AppData/Local/Temp/_gbsbuild/obj/math.rel
                                          [ math ]
C:/Users/f_bes/AppData/Local/Temp/_gbsbuild/obj/music_manager.rel
                                          [ music_manager ]
C:/Users/f_bes/AppData/Local/Temp/_gbsbuild/obj/palette.rel
                                          [ palette ]
C:/Users/f_bes/AppData/Local/Temp/_gbsbuild/obj/parallax.rel
                                          [ parallax ]
C:/Users/f_bes/AppData/Local/Temp/_gbsbuild/obj/projectiles.rel
                                          [ projectiles ]
C:/Users/f_bes/AppData/Local/Temp/_gbsbuild/obj/scroll_a.rel
                                          [  ]
C:/Users/f_bes/AppData/Local/Temp/_gbsbuild/obj/scroll.rel
                                          [ scroll ]
C:/Users/f_bes/AppData/Local/Temp/_gbsbuild/obj/set_tile_submap.rel
                                          [  ]
C:/Users/f_bes/AppData/Local/Temp/_gbsbuild/obj/sfx_player.rel
                                          [ sfx_player ]
C:/Users/f_bes/AppData/Local/Temp/_gbsbuild/obj/sgb_border.rel
                                          [ sgb_border ]
C:/Users/f_bes/AppData/Local/Temp/_gbsbuild/obj/sio.rel
                                          [ sio ]
C:/Users/f_bes/AppData/Local/Temp/_gbsbuild/obj/states_caller.rel
                                          [  ]
C:/Users/f_bes/AppData/Local/Temp/_gbsbuild/obj/system.rel
                                          [ system ]
C:/Users/f_bes/AppData/Local/Temp/_gbsbuild/obj/trigger.rel
                                          [ trigger ]
C:/Users/f_bes/AppData/Local/Temp/_gbsbuild/obj/ui_a.rel
                                          [  ]
C:/Users/f_bes/AppData/Local/Temp/_gbsbuild/obj/ui.rel
                                          [ ui ]
C:/Users/f_bes/AppData/Local/Temp/_gbsbuild/obj/vm_actor.rel
                                          [ vm_actor ]
C:/Users/f_bes/AppData/Local/Temp/_gbsbuild/obj/vm_camera.rel
                                          [ vm_camera ]
C:/Users/f_bes/AppData/Local/Temp/_gbsbuild/obj/vm_gameboy.rel
                                          [ vm_gameboy ]
C:/Users/f_bes/AppData/Local/Temp/_gbsbuild/obj/vm_gbprinter.rel
                                          [ vm_gbprinter ]
C:/Users/f_bes/AppData/Local/Temp/_gbsbuild/obj/vm_instructions.rel
                                          [ vm_instructions ]
C:/Users/f_bes/AppData/Local/Temp/_gbsbuild/obj/vm_load_save.rel
                                          [ vm_load_save ]
C:/Users/f_bes/AppData/Local/Temp/_gbsbuild/obj/vm_math.rel
                                          [ vm_math ]
C:/Users/f_bes/AppData/Local/Temp/_gbsbuild/obj/vm_music.rel
                                          [ vm_music ]
C:/Users/f_bes/AppData/Local/Temp/_gbsbuild/obj/vm_palette.rel
                                          [ vm_palette ]
C:/Users/f_bes/AppData/Local/Temp/_gbsbuild/obj/vm_projectiles.rel
                                          [ vm_projectiles ]
C:/Users/f_bes/AppData/Local/Temp/_gbsbuild/obj/vm_rtc.rel
                                          [ vm_rtc ]
C:/Users/f_bes/AppData/Local/Temp/_gbsbuild/obj/vm_scene.rel
                                          [ vm_scene ]
C:/Users/f_bes/AppData/Local/Temp/_gbsbuild/obj/vm_sgb.rel
                                          [ vm_sgb ]
C:/Users/f_bes/AppData/Local/Temp/_gbsbuild/obj/vm_sio.rel
                                          [ vm_sio ]
C:/Users/f_bes/AppData/Local/Temp/_gbsbuild/obj/vm_ui_a.rel
                                          [ vm_ui_a ]
C:/Users/f_bes/AppData/Local/Temp/_gbsbuild/obj/vm_ui.rel
                                          [ vm_ui ]
C:/Users/f_bes/AppData/Local/Temp/_gbsbuild/obj/vm.rel
                                          [ vm ]
C:/Users/f_bes/AppData/Local/Temp/_gbsbuild/obj/actor_1_interact.rel
                                          [ actor_1_interact ]
C:/Users/f_bes/AppData/Local/Temp/_gbsbuild/obj/actor_10_interact.rel
                                          [ actor_10_interact ]
C:/Users/f_bes/AppData/Local/Temp/_gbsbuild/obj/actor_11_interact.rel
                                          [ actor_11_interact ]
C:/Users/f_bes/AppData/Local/Temp/_gbsbuild/obj/actor_12_interact.rel
                                          [ actor_12_interact ]
C:/Users/f_bes/AppData/Local/Temp/_gbsbuild/obj/actor_13_interact.rel
                                          [ actor_13_interact ]
C:/Users/f_bes/AppData/Local/Temp/_gbsbuild/obj/actor_14_interact.rel
                                          [ actor_14_interact ]
C:/Users/f_bes/AppData/Local/Temp/_gbsbuild/obj/actor_15_interact.rel
                                          [ actor_15_interact ]
C:/Users/f_bes/AppData/Local/Temp/_gbsbuild/obj/actor_16_interact.rel
                                          [ actor_16_interact ]
C:/Users/f_bes/AppData/Local/Temp/_gbsbuild/obj/actor_17_interact.rel
                                          [ actor_17_interact ]
C:/Users/f_bes/AppData/Local/Temp/_gbsbuild/obj/actor_18_interact.rel
                                          [ actor_18_interact ]
C:/Users/f_bes/AppData/Local/Temp/_gbsbuild/obj/actor_19_interact.rel
                                          [ actor_19_interact ]
C:/Users/f_bes/AppData/Local/Temp/_gbsbuild/obj/actor_20_interact.rel
                                          [ actor_20_interact ]
C:/Users/f_bes/AppData/Local/Temp/_gbsbuild/obj/actor_21_interact.rel
                                          [ actor_21_interact ]
C:/Users/f_bes/AppData/Local/Temp/_gbsbuild/obj/actor_23_interact.rel
                                          [ actor_23_interact ]
C:/Users/f_bes/AppData/Local/Temp/_gbsbuild/obj/actor_3_interact.rel
                                          [ actor_3_interact ]
C:/Users/f_bes/AppData/Local/Temp/_gbsbuild/obj/actor_31_interact.rel
                                          [ actor_31_interact ]
C:/Users/f_bes/AppData/Local/Temp/_gbsbuild/obj/actor_32_interact.rel
                                          [ actor_32_interact ]
C:/Users/f_bes/AppData/Local/Temp/_gbsbuild/obj/actor_33_interact.rel
                                          [ actor_33_interact ]
C:/Users/f_bes/AppData/Local/Temp/_gbsbuild/obj/actor_34_interact.rel
                                          [ actor_34_interact ]
C:/Users/f_bes/AppData/Local/Temp/_gbsbuild/obj/actor_37_interact.rel
                                          [ actor_37_interact ]
C:/Users/f_bes/AppData/Local/Temp/_gbsbuild/obj/actor_52_interact.rel
                                          [ actor_52_interact ]
C:/Users/f_bes/AppData/Local/Temp/_gbsbuild/obj/actor_55_interact.rel
                                          [ actor_55_interact ]
C:/Users/f_bes/AppData/Local/Temp/_gbsbuild/obj/actor_56_interact.rel
                                          [ actor_56_interact ]
C:/Users/f_bes/AppData/Local/Temp/_gbsbuild/obj/actor_57_interact.rel
                                          [ actor_57_interact ]
C:/Users/f_bes/AppData/Local/Temp/_gbsbuild/obj/actor_58_interact.rel
                                          [ actor_58_interact ]
C:/Users/f_bes/AppData/Local/Temp/_gbsbuild/obj/actor_59_interact.rel
                                          [ actor_59_interact ]
C:/Users/f_bes/AppData/Local/Temp/_gbsbuild/obj/actor_62_interact.rel
                                          [ actor_62_interact ]
C:/Users/f_bes/AppData/Local/Temp/_gbsbuild/obj/actor_67_interact.rel
                                          [ actor_67_interact ]
C:/Users/f_bes/AppData/Local/Temp/_gbsbuild/obj/actor_70_interact.rel
                                          [ actor_70_interact ]
C:/Users/f_bes/AppData/Local/Temp/_gbsbuild/obj/actor_73_interact.rel
                                          [ actor_73_interact ]
C:/Users/f_bes/AppData/Local/Temp/_gbsbuild/obj/actor_78_interact.rel
                                          [ actor_78_interact ]
C:/Users/f_bes/AppData/Local/Temp/_gbsbuild/obj/actor_79_interact.rel
                                          [ actor_79_interact ]
C:/Users/f_bes/AppData/Local/Temp/_gbsbuild/obj/actor_84_interact.rel
                                          [ actor_84_interact ]
C:/Users/f_bes/AppData/Local/Temp/_gbsbuild/obj/actor_85_interact.rel
                                          [ actor_85_interact ]
C:/Users/f_bes/AppData/Local/Temp/_gbsbuild/obj/actor_9_interact.rel
                                          [ actor_9_interact ]
C:/Users/f_bes/AppData/Local/Temp/_gbsbuild/obj/bg_10_tilemap_attr.rel
                                          [ bg_10_tilemap_attr ]
C:/Users/f_bes/AppData/Local/Temp/_gbsbuild/obj/bg_10_tilemap.rel
                                          [ bg_10_tilemap ]
C:/Users/f_bes/AppData/Local/Temp/_gbsbuild/obj/bg_10_tileset.rel
                                          [ bg_10_tileset ]
C:/Users/f_bes/AppData/Local/Temp/_gbsbuild/obj/bg_10.rel
                                          [ bg_10 ]
C:/Users/f_bes/AppData/Local/Temp/_gbsbuild/obj/bg_2_tilemap_attr.rel
                                          [ bg_2_tilemap_attr ]
C:/Users/f_bes/AppData/Local/Temp/_gbsbuild/obj/bg_2_tilemap.rel
                                          [ bg_2_tilemap ]
C:/Users/f_bes/AppData/Local/Temp/_gbsbuild/obj/bg_2_tileset.rel
                                          [ bg_2_tileset ]
C:/Users/f_bes/AppData/Local/Temp/_gbsbuild/obj/bg_2.rel
                                          [ bg_2 ]
C:/Users/f_bes/AppData/Local/Temp/_gbsbuild/obj/bg_3_tilemap_attr.rel
                                          [ bg_3_tilemap_attr ]
C:/Users/f_bes/AppData/Local/Temp/_gbsbuild/obj/bg_3_tilemap.rel
                                          [ bg_3_tilemap ]
C:/Users/f_bes/AppData/Local/Temp/_gbsbuild/obj/bg_3_tileset.rel
                                          [ bg_3_tileset ]
C:/Users/f_bes/AppData/Local/Temp/_gbsbuild/obj/bg_3.rel
                                          [ bg_3 ]
C:/Users/f_bes/AppData/Local/Temp/_gbsbuild/obj/bg_4_tilemap_attr.rel
                                          [ bg_4_tilemap_attr ]
C:/Users/f_bes/AppData/Local/Temp/_gbsbuild/obj/bg_4_tilemap.rel
                                          [ bg_4_tilemap ]
C:/Users/f_bes/AppData/Local/Temp/_gbsbuild/obj/bg_4_tileset.rel
                                          [ bg_4_tileset ]
C:/Users/f_bes/AppData/Local/Temp/_gbsbuild/obj/bg_4.rel
                                          [ bg_4 ]
C:/Users/f_bes/AppData/Local/Temp/_gbsbuild/obj/bg_5_tilemap_attr.rel
                                          [ bg_5_tilemap_attr ]
C:/Users/f_bes/AppData/Local/Temp/_gbsbuild/obj/bg_5_tilemap.rel
                                          [ bg_5_tilemap ]
C:/Users/f_bes/AppData/Local/Temp/_gbsbuild/obj/bg_5_tileset.rel
                                          [ bg_5_tileset ]
C:/Users/f_bes/AppData/Local/Temp/_gbsbuild/obj/bg_5.rel
                                          [ bg_5 ]
C:/Users/f_bes/AppData/Local/Temp/_gbsbuild/obj/bg_6_1__tilemap_attr.rel
                                          [ bg_6_1__tilemap_attr ]
C:/Users/f_bes/AppData/Local/Temp/_gbsbuild/obj/bg_6_1__tilemap.rel
                                          [ bg_6_1__tilemap ]
C:/Users/f_bes/AppData/Local/Temp/_gbsbuild/obj/bg_6_1__tileset.rel
                                          [ bg_6_1__tileset ]
C:/Users/f_bes/AppData/Local/Temp/_gbsbuild/obj/bg_6_1_.rel
                                          [ bg_6_1_ ]
C:/Users/f_bes/AppData/Local/Temp/_gbsbuild/obj/bg_6_tilemap_attr.rel
                                          [ bg_6_tilemap_attr ]
C:/Users/f_bes/AppData/Local/Temp/_gbsbuild/obj/bg_6_tilemap.rel
                                          [ bg_6_tilemap ]
C:/Users/f_bes/AppData/Local/Temp/_gbsbuild/obj/bg_6_tileset.rel
                                          [ bg_6_tileset ]
C:/Users/f_bes/AppData/Local/Temp/_gbsbuild/obj/bg_6.rel
                                          [ bg_6 ]
C:/Users/f_bes/AppData/Local/Temp/_gbsbuild/obj/bg_7_tilemap_attr.rel
                                          [ bg_7_tilemap_attr ]
C:/Users/f_bes/AppData/Local/Temp/_gbsbuild/obj/bg_7_tilemap.rel
                                          [ bg_7_tilemap ]
C:/Users/f_bes/AppData/Local/Temp/_gbsbuild/obj/bg_7_tileset.rel
                                          [ bg_7_tileset ]
C:/Users/f_bes/AppData/Local/Temp/_gbsbuild/obj/bg_7.rel
                                          [ bg_7 ]
C:/Users/f_bes/AppData/Local/Temp/_gbsbuild/obj/bg_8_tilemap_attr.rel
                                          [ bg_8_tilemap_attr ]
C:/Users/f_bes/AppData/Local/Temp/_gbsbuild/obj/bg_8_tilemap.rel
                                          [ bg_8_tilemap ]
C:/Users/f_bes/AppData/Local/Temp/_gbsbuild/obj/bg_8_tileset.rel
                                          [ bg_8_tileset ]
C:/Users/f_bes/AppData/Local/Temp/_gbsbuild/obj/bg_8.rel
                                          [ bg_8 ]
C:/Users/f_bes/AppData/Local/Temp/_gbsbuild/obj/bg_9_1__tilemap_attr.rel
                                          [ bg_9_1__tilemap_attr ]
C:/Users/f_bes/AppData/Local/Temp/_gbsbuild/obj/bg_9_1__tilemap.rel
                                          [ bg_9_1__tilemap ]
C:/Users/f_bes/AppData/Local/Temp/_gbsbuild/obj/bg_9_1__tileset.rel
                                          [ bg_9_1__tileset ]
C:/Users/f_bes/AppData/Local/Temp/_gbsbuild/obj/bg_9_1_.rel
                                          [ bg_9_1_ ]
C:/Users/f_bes/AppData/Local/Temp/_gbsbuild/obj/bg_9_tilemap_attr.rel
                                          [ bg_9_tilemap_attr ]
C:/Users/f_bes/AppData/Local/Temp/_gbsbuild/obj/bg_9_tilemap.rel
                                          [ bg_9_tilemap ]
C:/Users/f_bes/AppData/Local/Temp/_gbsbuild/obj/bg_9_tileset.rel
                                          [ bg_9_tileset ]
C:/Users/f_bes/AppData/Local/Temp/_gbsbuild/obj/bg_9.rel
                                          [ bg_9 ]
C:/Users/f_bes/AppData/Local/Temp/_gbsbuild/obj/bg_avcclaude_tilemap_attr.rel
                                          [ bg_avcclaude_tilemap_attr ]
C:/Users/f_bes/AppData/Local/Temp/_gbsbuild/obj/bg_avcclaude_tilemap.rel
                                          [ bg_avcclaude_tilemap ]
C:/Users/f_bes/AppData/Local/Temp/_gbsbuild/obj/bg_avcclaude_tileset.rel
                                          [ bg_avcclaude_tileset ]
C:/Users/f_bes/AppData/Local/Temp/_gbsbuild/obj/bg_avcclaude.rel
                                          [ bg_avcclaude ]
C:/Users/f_bes/AppData/Local/Temp/_gbsbuild/obj/bg_b0027_copie_tilemap_attr.rel
                                          [ bg_b0027_copie_tilemap_attr ]
C:/Users/f_bes/AppData/Local/Temp/_gbsbuild/obj/bg_b0027_copie_tilemap.rel
                                          [ bg_b0027_copie_tilemap ]
C:/Users/f_bes/AppData/Local/Temp/_gbsbuild/obj/bg_b0027_copie_tileset.rel
                                          [ bg_b0027_copie_tileset ]
C:/Users/f_bes/AppData/Local/Temp/_gbsbuild/obj/bg_b0027_copie.rel
                                          [ bg_b0027_copie ]
C:/Users/f_bes/AppData/Local/Temp/_gbsbuild/obj/bg_black_copie_tilemap_attr.rel
                                          [ bg_black_copie_tilemap_attr ]
C:/Users/f_bes/AppData/Local/Temp/_gbsbuild/obj/bg_black_copie_tilemap.rel
                                          [ bg_black_copie_tilemap ]
C:/Users/f_bes/AppData/Local/Temp/_gbsbuild/obj/bg_black_copie_tileset.rel
                                          [ bg_black_copie_tileset ]
C:/Users/f_bes/AppData/Local/Temp/_gbsbuild/obj/bg_black_copie.rel
                                          [ bg_black_copie ]
C:/Users/f_bes/AppData/Local/Temp/_gbsbuild/obj/bg_black_tilemap_attr.rel
                                          [ bg_black_tilemap_attr ]
C:/Users/f_bes/AppData/Local/Temp/_gbsbuild/obj/bg_black_tilemap.rel
                                          [ bg_black_tilemap ]
C:/Users/f_bes/AppData/Local/Temp/_gbsbuild/obj/bg_black_tileset.rel
                                          [ bg_black_tileset ]
C:/Users/f_bes/AppData/Local/Temp/_gbsbuild/obj/bg_black.rel
                                          [ bg_black ]
C:/Users/f_bes/AppData/Local/Temp/_gbsbuild/obj/bg_blackdoor_tilemap_attr.rel
                                          [ bg_blackdoor_tilemap_attr ]
C:/Users/f_bes/AppData/Local/Temp/_gbsbuild/obj/bg_blackdoor_tilemap.rel
                                          [ bg_blackdoor_tilemap ]
C:/Users/f_bes/AppData/Local/Temp/_gbsbuild/obj/bg_blackdoor_tileset.rel
                                          [ bg_blackdoor_tileset ]
C:/Users/f_bes/AppData/Local/Temp/_gbsbuild/obj/bg_blackdoor.rel
                                          [ bg_blackdoor ]
C:/Users/f_bes/AppData/Local/Temp/_gbsbuild/obj/bg_castle_town_map2_tilemap_attr.rel
                                          [ bg_castle_town_map2_tilemap_attr ]
C:/Users/f_bes/AppData/Local/Temp/_gbsbuild/obj/bg_castle_town_map2_tilemap.rel
                                          [ bg_castle_town_map2_tilemap ]
C:/Users/f_bes/AppData/Local/Temp/_gbsbuild/obj/bg_castle_town_map2_tileset.rel
                                          [ bg_castle_town_map2_tileset ]
C:/Users/f_bes/AppData/Local/Temp/_gbsbuild/obj/bg_castle_town_map2.rel
                                          [ bg_castle_town_map2 ]
C:/Users/f_bes/AppData/Local/Temp/_gbsbuild/obj/bg_castle_town_tilemap_attr.rel
                                          [ bg_castle_town_tilemap_attr ]
C:/Users/f_bes/AppData/Local/Temp/_gbsbuild/obj/bg_castle_town_tilemap.rel
                                          [ bg_castle_town_tilemap ]
C:/Users/f_bes/AppData/Local/Temp/_gbsbuild/obj/bg_castle_town_tileset.rel
                                          [ bg_castle_town_tileset ]
C:/Users/f_bes/AppData/Local/Temp/_gbsbuild/obj/bg_castle_town.rel
                                          [ bg_castle_town ]
C:/Users/f_bes/AppData/Local/Temp/_gbsbuild/obj/bg_chamberkriso2_tilemap_attr.rel
                                          [ bg_chamberkriso2_tilemap_attr ]
C:/Users/f_bes/AppData/Local/Temp/_gbsbuild/obj/bg_chamberkriso2_tilemap.rel
                                          [ bg_chamberkriso2_tilemap ]
C:/Users/f_bes/AppData/Local/Temp/_gbsbuild/obj/bg_chamberkriso2_tileset.rel
                                          [ bg_chamberkriso2_tileset ]
C:/Users/f_bes/AppData/Local/Temp/_gbsbuild/obj/bg_chamberkriso2.rel
                                          [ bg_chamberkriso2 ]
C:/Users/f_bes/AppData/Local/Temp/_gbsbuild/obj/bg_city1_tilemap_attr.rel
                                          [ bg_city1_tilemap_attr ]
C:/Users/f_bes/AppData/Local/Temp/_gbsbuild/obj/bg_city1_tilemap.rel
                                          [ bg_city1_tilemap ]
C:/Users/f_bes/AppData/Local/Temp/_gbsbuild/obj/bg_city1_tileset.rel
                                          [ bg_city1_tileset ]
C:/Users/f_bes/AppData/Local/Temp/_gbsbuild/obj/bg_city1.rel
                                          [ bg_city1 ]
C:/Users/f_bes/AppData/Local/Temp/_gbsbuild/obj/bg_city2_tilemap_attr.rel
                                          [ bg_city2_tilemap_attr ]
C:/Users/f_bes/AppData/Local/Temp/_gbsbuild/obj/bg_city2_tilemap.rel
                                          [ bg_city2_tilemap ]
C:/Users/f_bes/AppData/Local/Temp/_gbsbuild/obj/bg_city2_tileset.rel
                                          [ bg_city2_tileset ]
C:/Users/f_bes/AppData/Local/Temp/_gbsbuild/obj/bg_city2.rel
                                          [ bg_city2 ]
C:/Users/f_bes/AppData/Local/Temp/_gbsbuild/obj/bg_dogchecksavedata_copie_0_tilemap_attr.rel
                                          [ bg_dogchecksavedata_copie_0_tile ]
C:/Users/f_bes/AppData/Local/Temp/_gbsbuild/obj/bg_dogchecksavedata_copie_0_tilemap.rel
                                          [ bg_dogchecksavedata_copie_0_tile ]
C:/Users/f_bes/AppData/Local/Temp/_gbsbuild/obj/bg_dogchecksavedata_copie_0_tileset.rel
                                          [ bg_dogchecksavedata_copie_0_tile ]
C:/Users/f_bes/AppData/Local/Temp/_gbsbuild/obj/bg_dogchecksavedata_copie_0.rel
                                          [ bg_dogchecksavedata_copie_0 ]
C:/Users/f_bes/AppData/Local/Temp/_gbsbuild/obj/bg_dogchecksavedata_copie_tilemap_attr.rel
                                          [ bg_dogchecksavedata_copie_tilema ]
C:/Users/f_bes/AppData/Local/Temp/_gbsbuild/obj/bg_dogchecksavedata_copie_tilemap.rel
                                          [ bg_dogchecksavedata_copie_tilema ]
C:/Users/f_bes/AppData/Local/Temp/_gbsbuild/obj/bg_dogchecksavedata_copie_tileset.rel
                                          [ bg_dogchecksavedata_copie_tilese ]
C:/Users/f_bes/AppData/Local/Temp/_gbsbuild/obj/bg_dogchecksavedata_copie.rel
                                          [ bg_dogchecksavedata_copie ]
C:/Users/f_bes/AppData/Local/Temp/_gbsbuild/obj/bg_dogchecksavedata_tilemap_attr.rel
                                          [ bg_dogchecksavedata_tilemap_attr ]
C:/Users/f_bes/AppData/Local/Temp/_gbsbuild/obj/bg_dogchecksavedata_tilemap.rel
                                          [ bg_dogchecksavedata_tilemap ]
C:/Users/f_bes/AppData/Local/Temp/_gbsbuild/obj/bg_dogchecksavedata_tileset.rel
                                          [ bg_dogchecksavedata_tileset ]
C:/Users/f_bes/AppData/Local/Temp/_gbsbuild/obj/bg_dogchecksavedata.rel
                                          [ bg_dogchecksavedata ]
C:/Users/f_bes/AppData/Local/Temp/_gbsbuild/obj/bg_exterior_tilemap_attr.rel
                                          [ bg_exterior_tilemap_attr ]
C:/Users/f_bes/AppData/Local/Temp/_gbsbuild/obj/bg_exterior_tilemap.rel
                                          [ bg_exterior_tilemap ]
C:/Users/f_bes/AppData/Local/Temp/_gbsbuild/obj/bg_exterior_tileset.rel
                                          [ bg_exterior_tileset ]
C:/Users/f_bes/AppData/Local/Temp/_gbsbuild/obj/bg_exterior.rel
                                          [ bg_exterior ]
C:/Users/f_bes/AppData/Local/Temp/_gbsbuild/obj/bg_fountaincastle_tilemap_attr.rel
                                          [ bg_fountaincastle_tilemap_attr ]
C:/Users/f_bes/AppData/Local/Temp/_gbsbuild/obj/bg_fountaincastle_tilemap.rel
                                          [ bg_fountaincastle_tilemap ]
C:/Users/f_bes/AppData/Local/Temp/_gbsbuild/obj/bg_fountaincastle_tileset.rel
                                          [ bg_fountaincastle_tileset ]
C:/Users/f_bes/AppData/Local/Temp/_gbsbuild/obj/bg_fountaincastle.rel
                                          [ bg_fountaincastle ]
C:/Users/f_bes/AppData/Local/Temp/_gbsbuild/obj/bg_gameover_tilemap_attr.rel
                                          [ bg_gameover_tilemap_attr ]
C:/Users/f_bes/AppData/Local/Temp/_gbsbuild/obj/bg_gameover_tilemap.rel
                                          [ bg_gameover_tilemap ]
C:/Users/f_bes/AppData/Local/Temp/_gbsbuild/obj/bg_gameover_tileset.rel
                                          [ bg_gameover_tileset ]
C:/Users/f_bes/AppData/Local/Temp/_gbsbuild/obj/bg_gameover.rel
                                          [ bg_gameover ]
C:/Users/f_bes/AppData/Local/Temp/_gbsbuild/obj/bg_kris_s_tilemap_attr.rel
                                          [ bg_kris_s_tilemap_attr ]
C:/Users/f_bes/AppData/Local/Temp/_gbsbuild/obj/bg_kris_s_tilemap.rel
                                          [ bg_kris_s_tilemap ]
C:/Users/f_bes/AppData/Local/Temp/_gbsbuild/obj/bg_kris_s_tileset.rel
                                          [ bg_kris_s_tileset ]
C:/Users/f_bes/AppData/Local/Temp/_gbsbuild/obj/bg_kris_s.rel
                                          [ bg_kris_s ]
C:/Users/f_bes/AppData/Local/Temp/_gbsbuild/obj/bg_kris_ss_tilemap_attr.rel
                                          [ bg_kris_ss_tilemap_attr ]
C:/Users/f_bes/AppData/Local/Temp/_gbsbuild/obj/bg_kris_ss_tilemap.rel
                                          [ bg_kris_ss_tilemap ]
C:/Users/f_bes/AppData/Local/Temp/_gbsbuild/obj/bg_kris_ss_tileset.rel
                                          [ bg_kris_ss_tileset ]
C:/Users/f_bes/AppData/Local/Temp/_gbsbuild/obj/bg_kris_ss.rel
                                          [ bg_kris_ss ]
C:/Users/f_bes/AppData/Local/Temp/_gbsbuild/obj/bg_krislegend_tilemap_attr.rel
                                          [ bg_krislegend_tilemap_attr ]
C:/Users/f_bes/AppData/Local/Temp/_gbsbuild/obj/bg_krislegend_tilemap.rel
                                          [ bg_krislegend_tilemap ]
C:/Users/f_bes/AppData/Local/Temp/_gbsbuild/obj/bg_krislegend_tileset.rel
                                          [ bg_krislegend_tileset ]
C:/Users/f_bes/AppData/Local/Temp/_gbsbuild/obj/bg_krislegend.rel
                                          [ bg_krislegend ]
C:/Users/f_bes/AppData/Local/Temp/_gbsbuild/obj/bg_legend1d_tilemap_attr.rel
                                          [ bg_legend1d_tilemap_attr ]
C:/Users/f_bes/AppData/Local/Temp/_gbsbuild/obj/bg_legend1d_tilemap.rel
                                          [ bg_legend1d_tilemap ]
C:/Users/f_bes/AppData/Local/Temp/_gbsbuild/obj/bg_legend1d_tileset.rel
                                          [ bg_legend1d_tileset ]
C:/Users/f_bes/AppData/Local/Temp/_gbsbuild/obj/bg_legend1d.rel
                                          [ bg_legend1d ]
C:/Users/f_bes/AppData/Local/Temp/_gbsbuild/obj/bg_legend2_tilemap_attr.rel
                                          [ bg_legend2_tilemap_attr ]
C:/Users/f_bes/AppData/Local/Temp/_gbsbuild/obj/bg_legend2_tilemap.rel
                                          [ bg_legend2_tilemap ]
C:/Users/f_bes/AppData/Local/Temp/_gbsbuild/obj/bg_legend2_tileset.rel
                                          [ bg_legend2_tileset ]
C:/Users/f_bes/AppData/Local/Temp/_gbsbuild/obj/bg_legend2.rel
                                          [ bg_legend2 ]
C:/Users/f_bes/AppData/Local/Temp/_gbsbuild/obj/bg_legend3_tilemap_attr.rel
                                          [ bg_legend3_tilemap_attr ]
C:/Users/f_bes/AppData/Local/Temp/_gbsbuild/obj/bg_legend3_tilemap.rel
                                          [ bg_legend3_tilemap ]
C:/Users/f_bes/AppData/Local/Temp/_gbsbuild/obj/bg_legend3_tileset.rel
                                          [ bg_legend3_tileset ]
C:/Users/f_bes/AppData/Local/Temp/_gbsbuild/obj/bg_legend3.rel
                                          [ bg_legend3 ]
C:/Users/f_bes/AppData/Local/Temp/_gbsbuild/obj/bg_legend4_tilemap_attr.rel
                                          [ bg_legend4_tilemap_attr ]
C:/Users/f_bes/AppData/Local/Temp/_gbsbuild/obj/bg_legend4_tilemap.rel
                                          [ bg_legend4_tilemap ]
C:/Users/f_bes/AppData/Local/Temp/_gbsbuild/obj/bg_legend4_tileset.rel
                                          [ bg_legend4_tileset ]
C:/Users/f_bes/AppData/Local/Temp/_gbsbuild/obj/bg_legend4.rel
                                          [ bg_legend4 ]
C:/Users/f_bes/AppData/Local/Temp/_gbsbuild/obj/bg_legend5d_tilemap_attr.rel
                                          [ bg_legend5d_tilemap_attr ]
C:/Users/f_bes/AppData/Local/Temp/_gbsbuild/obj/bg_legend5d_tilemap.rel
                                          [ bg_legend5d_tilemap ]
C:/Users/f_bes/AppData/Local/Temp/_gbsbuild/obj/bg_legend5d_tileset.rel
                                          [ bg_legend5d_tileset ]
C:/Users/f_bes/AppData/Local/Temp/_gbsbuild/obj/bg_legend5d.rel
                                          [ bg_legend5d ]
C:/Users/f_bes/AppData/Local/Temp/_gbsbuild/obj/bg_legend6d_tilemap_attr.rel
                                          [ bg_legend6d_tilemap_attr ]
C:/Users/f_bes/AppData/Local/Temp/_gbsbuild/obj/bg_legend6d_tilemap.rel
                                          [ bg_legend6d_tilemap ]
C:/Users/f_bes/AppData/Local/Temp/_gbsbuild/obj/bg_legend6d_tileset.rel
                                          [ bg_legend6d_tileset ]
C:/Users/f_bes/AppData/Local/Temp/_gbsbuild/obj/bg_legend6d.rel
                                          [ bg_legend6d ]
C:/Users/f_bes/AppData/Local/Temp/_gbsbuild/obj/bg_legend7f_tilemap_attr.rel
                                          [ bg_legend7f_tilemap_attr ]
C:/Users/f_bes/AppData/Local/Temp/_gbsbuild/obj/bg_legend7f_tilemap.rel
                                          [ bg_legend7f_tilemap ]
C:/Users/f_bes/AppData/Local/Temp/_gbsbuild/obj/bg_legend7f_tileset.rel
                                          [ bg_legend7f_tileset ]
C:/Users/f_bes/AppData/Local/Temp/_gbsbuild/obj/bg_legend7f.rel
                                          [ bg_legend7f ]
C:/Users/f_bes/AppData/Local/Temp/_gbsbuild/obj/bg_legendsealfountain_tilemap_attr.rel
                                          [ bg_legendsealfountain_tilemap_at ]
C:/Users/f_bes/AppData/Local/Temp/_gbsbuild/obj/bg_legendsealfountain_tilemap.rel
                                          [ bg_legendsealfountain_tilemap ]
C:/Users/f_bes/AppData/Local/Temp/_gbsbuild/obj/bg_legendsealfountain_tileset.rel
                                          [ bg_legendsealfountain_tileset ]
C:/Users/f_bes/AppData/Local/Temp/_gbsbuild/obj/bg_legendsealfountain.rel
                                          [ bg_legendsealfountain ]
C:/Users/f_bes/AppData/Local/Temp/_gbsbuild/obj/bg_new_piskel_43__tilemap_attr.rel
                                          [ bg_new_piskel_43__tilemap_attr ]
C:/Users/f_bes/AppData/Local/Temp/_gbsbuild/obj/bg_new_piskel_43__tilemap.rel
                                          [ bg_new_piskel_43__tilemap ]
C:/Users/f_bes/AppData/Local/Temp/_gbsbuild/obj/bg_new_piskel_43__tileset.rel
                                          [ bg_new_piskel_43__tileset ]
C:/Users/f_bes/AppData/Local/Temp/_gbsbuild/obj/bg_new_piskel_43_.rel
                                          [ bg_new_piskel_43_ ]
C:/Users/f_bes/AppData/Local/Temp/_gbsbuild/obj/bg_quelesttonnom_copie_tilemap_attr.rel
                                          [ bg_quelesttonnom_copie_tilemap_a ]
C:/Users/f_bes/AppData/Local/Temp/_gbsbuild/obj/bg_quelesttonnom_copie_tilemap.rel
                                          [ bg_quelesttonnom_copie_tilemap ]
C:/Users/f_bes/AppData/Local/Temp/_gbsbuild/obj/bg_quelesttonnom_copie_tileset.rel
                                          [ bg_quelesttonnom_copie_tileset ]
C:/Users/f_bes/AppData/Local/Temp/_gbsbuild/obj/bg_quelesttonnom_copie.rel
                                          [ bg_quelesttonnom_copie ]
C:/Users/f_bes/AppData/Local/Temp/_gbsbuild/obj/bg_quelesttonnom_tilemap_attr.rel
                                          [ bg_quelesttonnom_tilemap_attr ]
C:/Users/f_bes/AppData/Local/Temp/_gbsbuild/obj/bg_quelesttonnom_tilemap.rel
                                          [ bg_quelesttonnom_tilemap ]
C:/Users/f_bes/AppData/Local/Temp/_gbsbuild/obj/bg_quelesttonnom_tileset.rel
                                          [ bg_quelesttonnom_tileset ]
C:/Users/f_bes/AppData/Local/Temp/_gbsbuild/obj/bg_quelesttonnom.rel
                                          [ bg_quelesttonnom ]
C:/Users/f_bes/AppData/Local/Temp/_gbsbuild/obj/bg_ralseilegend_tilemap_attr.rel
                                          [ bg_ralseilegend_tilemap_attr ]
C:/Users/f_bes/AppData/Local/Temp/_gbsbuild/obj/bg_ralseilegend_tilemap.rel
                                          [ bg_ralseilegend_tilemap ]
C:/Users/f_bes/AppData/Local/Temp/_gbsbuild/obj/bg_ralseilegend_tileset.rel
                                          [ bg_ralseilegend_tileset ]
C:/Users/f_bes/AppData/Local/Temp/_gbsbuild/obj/bg_ralseilegend.rel
                                          [ bg_ralseilegend ]
C:/Users/f_bes/AppData/Local/Temp/_gbsbuild/obj/bg_room_tilemap_attr.rel
                                          [ bg_room_tilemap_attr ]
C:/Users/f_bes/AppData/Local/Temp/_gbsbuild/obj/bg_room_tilemap.rel
                                          [ bg_room_tilemap ]
C:/Users/f_bes/AppData/Local/Temp/_gbsbuild/obj/bg_room_tileset.rel
                                          [ bg_room_tileset ]
C:/Users/f_bes/AppData/Local/Temp/_gbsbuild/obj/bg_room.rel
                                          [ bg_room ]
C:/Users/f_bes/AppData/Local/Temp/_gbsbuild/obj/bg_schoolcorridor1_tilemap_attr.rel
                                          [ bg_schoolcorridor1_tilemap_attr ]
C:/Users/f_bes/AppData/Local/Temp/_gbsbuild/obj/bg_schoolcorridor1_tilemap.rel
                                          [ bg_schoolcorridor1_tilemap ]
C:/Users/f_bes/AppData/Local/Temp/_gbsbuild/obj/bg_schoolcorridor1_tileset.rel
                                          [ bg_schoolcorridor1_tileset ]
C:/Users/f_bes/AppData/Local/Temp/_gbsbuild/obj/bg_schoolcorridor1.rel
                                          [ bg_schoolcorridor1 ]
C:/Users/f_bes/AppData/Local/Temp/_gbsbuild/obj/bg_schoolext_tilemap_attr.rel
                                          [ bg_schoolext_tilemap_attr ]
C:/Users/f_bes/AppData/Local/Temp/_gbsbuild/obj/bg_schoolext_tilemap.rel
                                          [ bg_schoolext_tilemap ]
C:/Users/f_bes/AppData/Local/Temp/_gbsbuild/obj/bg_schoolext_tileset.rel
                                          [ bg_schoolext_tileset ]
C:/Users/f_bes/AppData/Local/Temp/_gbsbuild/obj/bg_schoolext.rel
                                          [ bg_schoolext ]
C:/Users/f_bes/AppData/Local/Temp/_gbsbuild/obj/bg_schoolint_tilemap_attr.rel
                                          [ bg_schoolint_tilemap_attr ]
C:/Users/f_bes/AppData/Local/Temp/_gbsbuild/obj/bg_schoolint_tilemap.rel
                                          [ bg_schoolint_tilemap ]
C:/Users/f_bes/AppData/Local/Temp/_gbsbuild/obj/bg_schoolint_tileset.rel
                                          [ bg_schoolint_tileset ]
C:/Users/f_bes/AppData/Local/Temp/_gbsbuild/obj/bg_schoolint.rel
                                          [ bg_schoolint ]
C:/Users/f_bes/AppData/Local/Temp/_gbsbuild/obj/bg_secoundfountain_tilemap_attr.rel
                                          [ bg_secoundfountain_tilemap_attr ]
C:/Users/f_bes/AppData/Local/Temp/_gbsbuild/obj/bg_secoundfountain_tilemap.rel
                                          [ bg_secoundfountain_tilemap ]
C:/Users/f_bes/AppData/Local/Temp/_gbsbuild/obj/bg_secoundfountain_tileset.rel
                                          [ bg_secoundfountain_tileset ]
C:/Users/f_bes/AppData/Local/Temp/_gbsbuild/obj/bg_secoundfountain.rel
                                          [ bg_secoundfountain ]
C:/Users/f_bes/AppData/Local/Temp/_gbsbuild/obj/bg_susielegend_tilemap_attr.rel
                                          [ bg_susielegend_tilemap_attr ]
C:/Users/f_bes/AppData/Local/Temp/_gbsbuild/obj/bg_susielegend_tilemap.rel
                                          [ bg_susielegend_tilemap ]
C:/Users/f_bes/AppData/Local/Temp/_gbsbuild/obj/bg_susielegend_tileset.rel
                                          [ bg_susielegend_tileset ]
C:/Users/f_bes/AppData/Local/Temp/_gbsbuild/obj/bg_susielegend.rel
                                          [ bg_susielegend ]
C:/Users/f_bes/AppData/Local/Temp/_gbsbuild/obj/bg_the_castle_copie_tilemap_attr.rel
                                          [ bg_the_castle_copie_tilemap_attr ]
C:/Users/f_bes/AppData/Local/Temp/_gbsbuild/obj/bg_the_castle_copie_tilemap.rel
                                          [ bg_the_castle_copie_tilemap ]
C:/Users/f_bes/AppData/Local/Temp/_gbsbuild/obj/bg_the_castle_copie_tileset.rel
                                          [ bg_the_castle_copie_tileset ]
C:/Users/f_bes/AppData/Local/Temp/_gbsbuild/obj/bg_the_castle_copie.rel
                                          [ bg_the_castle_copie ]
C:/Users/f_bes/AppData/Local/Temp/_gbsbuild/obj/bg_thetle_tilemap_attr.rel
                                          [ bg_thetle_tilemap_attr ]
C:/Users/f_bes/AppData/Local/Temp/_gbsbuild/obj/bg_thetle_tilemap.rel
                                          [ bg_thetle_tilemap ]
C:/Users/f_bes/AppData/Local/Temp/_gbsbuild/obj/bg_thetle_tileset.rel
                                          [ bg_thetle_tileset ]
C:/Users/f_bes/AppData/Local/Temp/_gbsbuild/obj/bg_thetle.rel
                                          [ bg_thetle ]
C:/Users/f_bes/AppData/Local/Temp/_gbsbuild/obj/bg_title_tilemap_attr.rel
                                          [ bg_title_tilemap_attr ]
C:/Users/f_bes/AppData/Local/Temp/_gbsbuild/obj/bg_title_tilemap.rel
                                          [ bg_title_tilemap ]
C:/Users/f_bes/AppData/Local/Temp/_gbsbuild/obj/bg_title_tileset.rel
                                          [ bg_title_tileset ]
C:/Users/f_bes/AppData/Local/Temp/_gbsbuild/obj/bg_title.rel
                                          [ bg_title ]
C:/Users/f_bes/AppData/Local/Temp/_gbsbuild/obj/bg_toilet_tilemap_attr.rel
                                          [ bg_toilet_tilemap_attr ]
C:/Users/f_bes/AppData/Local/Temp/_gbsbuild/obj/bg_toilet_tilemap.rel
                                          [ bg_toilet_tilemap ]
C:/Users/f_bes/AppData/Local/Temp/_gbsbuild/obj/bg_toilet_tileset.rel
                                          [ bg_toilet_tileset ]
C:/Users/f_bes/AppData/Local/Temp/_gbsbuild/obj/bg_toilet.rel
                                          [ bg_toilet ]
C:/Users/f_bes/AppData/Local/Temp/_gbsbuild/obj/bg_toilet2_tilemap_attr.rel
                                          [ bg_toilet2_tilemap_attr ]
C:/Users/f_bes/AppData/Local/Temp/_gbsbuild/obj/bg_toilet2_tilemap.rel
                                          [ bg_toilet2_tilemap ]
C:/Users/f_bes/AppData/Local/Temp/_gbsbuild/obj/bg_toilet2_tileset.rel
                                          [ bg_toilet2_tileset ]
C:/Users/f_bes/AppData/Local/Temp/_gbsbuild/obj/bg_toilet2.rel
                                          [ bg_toilet2 ]
C:/Users/f_bes/AppData/Local/Temp/_gbsbuild/obj/bg_untitled_tilemap_attr.rel
                                          [ bg_untitled_tilemap_attr ]
C:/Users/f_bes/AppData/Local/Temp/_gbsbuild/obj/bg_untitled_tilemap.rel
                                          [ bg_untitled_tilemap ]
C:/Users/f_bes/AppData/Local/Temp/_gbsbuild/obj/bg_untitled_tileset.rel
                                          [ bg_untitled_tileset ]
C:/Users/f_bes/AppData/Local/Temp/_gbsbuild/obj/bg_untitled.rel
                                          [ bg_untitled ]
C:/Users/f_bes/AppData/Local/Temp/_gbsbuild/obj/bg_worldddd_tilemap_attr.rel
                                          [ bg_worldddd_tilemap_attr ]
C:/Users/f_bes/AppData/Local/Temp/_gbsbuild/obj/bg_worldddd_tilemap.rel
                                          [ bg_worldddd_tilemap ]
C:/Users/f_bes/AppData/Local/Temp/_gbsbuild/obj/bg_worldddd_tileset.rel
                                          [ bg_worldddd_tileset ]
C:/Users/f_bes/AppData/Local/Temp/_gbsbuild/obj/bg_worldddd.rel
                                          [ bg_worldddd ]
C:/Users/f_bes/AppData/Local/Temp/_gbsbuild/obj/bg_worldddddark_tilemap_attr.rel
                                          [ bg_worldddddark_tilemap_attr ]
C:/Users/f_bes/AppData/Local/Temp/_gbsbuild/obj/bg_worldddddark_tilemap.rel
                                          [ bg_worldddddark_tilemap ]
C:/Users/f_bes/AppData/Local/Temp/_gbsbuild/obj/bg_worldddddark_tileset.rel
                                          [ bg_worldddddark_tileset ]
C:/Users/f_bes/AppData/Local/Temp/_gbsbuild/obj/bg_worldddddark.rel
                                          [ bg_worldddddark ]
C:/Users/f_bes/AppData/Local/Temp/_gbsbuild/obj/cursor_image.rel
                                          [ cursor_image ]
C:/Users/f_bes/AppData/Local/Temp/_gbsbuild/obj/emote_shock.rel
                                          [ emote_shock ]
C:/Users/f_bes/AppData/Local/Temp/_gbsbuild/obj/font_gbs_mono_copie.rel
                                          [ font_gbs_mono_copie ]
C:/Users/f_bes/AppData/Local/Temp/_gbsbuild/obj/font_gbs_mono.rel
                                          [ font_gbs_mono ]
C:/Users/f_bes/AppData/Local/Temp/_gbsbuild/obj/font_gbs_portrait_copie.rel
                                          [ font_gbs_portrait_copie ]
C:/Users/f_bes/AppData/Local/Temp/_gbsbuild/obj/font_gbs_portrait.rel
                                          [ font_gbs_portrait ]
C:/Users/f_bes/AppData/Local/Temp/_gbsbuild/obj/font_gbsmono20.rel
                                          [ font_gbsmono20 ]
C:/Users/f_bes/AppData/Local/Temp/_gbsbuild/obj/frame_image.rel
                                          [ frame_image ]
C:/Users/f_bes/AppData/Local/Temp/_gbsbuild/obj/game_signature.rel
                                          [ game_signature ]
C:/Users/f_bes/AppData/Local/Temp/_gbsbuild/obj/song_anothergameover_Data.rel
                                          [ song_anothergameover_Data ]
C:/Users/f_bes/AppData/Local/Temp/_gbsbuild/obj/song_anotherhim_Data.rel
                                          [ song_anotherhim_Data ]
C:/Users/f_bes/AppData/Local/Temp/_gbsbuild/obj/song_beginning_Data.rel
                                          [ song_beginning_Data ]
C:/Users/f_bes/AppData/Local/Temp/_gbsbuild/obj/song_emptytown_Data.rel
                                          [ song_emptytown_Data ]
C:/Users/f_bes/AppData/Local/Temp/_gbsbuild/obj/song_fallinggg_Data.rel
                                          [ song_fallinggg_Data ]
C:/Users/f_bes/AppData/Local/Temp/_gbsbuild/obj/song_lancervsvr_Data.rel
                                          [ song_lancervsvr_Data ]
C:/Users/f_bes/AppData/Local/Temp/_gbsbuild/obj/song_savetransfer_Data.rel
                                          [ song_savetransfer_Data ]
C:/Users/f_bes/AppData/Local/Temp/_gbsbuild/obj/song_school_Data.rel
                                          [ song_school_Data ]
C:/Users/f_bes/AppData/Local/Temp/_gbsbuild/obj/song_song_template_0_Data.rel
                                          [ song_song_template_0_Data ]
C:/Users/f_bes/AppData/Local/Temp/_gbsbuild/obj/song_song_template_Data.rel
                                          [ song_song_template_Data ]
C:/Users/f_bes/AppData/Local/Temp/_gbsbuild/obj/song_song_templateffrzref_Data.rel
                                          [ song_song_templateffrzref_Data ]
C:/Users/f_bes/AppData/Local/Temp/_gbsbuild/obj/song_susie_Data.rel
                                          [ song_susie_Data ]
C:/Users/f_bes/AppData/Local/Temp/_gbsbuild/obj/song_the_real_door_Data.rel
                                          [ song_the_real_door_Data ]
C:/Users/f_bes/AppData/Local/Temp/_gbsbuild/obj/palette_0.rel
                                          [ palette_0 ]
C:/Users/f_bes/AppData/Local/Temp/_gbsbuild/obj/palette_1.rel
                                          [ palette_1 ]
C:/Users/f_bes/AppData/Local/Temp/_gbsbuild/obj/palette_10.rel
                                          [ palette_10 ]
C:/Users/f_bes/AppData/Local/Temp/_gbsbuild/obj/palette_11.rel
                                          [ palette_11 ]
C:/Users/f_bes/AppData/Local/Temp/_gbsbuild/obj/palette_12.rel
                                          [ palette_12 ]
C:/Users/f_bes/AppData/Local/Temp/_gbsbuild/obj/palette_13.rel
                                          [ palette_13 ]
C:/Users/f_bes/AppData/Local/Temp/_gbsbuild/obj/palette_14.rel
                                          [ palette_14 ]
C:/Users/f_bes/AppData/Local/Temp/_gbsbuild/obj/palette_15.rel
                                          [ palette_15 ]
C:/Users/f_bes/AppData/Local/Temp/_gbsbuild/obj/palette_16.rel
                                          [ palette_16 ]
C:/Users/f_bes/AppData/Local/Temp/_gbsbuild/obj/palette_17.rel
                                          [ palette_17 ]
C:/Users/f_bes/AppData/Local/Temp/_gbsbuild/obj/palette_18.rel
                                          [ palette_18 ]
C:/Users/f_bes/AppData/Local/Temp/_gbsbuild/obj/palette_19.rel
                                          [ palette_19 ]
C:/Users/f_bes/AppData/Local/Temp/_gbsbuild/obj/palette_2.rel
                                          [ palette_2 ]
C:/Users/f_bes/AppData/Local/Temp/_gbsbuild/obj/palette_20.rel
                                          [ palette_20 ]
C:/Users/f_bes/AppData/Local/Temp/_gbsbuild/obj/palette_21.rel
                                          [ palette_21 ]
C:/Users/f_bes/AppData/Local/Temp/_gbsbuild/obj/palette_22.rel
                                          [ palette_22 ]
C:/Users/f_bes/AppData/Local/Temp/_gbsbuild/obj/palette_23.rel
                                          [ palette_23 ]
C:/Users/f_bes/AppData/Local/Temp/_gbsbuild/obj/palette_24.rel
                                          [ palette_24 ]
C:/Users/f_bes/AppData/Local/Temp/_gbsbuild/obj/palette_25.rel
                                          [ palette_25 ]
C:/Users/f_bes/AppData/Local/Temp/_gbsbuild/obj/palette_26.rel
                                          [ palette_26 ]
C:/Users/f_bes/AppData/Local/Temp/_gbsbuild/obj/palette_27.rel
                                          [ palette_27 ]
C:/Users/f_bes/AppData/Local/Temp/_gbsbuild/obj/palette_28.rel
                                          [ palette_28 ]
C:/Users/f_bes/AppData/Local/Temp/_gbsbuild/obj/palette_29.rel
                                          [ palette_29 ]
C:/Users/f_bes/AppData/Local/Temp/_gbsbuild/obj/palette_3.rel
                                          [ palette_3 ]
C:/Users/f_bes/AppData/Local/Temp/_gbsbuild/obj/palette_30.rel
                                          [ palette_30 ]
C:/Users/f_bes/AppData/Local/Temp/_gbsbuild/obj/palette_31.rel
                                          [ palette_31 ]
C:/Users/f_bes/AppData/Local/Temp/_gbsbuild/obj/palette_32.rel
                                          [ palette_32 ]
C:/Users/f_bes/AppData/Local/Temp/_gbsbuild/obj/palette_33.rel
                                          [ palette_33 ]
C:/Users/f_bes/AppData/Local/Temp/_gbsbuild/obj/palette_34.rel
                                          [ palette_34 ]
C:/Users/f_bes/AppData/Local/Temp/_gbsbuild/obj/palette_35.rel
                                          [ palette_35 ]
C:/Users/f_bes/AppData/Local/Temp/_gbsbuild/obj/palette_36.rel
                                          [ palette_36 ]
C:/Users/f_bes/AppData/Local/Temp/_gbsbuild/obj/palette_37.rel
                                          [ palette_37 ]
C:/Users/f_bes/AppData/Local/Temp/_gbsbuild/obj/palette_38.rel
                                          [ palette_38 ]
C:/Users/f_bes/AppData/Local/Temp/_gbsbuild/obj/palette_39.rel
                                          [ palette_39 ]
C:/Users/f_bes/AppData/Local/Temp/_gbsbuild/obj/palette_4.rel
                                          [ palette_4 ]
C:/Users/f_bes/AppData/Local/Temp/_gbsbuild/obj/palette_40.rel
                                          [ palette_40 ]
C:/Users/f_bes/AppData/Local/Temp/_gbsbuild/obj/palette_41.rel
                                          [ palette_41 ]
C:/Users/f_bes/AppData/Local/Temp/_gbsbuild/obj/palette_42.rel
                                          [ palette_42 ]
C:/Users/f_bes/AppData/Local/Temp/_gbsbuild/obj/palette_43.rel
                                          [ palette_43 ]
C:/Users/f_bes/AppData/Local/Temp/_gbsbuild/obj/palette_44.rel
                                          [ palette_44 ]
C:/Users/f_bes/AppData/Local/Temp/_gbsbuild/obj/palette_45.rel
                                          [ palette_45 ]
C:/Users/f_bes/AppData/Local/Temp/_gbsbuild/obj/palette_46.rel
                                          [ palette_46 ]
C:/Users/f_bes/AppData/Local/Temp/_gbsbuild/obj/palette_47.rel
                                          [ palette_47 ]
C:/Users/f_bes/AppData/Local/Temp/_gbsbuild/obj/palette_48.rel
                                          [ palette_48 ]
C:/Users/f_bes/AppData/Local/Temp/_gbsbuild/obj/palette_49.rel
                                          [ palette_49 ]
C:/Users/f_bes/AppData/Local/Temp/_gbsbuild/obj/palette_5.rel
                                          [ palette_5 ]
C:/Users/f_bes/AppData/Local/Temp/_gbsbuild/obj/palette_50.rel
                                          [ palette_50 ]
C:/Users/f_bes/AppData/Local/Temp/_gbsbuild/obj/palette_51.rel
                                          [ palette_51 ]
C:/Users/f_bes/AppData/Local/Temp/_gbsbuild/obj/palette_52.rel
                                          [ palette_52 ]
C:/Users/f_bes/AppData/Local/Temp/_gbsbuild/obj/palette_53.rel
                                          [ palette_53 ]
C:/Users/f_bes/AppData/Local/Temp/_gbsbuild/obj/palette_54.rel
                                          [ palette_54 ]
C:/Users/f_bes/AppData/Local/Temp/_gbsbuild/obj/palette_55.rel
                                          [ palette_55 ]
C:/Users/f_bes/AppData/Local/Temp/_gbsbuild/obj/palette_56.rel
                                          [ palette_56 ]
C:/Users/f_bes/AppData/Local/Temp/_gbsbuild/obj/palette_57.rel
                                          [ palette_57 ]
C:/Users/f_bes/AppData/Local/Temp/_gbsbuild/obj/palette_58.rel
                                          [ palette_58 ]
C:/Users/f_bes/AppData/Local/Temp/_gbsbuild/obj/palette_59.rel
                                          [ palette_59 ]
C:/Users/f_bes/AppData/Local/Temp/_gbsbuild/obj/palette_6.rel
                                          [ palette_6 ]
C:/Users/f_bes/AppData/Local/Temp/_gbsbuild/obj/palette_60.rel
                                          [ palette_60 ]
C:/Users/f_bes/AppData/Local/Temp/_gbsbuild/obj/palette_61.rel
                                          [ palette_61 ]
C:/Users/f_bes/AppData/Local/Temp/_gbsbuild/obj/palette_62.rel
                                          [ palette_62 ]
C:/Users/f_bes/AppData/Local/Temp/_gbsbuild/obj/palette_63.rel
                                          [ palette_63 ]
C:/Users/f_bes/AppData/Local/Temp/_gbsbuild/obj/palette_7.rel
                                          [ palette_7 ]
C:/Users/f_bes/AppData/Local/Temp/_gbsbuild/obj/palette_8.rel
                                          [ palette_8 ]
C:/Users/f_bes/AppData/Local/Temp/_gbsbuild/obj/palette_9.rel
                                          [ palette_9 ]
C:/Users/f_bes/AppData/Local/Temp/_gbsbuild/obj/scene_0_collisions.rel
                                          [ scene_0_collisions ]
C:/Users/f_bes/AppData/Local/Temp/_gbsbuild/obj/scene_0_init.rel
                                          [ scene_0_init ]
C:/Users/f_bes/AppData/Local/Temp/_gbsbuild/obj/scene_0.rel
                                          [ scene_0 ]
C:/Users/f_bes/AppData/Local/Temp/_gbsbuild/obj/scene_1_collisions.rel
                                          [ scene_1_collisions ]
C:/Users/f_bes/AppData/Local/Temp/_gbsbuild/obj/scene_1_init.rel
                                          [ scene_1_init ]
C:/Users/f_bes/AppData/Local/Temp/_gbsbuild/obj/scene_1.rel
                                          [ scene_1 ]
C:/Users/f_bes/AppData/Local/Temp/_gbsbuild/obj/scene_10_collisions.rel
                                          [ scene_10_collisions ]
C:/Users/f_bes/AppData/Local/Temp/_gbsbuild/obj/scene_10_init.rel
                                          [ scene_10_init ]
C:/Users/f_bes/AppData/Local/Temp/_gbsbuild/obj/scene_10.rel
                                          [ scene_10 ]
C:/Users/f_bes/AppData/Local/Temp/_gbsbuild/obj/scene_11_collisions.rel
                                          [ scene_11_collisions ]
C:/Users/f_bes/AppData/Local/Temp/_gbsbuild/obj/scene_11_init.rel
                                          [ scene_11_init ]
C:/Users/f_bes/AppData/Local/Temp/_gbsbuild/obj/scene_11.rel
                                          [ scene_11 ]
C:/Users/f_bes/AppData/Local/Temp/_gbsbuild/obj/scene_12_collisions.rel
                                          [ scene_12_collisions ]
C:/Users/f_bes/AppData/Local/Temp/_gbsbuild/obj/scene_12_init.rel
                                          [ scene_12_init ]
C:/Users/f_bes/AppData/Local/Temp/_gbsbuild/obj/scene_12.rel
                                          [ scene_12 ]
C:/Users/f_bes/AppData/Local/Temp/_gbsbuild/obj/scene_13_actors.rel
                                          [ scene_13_actors ]
C:/Users/f_bes/AppData/Local/Temp/_gbsbuild/obj/scene_13_collisions.rel
                                          [ scene_13_collisions ]
C:/Users/f_bes/AppData/Local/Temp/_gbsbuild/obj/scene_13_init.rel
                                          [ scene_13_init ]
C:/Users/f_bes/AppData/Local/Temp/_gbsbuild/obj/scene_13_sprites.rel
                                          [ scene_13_sprites ]
C:/Users/f_bes/AppData/Local/Temp/_gbsbuild/obj/scene_13_triggers.rel
                                          [ scene_13_triggers ]
C:/Users/f_bes/AppData/Local/Temp/_gbsbuild/obj/scene_13.rel
                                          [ scene_13 ]
C:/Users/f_bes/AppData/Local/Temp/_gbsbuild/obj/scene_14_actors.rel
                                          [ scene_14_actors ]
C:/Users/f_bes/AppData/Local/Temp/_gbsbuild/obj/scene_14_collisions.rel
                                          [ scene_14_collisions ]
C:/Users/f_bes/AppData/Local/Temp/_gbsbuild/obj/scene_14_init.rel
                                          [ scene_14_init ]
C:/Users/f_bes/AppData/Local/Temp/_gbsbuild/obj/scene_14_sprites.rel
                                          [ scene_14_sprites ]
C:/Users/f_bes/AppData/Local/Temp/_gbsbuild/obj/scene_14_triggers.rel
                                          [ scene_14_triggers ]
C:/Users/f_bes/AppData/Local/Temp/_gbsbuild/obj/scene_14.rel
                                          [ scene_14 ]
C:/Users/f_bes/AppData/Local/Temp/_gbsbuild/obj/scene_15_collisions.rel
                                          [ scene_15_collisions ]
C:/Users/f_bes/AppData/Local/Temp/_gbsbuild/obj/scene_15_init.rel
                                          [ scene_15_init ]
C:/Users/f_bes/AppData/Local/Temp/_gbsbuild/obj/scene_15.rel
                                          [ scene_15 ]
C:/Users/f_bes/AppData/Local/Temp/_gbsbuild/obj/scene_16_collisions.rel
                                          [ scene_16_collisions ]
C:/Users/f_bes/AppData/Local/Temp/_gbsbuild/obj/scene_16_init.rel
                                          [ scene_16_init ]
C:/Users/f_bes/AppData/Local/Temp/_gbsbuild/obj/scene_16.rel
                                          [ scene_16 ]
C:/Users/f_bes/AppData/Local/Temp/_gbsbuild/obj/scene_17_collisions.rel
                                          [ scene_17_collisions ]
C:/Users/f_bes/AppData/Local/Temp/_gbsbuild/obj/scene_17_init.rel
                                          [ scene_17_init ]
C:/Users/f_bes/AppData/Local/Temp/_gbsbuild/obj/scene_17.rel
                                          [ scene_17 ]
C:/Users/f_bes/AppData/Local/Temp/_gbsbuild/obj/scene_18_collisions.rel
                                          [ scene_18_collisions ]
C:/Users/f_bes/AppData/Local/Temp/_gbsbuild/obj/scene_18_init.rel
                                          [ scene_18_init ]
C:/Users/f_bes/AppData/Local/Temp/_gbsbuild/obj/scene_18.rel
                                          [ scene_18 ]
C:/Users/f_bes/AppData/Local/Temp/_gbsbuild/obj/scene_19_collisions.rel
                                          [ scene_19_collisions ]
C:/Users/f_bes/AppData/Local/Temp/_gbsbuild/obj/scene_19_init.rel
                                          [ scene_19_init ]
C:/Users/f_bes/AppData/Local/Temp/_gbsbuild/obj/scene_19.rel
                                          [ scene_19 ]
C:/Users/f_bes/AppData/Local/Temp/_gbsbuild/obj/scene_2_collisions.rel
                                          [ scene_2_collisions ]
C:/Users/f_bes/AppData/Local/Temp/_gbsbuild/obj/scene_2_init.rel
                                          [ scene_2_init ]
C:/Users/f_bes/AppData/Local/Temp/_gbsbuild/obj/scene_2.rel
                                          [ scene_2 ]
C:/Users/f_bes/AppData/Local/Temp/_gbsbuild/obj/scene_20_collisions.rel
                                          [ scene_20_collisions ]
C:/Users/f_bes/AppData/Local/Temp/_gbsbuild/obj/scene_20_init.rel
                                          [ scene_20_init ]
C:/Users/f_bes/AppData/Local/Temp/_gbsbuild/obj/scene_20.rel
                                          [ scene_20 ]
C:/Users/f_bes/AppData/Local/Temp/_gbsbuild/obj/scene_21_actors.rel
                                          [ scene_21_actors ]
C:/Users/f_bes/AppData/Local/Temp/_gbsbuild/obj/scene_21_collisions.rel
                                          [ scene_21_collisions ]
C:/Users/f_bes/AppData/Local/Temp/_gbsbuild/obj/scene_21_init.rel
                                          [ scene_21_init ]
C:/Users/f_bes/AppData/Local/Temp/_gbsbuild/obj/scene_21_sprites.rel
                                          [ scene_21_sprites ]
C:/Users/f_bes/AppData/Local/Temp/_gbsbuild/obj/scene_21.rel
                                          [ scene_21 ]
C:/Users/f_bes/AppData/Local/Temp/_gbsbuild/obj/scene_22_collisions.rel
                                          [ scene_22_collisions ]
C:/Users/f_bes/AppData/Local/Temp/_gbsbuild/obj/scene_22_init.rel
                                          [ scene_22_init ]
C:/Users/f_bes/AppData/Local/Temp/_gbsbuild/obj/scene_22.rel
                                          [ scene_22 ]
C:/Users/f_bes/AppData/Local/Temp/_gbsbuild/obj/scene_23_collisions.rel
                                          [ scene_23_collisions ]
C:/Users/f_bes/AppData/Local/Temp/_gbsbuild/obj/scene_23_init.rel
                                          [ scene_23_init ]
C:/Users/f_bes/AppData/Local/Temp/_gbsbuild/obj/scene_23.rel
                                          [ scene_23 ]
C:/Users/f_bes/AppData/Local/Temp/_gbsbuild/obj/scene_24_collisions.rel
                                          [ scene_24_collisions ]
C:/Users/f_bes/AppData/Local/Temp/_gbsbuild/obj/scene_24_init.rel
                                          [ scene_24_init ]
C:/Users/f_bes/AppData/Local/Temp/_gbsbuild/obj/scene_24.rel
                                          [ scene_24 ]
C:/Users/f_bes/AppData/Local/Temp/_gbsbuild/obj/scene_25_actors.rel
                                          [ scene_25_actors ]
C:/Users/f_bes/AppData/Local/Temp/_gbsbuild/obj/scene_25_collisions.rel
                                          [ scene_25_collisions ]
C:/Users/f_bes/AppData/Local/Temp/_gbsbuild/obj/scene_25_init.rel
                                          [ scene_25_init ]
C:/Users/f_bes/AppData/Local/Temp/_gbsbuild/obj/scene_25_sprites.rel
                                          [ scene_25_sprites ]
C:/Users/f_bes/AppData/Local/Temp/_gbsbuild/obj/scene_25_triggers.rel
                                          [ scene_25_triggers ]
C:/Users/f_bes/AppData/Local/Temp/_gbsbuild/obj/scene_25.rel
                                          [ scene_25 ]
C:/Users/f_bes/AppData/Local/Temp/_gbsbuild/obj/scene_26_collisions.rel
                                          [ scene_26_collisions ]
C:/Users/f_bes/AppData/Local/Temp/_gbsbuild/obj/scene_26_init.rel
                                          [ scene_26_init ]
C:/Users/f_bes/AppData/Local/Temp/_gbsbuild/obj/scene_26.rel
                                          [ scene_26 ]
C:/Users/f_bes/AppData/Local/Temp/_gbsbuild/obj/scene_27_collisions.rel
                                          [ scene_27_collisions ]
C:/Users/f_bes/AppData/Local/Temp/_gbsbuild/obj/scene_27_init.rel
                                          [ scene_27_init ]
C:/Users/f_bes/AppData/Local/Temp/_gbsbuild/obj/scene_27.rel
                                          [ scene_27 ]
C:/Users/f_bes/AppData/Local/Temp/_gbsbuild/obj/scene_28_actors.rel
                                          [ scene_28_actors ]
C:/Users/f_bes/AppData/Local/Temp/_gbsbuild/obj/scene_28_collisions.rel
                                          [ scene_28_collisions ]
C:/Users/f_bes/AppData/Local/Temp/_gbsbuild/obj/scene_28_init.rel
                                          [ scene_28_init ]
C:/Users/f_bes/AppData/Local/Temp/_gbsbuild/obj/scene_28_sprites.rel
                                          [ scene_28_sprites ]
C:/Users/f_bes/AppData/Local/Temp/_gbsbuild/obj/scene_28.rel
                                          [ scene_28 ]
C:/Users/f_bes/AppData/Local/Temp/_gbsbuild/obj/scene_29_actors.rel
                                          [ scene_29_actors ]
C:/Users/f_bes/AppData/Local/Temp/_gbsbuild/obj/scene_29_collisions.rel
                                          [ scene_29_collisions ]
C:/Users/f_bes/AppData/Local/Temp/_gbsbuild/obj/scene_29_init.rel
                                          [ scene_29_init ]
C:/Users/f_bes/AppData/Local/Temp/_gbsbuild/obj/scene_29_sprites.rel
                                          [ scene_29_sprites ]
C:/Users/f_bes/AppData/Local/Temp/_gbsbuild/obj/scene_29.rel
                                          [ scene_29 ]
C:/Users/f_bes/AppData/Local/Temp/_gbsbuild/obj/scene_3_collisions.rel
                                          [ scene_3_collisions ]
C:/Users/f_bes/AppData/Local/Temp/_gbsbuild/obj/scene_3_init.rel
                                          [ scene_3_init ]
C:/Users/f_bes/AppData/Local/Temp/_gbsbuild/obj/scene_3.rel
                                          [ scene_3 ]
C:/Users/f_bes/AppData/Local/Temp/_gbsbuild/obj/scene_30_collisions.rel
                                          [ scene_30_collisions ]
C:/Users/f_bes/AppData/Local/Temp/_gbsbuild/obj/scene_30_init.rel
                                          [ scene_30_init ]
C:/Users/f_bes/AppData/Local/Temp/_gbsbuild/obj/scene_30.rel
                                          [ scene_30 ]
C:/Users/f_bes/AppData/Local/Temp/_gbsbuild/obj/scene_31_collisions.rel
                                          [ scene_31_collisions ]
C:/Users/f_bes/AppData/Local/Temp/_gbsbuild/obj/scene_31_init.rel
                                          [ scene_31_init ]
C:/Users/f_bes/AppData/Local/Temp/_gbsbuild/obj/scene_31.rel
                                          [ scene_31 ]
C:/Users/f_bes/AppData/Local/Temp/_gbsbuild/obj/scene_32_actors.rel
                                          [ scene_32_actors ]
C:/Users/f_bes/AppData/Local/Temp/_gbsbuild/obj/scene_32_collisions.rel
                                          [ scene_32_collisions ]
C:/Users/f_bes/AppData/Local/Temp/_gbsbuild/obj/scene_32_init.rel
                                          [ scene_32_init ]
C:/Users/f_bes/AppData/Local/Temp/_gbsbuild/obj/scene_32_sprites.rel
                                          [ scene_32_sprites ]
C:/Users/f_bes/AppData/Local/Temp/_gbsbuild/obj/scene_32_triggers.rel
                                          [ scene_32_triggers ]
C:/Users/f_bes/AppData/Local/Temp/_gbsbuild/obj/scene_32.rel
                                          [ scene_32 ]
C:/Users/f_bes/AppData/Local/Temp/_gbsbuild/obj/scene_33_collisions.rel
                                          [ scene_33_collisions ]
C:/Users/f_bes/AppData/Local/Temp/_gbsbuild/obj/scene_33_init.rel
                                          [ scene_33_init ]
C:/Users/f_bes/AppData/Local/Temp/_gbsbuild/obj/scene_33_triggers.rel
                                          [ scene_33_triggers ]
C:/Users/f_bes/AppData/Local/Temp/_gbsbuild/obj/scene_33.rel
                                          [ scene_33 ]
C:/Users/f_bes/AppData/Local/Temp/_gbsbuild/obj/scene_34_actors.rel
                                          [ scene_34_actors ]
C:/Users/f_bes/AppData/Local/Temp/_gbsbuild/obj/scene_34_collisions.rel
                                          [ scene_34_collisions ]
C:/Users/f_bes/AppData/Local/Temp/_gbsbuild/obj/scene_34_init.rel
                                          [ scene_34_init ]
C:/Users/f_bes/AppData/Local/Temp/_gbsbuild/obj/scene_34_sprites.rel
                                          [ scene_34_sprites ]
C:/Users/f_bes/AppData/Local/Temp/_gbsbuild/obj/scene_34_triggers.rel
                                          [ scene_34_triggers ]
C:/Users/f_bes/AppData/Local/Temp/_gbsbuild/obj/scene_34.rel
                                          [ scene_34 ]
C:/Users/f_bes/AppData/Local/Temp/_gbsbuild/obj/scene_35_actors.rel
                                          [ scene_35_actors ]
C:/Users/f_bes/AppData/Local/Temp/_gbsbuild/obj/scene_35_collisions.rel
                                          [ scene_35_collisions ]
C:/Users/f_bes/AppData/Local/Temp/_gbsbuild/obj/scene_35_init.rel
                                          [ scene_35_init ]
C:/Users/f_bes/AppData/Local/Temp/_gbsbuild/obj/scene_35_sprites.rel
                                          [ scene_35_sprites ]
C:/Users/f_bes/AppData/Local/Temp/_gbsbuild/obj/scene_35_triggers.rel
                                          [ scene_35_triggers ]
C:/Users/f_bes/AppData/Local/Temp/_gbsbuild/obj/scene_35.rel
                                          [ scene_35 ]
C:/Users/f_bes/AppData/Local/Temp/_gbsbuild/obj/scene_36_actors.rel
                                          [ scene_36_actors ]
C:/Users/f_bes/AppData/Local/Temp/_gbsbuild/obj/scene_36_collisions.rel
                                          [ scene_36_collisions ]
C:/Users/f_bes/AppData/Local/Temp/_gbsbuild/obj/scene_36_init.rel
                                          [ scene_36_init ]
C:/Users/f_bes/AppData/Local/Temp/_gbsbuild/obj/scene_36_sprites.rel
                                          [ scene_36_sprites ]
C:/Users/f_bes/AppData/Local/Temp/_gbsbuild/obj/scene_36_triggers.rel
                                          [ scene_36_triggers ]
C:/Users/f_bes/AppData/Local/Temp/_gbsbuild/obj/scene_36.rel
                                          [ scene_36 ]
C:/Users/f_bes/AppData/Local/Temp/_gbsbuild/obj/scene_37_actors.rel
                                          [ scene_37_actors ]
C:/Users/f_bes/AppData/Local/Temp/_gbsbuild/obj/scene_37_collisions.rel
                                          [ scene_37_collisions ]
C:/Users/f_bes/AppData/Local/Temp/_gbsbuild/obj/scene_37_init.rel
                                          [ scene_37_init ]
C:/Users/f_bes/AppData/Local/Temp/_gbsbuild/obj/scene_37_sprites.rel
                                          [ scene_37_sprites ]
C:/Users/f_bes/AppData/Local/Temp/_gbsbuild/obj/scene_37.rel
                                          [ scene_37 ]
C:/Users/f_bes/AppData/Local/Temp/_gbsbuild/obj/scene_38_collisions.rel
                                          [ scene_38_collisions ]
C:/Users/f_bes/AppData/Local/Temp/_gbsbuild/obj/scene_38_init.rel
                                          [ scene_38_init ]
C:/Users/f_bes/AppData/Local/Temp/_gbsbuild/obj/scene_38.rel
                                          [ scene_38 ]
C:/Users/f_bes/AppData/Local/Temp/_gbsbuild/obj/scene_39_collisions.rel
                                          [ scene_39_collisions ]
C:/Users/f_bes/AppData/Local/Temp/_gbsbuild/obj/scene_39_init.rel
                                          [ scene_39_init ]
C:/Users/f_bes/AppData/Local/Temp/_gbsbuild/obj/scene_39.rel
                                          [ scene_39 ]
C:/Users/f_bes/AppData/Local/Temp/_gbsbuild/obj/scene_4_collisions.rel
                                          [ scene_4_collisions ]
C:/Users/f_bes/AppData/Local/Temp/_gbsbuild/obj/scene_4_init.rel
                                          [ scene_4_init ]
C:/Users/f_bes/AppData/Local/Temp/_gbsbuild/obj/scene_4.rel
                                          [ scene_4 ]
C:/Users/f_bes/AppData/Local/Temp/_gbsbuild/obj/scene_40_collisions.rel
                                          [ scene_40_collisions ]
C:/Users/f_bes/AppData/Local/Temp/_gbsbuild/obj/scene_40_init.rel
                                          [ scene_40_init ]
C:/Users/f_bes/AppData/Local/Temp/_gbsbuild/obj/scene_40.rel
                                          [ scene_40 ]
C:/Users/f_bes/AppData/Local/Temp/_gbsbuild/obj/scene_41_actors.rel
                                          [ scene_41_actors ]
C:/Users/f_bes/AppData/Local/Temp/_gbsbuild/obj/scene_41_collisions.rel
                                          [ scene_41_collisions ]
C:/Users/f_bes/AppData/Local/Temp/_gbsbuild/obj/scene_41_init.rel
                                          [ scene_41_init ]
C:/Users/f_bes/AppData/Local/Temp/_gbsbuild/obj/scene_41_sprites.rel
                                          [ scene_41_sprites ]
C:/Users/f_bes/AppData/Local/Temp/_gbsbuild/obj/scene_41.rel
                                          [ scene_41 ]
C:/Users/f_bes/AppData/Local/Temp/_gbsbuild/obj/scene_42_collisions.rel
                                          [ scene_42_collisions ]
C:/Users/f_bes/AppData/Local/Temp/_gbsbuild/obj/scene_42_init.rel
                                          [ scene_42_init ]
C:/Users/f_bes/AppData/Local/Temp/_gbsbuild/obj/scene_42.rel
                                          [ scene_42 ]
C:/Users/f_bes/AppData/Local/Temp/_gbsbuild/obj/scene_43_collisions.rel
                                          [ scene_43_collisions ]
C:/Users/f_bes/AppData/Local/Temp/_gbsbuild/obj/scene_43_init.rel
                                          [ scene_43_init ]
C:/Users/f_bes/AppData/Local/Temp/_gbsbuild/obj/scene_43.rel
                                          [ scene_43 ]
C:/Users/f_bes/AppData/Local/Temp/_gbsbuild/obj/scene_44_actors.rel
                                          [ scene_44_actors ]
C:/Users/f_bes/AppData/Local/Temp/_gbsbuild/obj/scene_44_collisions.rel
                                          [ scene_44_collisions ]
C:/Users/f_bes/AppData/Local/Temp/_gbsbuild/obj/scene_44_init.rel
                                          [ scene_44_init ]
C:/Users/f_bes/AppData/Local/Temp/_gbsbuild/obj/scene_44_sprites.rel
                                          [ scene_44_sprites ]
C:/Users/f_bes/AppData/Local/Temp/_gbsbuild/obj/scene_44_triggers.rel
                                          [ scene_44_triggers ]
C:/Users/f_bes/AppData/Local/Temp/_gbsbuild/obj/scene_44.rel
                                          [ scene_44 ]
C:/Users/f_bes/AppData/Local/Temp/_gbsbuild/obj/scene_45_actors.rel
                                          [ scene_45_actors ]
C:/Users/f_bes/AppData/Local/Temp/_gbsbuild/obj/scene_45_collisions.rel
                                          [ scene_45_collisions ]
C:/Users/f_bes/AppData/Local/Temp/_gbsbuild/obj/scene_45_init.rel
                                          [ scene_45_init ]
C:/Users/f_bes/AppData/Local/Temp/_gbsbuild/obj/scene_45_sprites.rel
                                          [ scene_45_sprites ]
C:/Users/f_bes/AppData/Local/Temp/_gbsbuild/obj/scene_45_triggers.rel
                                          [ scene_45_triggers ]
C:/Users/f_bes/AppData/Local/Temp/_gbsbuild/obj/scene_45.rel
                                          [ scene_45 ]
C:/Users/f_bes/AppData/Local/Temp/_gbsbuild/obj/scene_46_actors.rel
                                          [ scene_46_actors ]
C:/Users/f_bes/AppData/Local/Temp/_gbsbuild/obj/scene_46_collisions.rel
                                          [ scene_46_collisions ]
C:/Users/f_bes/AppData/Local/Temp/_gbsbuild/obj/scene_46_init.rel
                                          [ scene_46_init ]
C:/Users/f_bes/AppData/Local/Temp/_gbsbuild/obj/scene_46_sprites.rel
                                          [ scene_46_sprites ]
C:/Users/f_bes/AppData/Local/Temp/_gbsbuild/obj/scene_46.rel
                                          [ scene_46 ]
C:/Users/f_bes/AppData/Local/Temp/_gbsbuild/obj/scene_47_actors.rel
                                          [ scene_47_actors ]
C:/Users/f_bes/AppData/Local/Temp/_gbsbuild/obj/scene_47_collisions.rel
                                          [ scene_47_collisions ]
C:/Users/f_bes/AppData/Local/Temp/_gbsbuild/obj/scene_47_init.rel
                                          [ scene_47_init ]
C:/Users/f_bes/AppData/Local/Temp/_gbsbuild/obj/scene_47_sprites.rel
                                          [ scene_47_sprites ]
C:/Users/f_bes/AppData/Local/Temp/_gbsbuild/obj/scene_47_triggers.rel
                                          [ scene_47_triggers ]
C:/Users/f_bes/AppData/Local/Temp/_gbsbuild/obj/scene_47.rel
                                          [ scene_47 ]
C:/Users/f_bes/AppData/Local/Temp/_gbsbuild/obj/scene_48_actors.rel
                                          [ scene_48_actors ]
C:/Users/f_bes/AppData/Local/Temp/_gbsbuild/obj/scene_48_collisions.rel
                                          [ scene_48_collisions ]
C:/Users/f_bes/AppData/Local/Temp/_gbsbuild/obj/scene_48_init.rel
                                          [ scene_48_init ]
C:/Users/f_bes/AppData/Local/Temp/_gbsbuild/obj/scene_48_sprites.rel
                                          [ scene_48_sprites ]
C:/Users/f_bes/AppData/Local/Temp/_gbsbuild/obj/scene_48.rel
                                          [ scene_48 ]
C:/Users/f_bes/AppData/Local/Temp/_gbsbuild/obj/scene_49_collisions.rel
                                          [ scene_49_collisions ]
C:/Users/f_bes/AppData/Local/Temp/_gbsbuild/obj/scene_49_init.rel
                                          [ scene_49_init ]
C:/Users/f_bes/AppData/Local/Temp/_gbsbuild/obj/scene_49.rel
                                          [ scene_49 ]
C:/Users/f_bes/AppData/Local/Temp/_gbsbuild/obj/scene_5_collisions.rel
                                          [ scene_5_collisions ]
C:/Users/f_bes/AppData/Local/Temp/_gbsbuild/obj/scene_5_init.rel
                                          [ scene_5_init ]
C:/Users/f_bes/AppData/Local/Temp/_gbsbuild/obj/scene_5.rel
                                          [ scene_5 ]
C:/Users/f_bes/AppData/Local/Temp/_gbsbuild/obj/scene_50_collisions.rel
                                          [ scene_50_collisions ]
C:/Users/f_bes/AppData/Local/Temp/_gbsbuild/obj/scene_50_init.rel
                                          [ scene_50_init ]
C:/Users/f_bes/AppData/Local/Temp/_gbsbuild/obj/scene_50.rel
                                          [ scene_50 ]
C:/Users/f_bes/AppData/Local/Temp/_gbsbuild/obj/scene_51_actors.rel
                                          [ scene_51_actors ]
C:/Users/f_bes/AppData/Local/Temp/_gbsbuild/obj/scene_51_collisions.rel
                                          [ scene_51_collisions ]
C:/Users/f_bes/AppData/Local/Temp/_gbsbuild/obj/scene_51_init.rel
                                          [ scene_51_init ]
C:/Users/f_bes/AppData/Local/Temp/_gbsbuild/obj/scene_51_sprites.rel
                                          [ scene_51_sprites ]
C:/Users/f_bes/AppData/Local/Temp/_gbsbuild/obj/scene_51.rel
                                          [ scene_51 ]
C:/Users/f_bes/AppData/Local/Temp/_gbsbuild/obj/scene_54_collisions.rel
                                          [ scene_54_collisions ]
C:/Users/f_bes/AppData/Local/Temp/_gbsbuild/obj/scene_54_init.rel
                                          [ scene_54_init ]
C:/Users/f_bes/AppData/Local/Temp/_gbsbuild/obj/scene_54_triggers.rel
                                          [ scene_54_triggers ]
C:/Users/f_bes/AppData/Local/Temp/_gbsbuild/obj/scene_54.rel
                                          [ scene_54 ]
C:/Users/f_bes/AppData/Local/Temp/_gbsbuild/obj/scene_55_actors.rel
                                          [ scene_55_actors ]
C:/Users/f_bes/AppData/Local/Temp/_gbsbuild/obj/scene_55_collisions.rel
                                          [ scene_55_collisions ]
C:/Users/f_bes/AppData/Local/Temp/_gbsbuild/obj/scene_55_init.rel
                                          [ scene_55_init ]
C:/Users/f_bes/AppData/Local/Temp/_gbsbuild/obj/scene_55_sprites.rel
                                          [ scene_55_sprites ]
C:/Users/f_bes/AppData/Local/Temp/_gbsbuild/obj/scene_55_triggers.rel
                                          [ scene_55_triggers ]
C:/Users/f_bes/AppData/Local/Temp/_gbsbuild/obj/scene_55.rel
                                          [ scene_55 ]
C:/Users/f_bes/AppData/Local/Temp/_gbsbuild/obj/scene_56_actors.rel
                                          [ scene_56_actors ]
C:/Users/f_bes/AppData/Local/Temp/_gbsbuild/obj/scene_56_collisions.rel
                                          [ scene_56_collisions ]
C:/Users/f_bes/AppData/Local/Temp/_gbsbuild/obj/scene_56_init.rel
                                          [ scene_56_init ]
C:/Users/f_bes/AppData/Local/Temp/_gbsbuild/obj/scene_56_sprites.rel
                                          [ scene_56_sprites ]
C:/Users/f_bes/AppData/Local/Temp/_gbsbuild/obj/scene_56_triggers.rel
                                          [ scene_56_triggers ]
C:/Users/f_bes/AppData/Local/Temp/_gbsbuild/obj/scene_56.rel
                                          [ scene_56 ]
C:/Users/f_bes/AppData/Local/Temp/_gbsbuild/obj/scene_57_collisions.rel
                                          [ scene_57_collisions ]
C:/Users/f_bes/AppData/Local/Temp/_gbsbuild/obj/scene_57_init.rel
                                          [ scene_57_init ]
C:/Users/f_bes/AppData/Local/Temp/_gbsbuild/obj/scene_57_triggers.rel
                                          [ scene_57_triggers ]
C:/Users/f_bes/AppData/Local/Temp/_gbsbuild/obj/scene_57.rel
                                          [ scene_57 ]
C:/Users/f_bes/AppData/Local/Temp/_gbsbuild/obj/scene_58_collisions.rel
                                          [ scene_58_collisions ]
C:/Users/f_bes/AppData/Local/Temp/_gbsbuild/obj/scene_58_init.rel
                                          [ scene_58_init ]
C:/Users/f_bes/AppData/Local/Temp/_gbsbuild/obj/scene_58.rel
                                          [ scene_58 ]
C:/Users/f_bes/AppData/Local/Temp/_gbsbuild/obj/scene_59_actors.rel
                                          [ scene_59_actors ]
C:/Users/f_bes/AppData/Local/Temp/_gbsbuild/obj/scene_59_collisions.rel
                                          [ scene_59_collisions ]
C:/Users/f_bes/AppData/Local/Temp/_gbsbuild/obj/scene_59_init.rel
                                          [ scene_59_init ]
C:/Users/f_bes/AppData/Local/Temp/_gbsbuild/obj/scene_59_sprites.rel
                                          [ scene_59_sprites ]
C:/Users/f_bes/AppData/Local/Temp/_gbsbuild/obj/scene_59_triggers.rel
                                          [ scene_59_triggers ]
C:/Users/f_bes/AppData/Local/Temp/_gbsbuild/obj/scene_59.rel
                                          [ scene_59 ]
C:/Users/f_bes/AppData/Local/Temp/_gbsbuild/obj/scene_6_collisions.rel
                                          [ scene_6_collisions ]
C:/Users/f_bes/AppData/Local/Temp/_gbsbuild/obj/scene_6_init.rel
                                          [ scene_6_init ]
C:/Users/f_bes/AppData/Local/Temp/_gbsbuild/obj/scene_6.rel
                                          [ scene_6 ]
C:/Users/f_bes/AppData/Local/Temp/_gbsbuild/obj/scene_60_actors.rel
                                          [ scene_60_actors ]
C:/Users/f_bes/AppData/Local/Temp/_gbsbuild/obj/scene_60_collisions.rel
                                          [ scene_60_collisions ]
C:/Users/f_bes/AppData/Local/Temp/_gbsbuild/obj/scene_60_init.rel
                                          [ scene_60_init ]
C:/Users/f_bes/AppData/Local/Temp/_gbsbuild/obj/scene_60_sprites.rel
                                          [ scene_60_sprites ]
C:/Users/f_bes/AppData/Local/Temp/_gbsbuild/obj/scene_60_triggers.rel
                                          [ scene_60_triggers ]
C:/Users/f_bes/AppData/Local/Temp/_gbsbuild/obj/scene_60.rel
                                          [ scene_60 ]
C:/Users/f_bes/AppData/Local/Temp/_gbsbuild/obj/scene_61_actors.rel
                                          [ scene_61_actors ]
C:/Users/f_bes/AppData/Local/Temp/_gbsbuild/obj/scene_61_collisions.rel
                                          [ scene_61_collisions ]
C:/Users/f_bes/AppData/Local/Temp/_gbsbuild/obj/scene_61_init.rel
                                          [ scene_61_init ]
C:/Users/f_bes/AppData/Local/Temp/_gbsbuild/obj/scene_61_sprites.rel
                                          [ scene_61_sprites ]
C:/Users/f_bes/AppData/Local/Temp/_gbsbuild/obj/scene_61_triggers.rel
                                          [ scene_61_triggers ]
C:/Users/f_bes/AppData/Local/Temp/_gbsbuild/obj/scene_61.rel
                                          [ scene_61 ]
C:/Users/f_bes/AppData/Local/Temp/_gbsbuild/obj/scene_62_collisions.rel
                                          [ scene_62_collisions ]
C:/Users/f_bes/AppData/Local/Temp/_gbsbuild/obj/scene_62_init.rel
                                          [ scene_62_init ]
C:/Users/f_bes/AppData/Local/Temp/_gbsbuild/obj/scene_62.rel
                                          [ scene_62 ]
C:/Users/f_bes/AppData/Local/Temp/_gbsbuild/obj/scene_63_actors.rel
                                          [ scene_63_actors ]
C:/Users/f_bes/AppData/Local/Temp/_gbsbuild/obj/scene_63_collisions.rel
                                          [ scene_63_collisions ]
C:/Users/f_bes/AppData/Local/Temp/_gbsbuild/obj/scene_63_init.rel
                                          [ scene_63_init ]
C:/Users/f_bes/AppData/Local/Temp/_gbsbuild/obj/scene_63_sprites.rel
                                          [ scene_63_sprites ]
C:/Users/f_bes/AppData/Local/Temp/_gbsbuild/obj/scene_63_triggers.rel
                                          [ scene_63_triggers ]
C:/Users/f_bes/AppData/Local/Temp/_gbsbuild/obj/scene_63.rel
                                          [ scene_63 ]
C:/Users/f_bes/AppData/Local/Temp/_gbsbuild/obj/scene_64_collisions.rel
                                          [ scene_64_collisions ]
C:/Users/f_bes/AppData/Local/Temp/_gbsbuild/obj/scene_64_init.rel
                                          [ scene_64_init ]
C:/Users/f_bes/AppData/Local/Temp/_gbsbuild/obj/scene_64_triggers.rel
                                          [ scene_64_triggers ]
C:/Users/f_bes/AppData/Local/Temp/_gbsbuild/obj/scene_64.rel
                                          [ scene_64 ]
C:/Users/f_bes/AppData/Local/Temp/_gbsbuild/obj/scene_65_actors.rel
                                          [ scene_65_actors ]
C:/Users/f_bes/AppData/Local/Temp/_gbsbuild/obj/scene_65_collisions.rel
                                          [ scene_65_collisions ]
C:/Users/f_bes/AppData/Local/Temp/_gbsbuild/obj/scene_65_init.rel
                                          [ scene_65_init ]
C:/Users/f_bes/AppData/Local/Temp/_gbsbuild/obj/scene_65_sprites.rel
                                          [ scene_65_sprites ]
C:/Users/f_bes/AppData/Local/Temp/_gbsbuild/obj/scene_65_triggers.rel
                                          [ scene_65_triggers ]
C:/Users/f_bes/AppData/Local/Temp/_gbsbuild/obj/scene_65.rel
                                          [ scene_65 ]
C:/Users/f_bes/AppData/Local/Temp/_gbsbuild/obj/scene_66_actors.rel
                                          [ scene_66_actors ]
C:/Users/f_bes/AppData/Local/Temp/_gbsbuild/obj/scene_66_collisions.rel
                                          [ scene_66_collisions ]
C:/Users/f_bes/AppData/Local/Temp/_gbsbuild/obj/scene_66_init.rel
                                          [ scene_66_init ]
C:/Users/f_bes/AppData/Local/Temp/_gbsbuild/obj/scene_66_sprites.rel
                                          [ scene_66_sprites ]
C:/Users/f_bes/AppData/Local/Temp/_gbsbuild/obj/scene_66_triggers.rel
                                          [ scene_66_triggers ]
C:/Users/f_bes/AppData/Local/Temp/_gbsbuild/obj/scene_66.rel
                                          [ scene_66 ]
C:/Users/f_bes/AppData/Local/Temp/_gbsbuild/obj/scene_67_collisions.rel
                                          [ scene_67_collisions ]
C:/Users/f_bes/AppData/Local/Temp/_gbsbuild/obj/scene_67_init.rel
                                          [ scene_67_init ]
C:/Users/f_bes/AppData/Local/Temp/_gbsbuild/obj/scene_67_triggers.rel
                                          [ scene_67_triggers ]
C:/Users/f_bes/AppData/Local/Temp/_gbsbuild/obj/scene_67.rel
                                          [ scene_67 ]
C:/Users/f_bes/AppData/Local/Temp/_gbsbuild/obj/scene_68_actors.rel
                                          [ scene_68_actors ]
C:/Users/f_bes/AppData/Local/Temp/_gbsbuild/obj/scene_68_collisions.rel
                                          [ scene_68_collisions ]
C:/Users/f_bes/AppData/Local/Temp/_gbsbuild/obj/scene_68_init.rel
                                          [ scene_68_init ]
C:/Users/f_bes/AppData/Local/Temp/_gbsbuild/obj/scene_68_sprites.rel
                                          [ scene_68_sprites ]
C:/Users/f_bes/AppData/Local/Temp/_gbsbuild/obj/scene_68_triggers.rel
                                          [ scene_68_triggers ]
C:/Users/f_bes/AppData/Local/Temp/_gbsbuild/obj/scene_68.rel
                                          [ scene_68 ]
C:/Users/f_bes/AppData/Local/Temp/_gbsbuild/obj/scene_7_collisions.rel
                                          [ scene_7_collisions ]
C:/Users/f_bes/AppData/Local/Temp/_gbsbuild/obj/scene_7_init.rel
                                          [ scene_7_init ]
C:/Users/f_bes/AppData/Local/Temp/_gbsbuild/obj/scene_7.rel
                                          [ scene_7 ]
C:/Users/f_bes/AppData/Local/Temp/_gbsbuild/obj/scene_8_collisions.rel
                                          [ scene_8_collisions ]
C:/Users/f_bes/AppData/Local/Temp/_gbsbuild/obj/scene_8_init.rel
                                          [ scene_8_init ]
C:/Users/f_bes/AppData/Local/Temp/_gbsbuild/obj/scene_8.rel
                                          [ scene_8 ]
C:/Users/f_bes/AppData/Local/Temp/_gbsbuild/obj/scene_9_collisions.rel
                                          [ scene_9_collisions ]
C:/Users/f_bes/AppData/Local/Temp/_gbsbuild/obj/scene_9_init.rel
                                          [ scene_9_init ]
C:/Users/f_bes/AppData/Local/Temp/_gbsbuild/obj/scene_9.rel
                                          [ scene_9 ]
C:/Users/f_bes/AppData/Local/Temp/_gbsbuild/obj/scene_logo_collisions.rel
                                          [ scene_logo_collisions ]
C:/Users/f_bes/AppData/Local/Temp/_gbsbuild/obj/scene_logo_init.rel
                                          [ scene_logo_init ]
C:/Users/f_bes/AppData/Local/Temp/_gbsbuild/obj/scene_logo.rel
                                          [ scene_logo ]
C:/Users/f_bes/AppData/Local/Temp/_gbsbuild/obj/script_0_0.rel
                                          [ script_0_0 ]
C:/Users/f_bes/AppData/Local/Temp/_gbsbuild/obj/script_0.rel
                                          [ script_0 ]
C:/Users/f_bes/AppData/Local/Temp/_gbsbuild/obj/script_11.rel
                                          [ script_11 ]
C:/Users/f_bes/AppData/Local/Temp/_gbsbuild/obj/script_2_0.rel
                                          [ script_2_0 ]
C:/Users/f_bes/AppData/Local/Temp/_gbsbuild/obj/script_2.rel
                                          [ script_2 ]
C:/Users/f_bes/AppData/Local/Temp/_gbsbuild/obj/script_3_0.rel
                                          [ script_3_0 ]
C:/Users/f_bes/AppData/Local/Temp/_gbsbuild/obj/script_3.rel
                                          [ script_3 ]
C:/Users/f_bes/AppData/Local/Temp/_gbsbuild/obj/script_5_0.rel
                                          [ script_5_0 ]
C:/Users/f_bes/AppData/Local/Temp/_gbsbuild/obj/script_5.rel
                                          [ script_5 ]
C:/Users/f_bes/AppData/Local/Temp/_gbsbuild/obj/script_7.rel
                                          [ script_7 ]
C:/Users/f_bes/AppData/Local/Temp/_gbsbuild/obj/script_8.rel
                                          [ script_8 ]
C:/Users/f_bes/AppData/Local/Temp/_gbsbuild/obj/script_9.rel
                                          [ script_9 ]
C:/Users/f_bes/AppData/Local/Temp/_gbsbuild/obj/script_engine_init.rel
                                          [  ]
C:/Users/f_bes/AppData/Local/Temp/_gbsbuild/obj/script_input_0.rel
                                          [ script_input_0 ]
C:/Users/f_bes/AppData/Local/Temp/_gbsbuild/obj/script_input_1.rel
                                          [ script_input_1 ]
C:/Users/f_bes/AppData/Local/Temp/_gbsbuild/obj/script_input_2.rel
                                          [ script_input_2 ]
C:/Users/f_bes/AppData/Local/Temp/_gbsbuild/obj/script_input_3.rel
                                          [ script_input_3 ]
C:/Users/f_bes/AppData/Local/Temp/_gbsbuild/obj/script_input_4.rel
                                          [ script_input_4 ]
C:/Users/f_bes/AppData/Local/Temp/_gbsbuild/obj/script_input_5.rel
                                          [ script_input_5 ]
C:/Users/f_bes/AppData/Local/Temp/_gbsbuild/obj/script_input_6.rel
                                          [ script_input_6 ]
C:/Users/f_bes/AppData/Local/Temp/_gbsbuild/obj/script_input.rel
                                          [ script_input ]
C:/Users/f_bes/AppData/Local/Temp/_gbsbuild/obj/sound_legacy_0_0.rel
                                          [ sound_legacy_0_0 ]
C:/Users/f_bes/AppData/Local/Temp/_gbsbuild/obj/sound_legacy_0_1.rel
                                          [ sound_legacy_0_1 ]
C:/Users/f_bes/AppData/Local/Temp/_gbsbuild/obj/sound_legacy_0_2.rel
                                          [ sound_legacy_0_2 ]
C:/Users/f_bes/AppData/Local/Temp/_gbsbuild/obj/sound_legacy_0.rel
                                          [ sound_legacy_0 ]
C:/Users/f_bes/AppData/Local/Temp/_gbsbuild/obj/sprite_aplhys_tileset.rel
                                          [ sprite_aplhys_tileset ]
C:/Users/f_bes/AppData/Local/Temp/_gbsbuild/obj/sprite_aplhys.rel
                                          [ sprite_aplhys ]
C:/Users/f_bes/AppData/Local/Temp/_gbsbuild/obj/sprite_can_t_spare_tileset.rel
                                          [ sprite_can_t_spare_tileset ]
C:/Users/f_bes/AppData/Local/Temp/_gbsbuild/obj/sprite_can_t_spare.rel
                                          [ sprite_can_t_spare ]
C:/Users/f_bes/AppData/Local/Temp/_gbsbuild/obj/sprite_cursor_tileset.rel
                                          [ sprite_cursor_tileset ]
C:/Users/f_bes/AppData/Local/Temp/_gbsbuild/obj/sprite_cursor.rel
                                          [ sprite_cursor ]
C:/Users/f_bes/AppData/Local/Temp/_gbsbuild/obj/sprite_dust_piles_tileset.rel
                                          [ sprite_dust_piles_tileset ]
C:/Users/f_bes/AppData/Local/Temp/_gbsbuild/obj/sprite_dust_piles.rel
                                          [ sprite_dust_piles ]
C:/Users/f_bes/AppData/Local/Temp/_gbsbuild/obj/sprite_image_tileset.rel
                                          [ sprite_image_tileset ]
C:/Users/f_bes/AppData/Local/Temp/_gbsbuild/obj/sprite_image.rel
                                          [ sprite_image ]
C:/Users/f_bes/AppData/Local/Temp/_gbsbuild/obj/sprite_kris_lightworld_tileset.rel
                                          [ sprite_kris_lightworld_tileset ]
C:/Users/f_bes/AppData/Local/Temp/_gbsbuild/obj/sprite_kris_lightworld.rel
                                          [ sprite_kris_lightworld ]
C:/Users/f_bes/AppData/Local/Temp/_gbsbuild/obj/sprite_krisbattle_tileset.rel
                                          [ sprite_krisbattle_tileset ]
C:/Users/f_bes/AppData/Local/Temp/_gbsbuild/obj/sprite_krisbattle.rel
                                          [ sprite_krisbattle ]
C:/Users/f_bes/AppData/Local/Temp/_gbsbuild/obj/sprite_krisbt2o_tileset.rel
                                          [ sprite_krisbt2o_tileset ]
C:/Users/f_bes/AppData/Local/Temp/_gbsbuild/obj/sprite_krisbt2o.rel
                                          [ sprite_krisbt2o ]
C:/Users/f_bes/AppData/Local/Temp/_gbsbuild/obj/sprite_lacer_shadow_tileset.rel
                                          [ sprite_lacer_shadow_tileset ]
C:/Users/f_bes/AppData/Local/Temp/_gbsbuild/obj/sprite_lacer_shadow.rel
                                          [ sprite_lacer_shadow ]
C:/Users/f_bes/AppData/Local/Temp/_gbsbuild/obj/sprite_lancer_tileset.rel
                                          [ sprite_lancer_tileset ]
C:/Users/f_bes/AppData/Local/Temp/_gbsbuild/obj/sprite_lancer.rel
                                          [ sprite_lancer ]
C:/Users/f_bes/AppData/Local/Temp/_gbsbuild/obj/sprite_lightshard_tileset.rel
                                          [ sprite_lightshard_tileset ]
C:/Users/f_bes/AppData/Local/Temp/_gbsbuild/obj/sprite_lightshard.rel
                                          [ sprite_lightshard ]
C:/Users/f_bes/AppData/Local/Temp/_gbsbuild/obj/sprite_new_piskel_1_png.rel
                                          [ sprite_new_piskel_1_png ]
C:/Users/f_bes/AppData/Local/Temp/_gbsbuild/obj/sprite_new_piskel_3__tileset.rel
                                          [ sprite_new_piskel_3__tileset ]
C:/Users/f_bes/AppData/Local/Temp/_gbsbuild/obj/sprite_new_piskel_3_.rel
                                          [ sprite_new_piskel_3_ ]
C:/Users/f_bes/AppData/Local/Temp/_gbsbuild/obj/sprite_new_piskel_tileset.rel
                                          [ sprite_new_piskel_tileset ]
C:/Users/f_bes/AppData/Local/Temp/_gbsbuild/obj/sprite_new_piskel.rel
                                          [ sprite_new_piskel ]
C:/Users/f_bes/AppData/Local/Temp/_gbsbuild/obj/sprite_noellee_tileset.rel
                                          [ sprite_noellee_tileset ]
C:/Users/f_bes/AppData/Local/Temp/_gbsbuild/obj/sprite_noellee.rel
                                          [ sprite_noellee ]
C:/Users/f_bes/AppData/Local/Temp/_gbsbuild/obj/sprite_piaf_tileset.rel
                                          [ sprite_piaf_tileset ]
C:/Users/f_bes/AppData/Local/Temp/_gbsbuild/obj/sprite_piaf.rel
                                          [ sprite_piaf ]
C:/Users/f_bes/AppData/Local/Temp/_gbsbuild/obj/sprite_ralsei_tileset.rel
                                          [ sprite_ralsei_tileset ]
C:/Users/f_bes/AppData/Local/Temp/_gbsbuild/obj/sprite_ralsei.rel
                                          [ sprite_ralsei ]
C:/Users/f_bes/AppData/Local/Temp/_gbsbuild/obj/sprite_ralseibt_tileset.rel
                                          [ sprite_ralseibt_tileset ]
C:/Users/f_bes/AppData/Local/Temp/_gbsbuild/obj/sprite_ralseibt.rel
                                          [ sprite_ralseibt ]
C:/Users/f_bes/AppData/Local/Temp/_gbsbuild/obj/sprite_ralsss_tileset.rel
                                          [ sprite_ralsss_tileset ]
C:/Users/f_bes/AppData/Local/Temp/_gbsbuild/obj/sprite_ralsss.rel
                                          [ sprite_ralsss ]
C:/Users/f_bes/AppData/Local/Temp/_gbsbuild/obj/sprite_room2_tilemap_attr.rel
                                          [ sprite_room2_tilemap_attr ]
C:/Users/f_bes/AppData/Local/Temp/_gbsbuild/obj/sprite_room2_tilemap.rel
                                          [ sprite_room2_tilemap ]
C:/Users/f_bes/AppData/Local/Temp/_gbsbuild/obj/sprite_room2_tileset.rel
                                          [ sprite_room2_tileset ]
C:/Users/f_bes/AppData/Local/Temp/_gbsbuild/obj/sprite_room2.rel
                                          [ sprite_room2 ]
C:/Users/f_bes/AppData/Local/Temp/_gbsbuild/obj/sprite_spare_tileset.rel
                                          [ sprite_spare_tileset ]
C:/Users/f_bes/AppData/Local/Temp/_gbsbuild/obj/sprite_spare.rel
                                          [ sprite_spare ]
C:/Users/f_bes/AppData/Local/Temp/_gbsbuild/obj/sprite_susie_tileset.rel
                                          [ sprite_susie_tileset ]
C:/Users/f_bes/AppData/Local/Temp/_gbsbuild/obj/sprite_susie.rel
                                          [ sprite_susie ]
C:/Users/f_bes/AppData/Local/Temp/_gbsbuild/obj/sprite_susiebt_tileset.rel
                                          [ sprite_susiebt_tileset ]
C:/Users/f_bes/AppData/Local/Temp/_gbsbuild/obj/sprite_susiebt.rel
                                          [ sprite_susiebt ]
C:/Users/f_bes/AppData/Local/Temp/_gbsbuild/obj/sprite_susiehs_copie_tileset.rel
                                          [ sprite_susiehs_copie_tileset ]
C:/Users/f_bes/AppData/Local/Temp/_gbsbuild/obj/sprite_susiehs_copie.rel
                                          [ sprite_susiehs_copie ]
C:/Users/f_bes/AppData/Local/Temp/_gbsbuild/obj/sprite_sword2o_tileset.rel
                                          [ sprite_sword2o_tileset ]
C:/Users/f_bes/AppData/Local/Temp/_gbsbuild/obj/sprite_sword2o.rel
                                          [ sprite_sword2o ]
C:/Users/f_bes/AppData/Local/Temp/_gbsbuild/obj/sprite_toriel_tileset.rel
                                          [ sprite_toriel_tileset ]
C:/Users/f_bes/AppData/Local/Temp/_gbsbuild/obj/sprite_toriel.rel
                                          [ sprite_toriel ]
C:/Users/f_bes/AppData/Local/Temp/_gbsbuild/obj/spritesheet_none.rel
                                          [ spritesheet_none ]
C:/Users/f_bes/AppData/Local/Temp/_gbsbuild/obj/tileset_default_frame.rel
                                          [ tileset_default_frame ]
C:/Users/f_bes/AppData/Local/Temp/_gbsbuild/obj/trigger_0_interact.rel
                                          [ trigger_0_interact ]
C:/Users/f_bes/AppData/Local/Temp/_gbsbuild/obj/trigger_1_interact.rel
                                          [ trigger_1_interact ]
C:/Users/f_bes/AppData/Local/Temp/_gbsbuild/obj/trigger_10_interact.rel
                                          [ trigger_10_interact ]
C:/Users/f_bes/AppData/Local/Temp/_gbsbuild/obj/trigger_11_interact.rel
                                          [ trigger_11_interact ]
C:/Users/f_bes/AppData/Local/Temp/_gbsbuild/obj/trigger_12_interact.rel
                                          [ trigger_12_interact ]
C:/Users/f_bes/AppData/Local/Temp/_gbsbuild/obj/trigger_13_interact.rel
                                          [ trigger_13_interact ]
C:/Users/f_bes/AppData/Local/Temp/_gbsbuild/obj/trigger_14_interact.rel
                                          [ trigger_14_interact ]
C:/Users/f_bes/AppData/Local/Temp/_gbsbuild/obj/trigger_15_interact.rel
                                          [ trigger_15_interact ]
C:/Users/f_bes/AppData/Local/Temp/_gbsbuild/obj/trigger_16_interact.rel
                                          [ trigger_16_interact ]
C:/Users/f_bes/AppData/Local/Temp/_gbsbuild/obj/trigger_17_interact.rel
                                          [ trigger_17_interact ]
C:/Users/f_bes/AppData/Local/Temp/_gbsbuild/obj/trigger_18_interact.rel
                                          [ trigger_18_interact ]
C:/Users/f_bes/AppData/Local/Temp/_gbsbuild/obj/trigger_19_interact.rel
                                          [ trigger_19_interact ]
C:/Users/f_bes/AppData/Local/Temp/_gbsbuild/obj/trigger_2_interact.rel
                                          [ trigger_2_interact ]
C:/Users/f_bes/AppData/Local/Temp/_gbsbuild/obj/trigger_20_interact.rel
                                          [ trigger_20_interact ]
C:/Users/f_bes/AppData/Local/Temp/_gbsbuild/obj/trigger_21_interact.rel
                                          [ trigger_21_interact ]
C:/Users/f_bes/AppData/Local/Temp/_gbsbuild/obj/trigger_22_interact.rel
                                          [ trigger_22_interact ]
C:/Users/f_bes/AppData/Local/Temp/_gbsbuild/obj/trigger_23_interact.rel
                                          [ trigger_23_interact ]
C:/Users/f_bes/AppData/Local/Temp/_gbsbuild/obj/trigger_24_interact.rel
                                          [ trigger_24_interact ]
C:/Users/f_bes/AppData/Local/Temp/_gbsbuild/obj/trigger_25_interact.rel
                                          [ trigger_25_interact ]
C:/Users/f_bes/AppData/Local/Temp/_gbsbuild/obj/trigger_26_interact.rel
                                          [ trigger_26_interact ]
C:/Users/f_bes/AppData/Local/Temp/_gbsbuild/obj/trigger_27_interact.rel
                                          [ trigger_27_interact ]
C:/Users/f_bes/AppData/Local/Temp/_gbsbuild/obj/trigger_28_interact.rel
                                          [ trigger_28_interact ]
C:/Users/f_bes/AppData/Local/Temp/_gbsbuild/obj/trigger_29_interact.rel
                                          [ trigger_29_interact ]
C:/Users/f_bes/AppData/Local/Temp/_gbsbuild/obj/trigger_3_interact.rel
                                          [ trigger_3_interact ]
C:/Users/f_bes/AppData/Local/Temp/_gbsbuild/obj/trigger_30_interact.rel
                                          [ trigger_30_interact ]
C:/Users/f_bes/AppData/Local/Temp/_gbsbuild/obj/trigger_31_interact.rel
                                          [ trigger_31_interact ]
C:/Users/f_bes/AppData/Local/Temp/_gbsbuild/obj/trigger_32_interact.rel
                                          [ trigger_32_interact ]
C:/Users/f_bes/AppData/Local/Temp/_gbsbuild/obj/trigger_33_interact.rel
                                          [ trigger_33_interact ]
C:/Users/f_bes/AppData/Local/Temp/_gbsbuild/obj/trigger_34_interact.rel
                                          [ trigger_34_interact ]
C:/Users/f_bes/AppData/Local/Temp/_gbsbuild/obj/trigger_35_interact.rel
                                          [ trigger_35_interact ]
C:/Users/f_bes/AppData/Local/Temp/_gbsbuild/obj/trigger_36_interact.rel
                                          [ trigger_36_interact ]
C:/Users/f_bes/AppData/Local/Temp/_gbsbuild/obj/trigger_37_interact.rel
                                          [ trigger_37_interact ]
C:/Users/f_bes/AppData/Local/Temp/_gbsbuild/obj/trigger_38_interact.rel
                                          [ trigger_38_interact ]
C:/Users/f_bes/AppData/Local/Temp/_gbsbuild/obj/trigger_39_interact.rel
                                          [ trigger_39_interact ]
C:/Users/f_bes/AppData/Local/Temp/_gbsbuild/obj/trigger_4_interact.rel
                                          [ trigger_4_interact ]
C:/Users/f_bes/AppData/Local/Temp/_gbsbuild/obj/trigger_40_interact.rel
                                          [ trigger_40_interact ]
C:/Users/f_bes/AppData/Local/Temp/_gbsbuild/obj/trigger_41_interact.rel
                                          [ trigger_41_interact ]
C:/Users/f_bes/AppData/Local/Temp/_gbsbuild/obj/trigger_42_interact.rel
                                          [ trigger_42_interact ]
C:/Users/f_bes/AppData/Local/Temp/_gbsbuild/obj/trigger_43_interact.rel
                                          [ trigger_43_interact ]
C:/Users/f_bes/AppData/Local/Temp/_gbsbuild/obj/trigger_5_interact.rel
                                          [ trigger_5_interact ]
C:/Users/f_bes/AppData/Local/Temp/_gbsbuild/obj/trigger_6_interact.rel
                                          [ trigger_6_interact ]
C:/Users/f_bes/AppData/Local/Temp/_gbsbuild/obj/trigger_7_interact.rel
                                          [ trigger_7_interact ]
C:/Users/f_bes/AppData/Local/Temp/_gbsbuild/obj/trigger_8_interact.rel
                                          [ trigger_8_interact ]
C:/Users/f_bes/AppData/Local/Temp/_gbsbuild/obj/trigger_9_interact.rel
                                          [ trigger_9_interact ]
C:/Users/f_bes/AppData/Local/Temp/_gbsbuild/obj/main.rel
                                          [ main ]
C:/Users/f_bes/AppData/Local/Temp/_gbsbuild/obj/logo.rel
                                          [ logo ]
C:/Users/f_bes/AppData/Local/Temp/_gbsbuild/obj/pointnclick.rel
                                          [ pointnclick ]
C:/Users/f_bes/AppData/Local/Temp/_gbsbuild/obj/states_ptrs.rel
                                          [  ]
C:/Users/f_bes/AppData/Local/Temp/_gbsbuild/obj/topdown.rel
                                          [ topdown ]


Libraries Linked                          [ object file ]

C:\Users\f_bes\AppData\Local\Temp/_gbstools/gbdk/lib/gb/gb.lib
                                          [ fill_rect_wi.o ]
C:\Users\f_bes\AppData\Local\Temp/_gbstools/gbdk/lib/sm83/sm83.lib
                                          [ rand.o ]
lib/hUGEDriver.lib                        [ hUGEDriver.o ]
C:\Users\f_bes\AppData\Local\Temp/_gbstools/gbdk/lib/gb/gb.lib
                                          [ sfr.o ]
C:\Users\f_bes\AppData\Local\Temp/_gbstools/gbdk/lib/gb/gb.lib
                                          [ get_data.o ]
C:\Users\f_bes\AppData\Local\Temp/_gbstools/gbdk/lib/gb/gb.lib
                                          [ get_tile.o ]
C:\Users\f_bes\AppData\Local\Temp/_gbstools/gbdk/lib/gb/gb.lib
                                          [ cgb_palettes.o ]
C:\Users\f_bes\AppData\Local\Temp/_gbstools/gbdk/lib/gb/gb.lib
                                          [ metasprites_hide_spr.o ]
C:\Users\f_bes\AppData\Local\Temp/_gbstools/gbdk/lib/sm83/sm83.lib
                                          [ mul.o ]
C:\Users\f_bes\AppData\Local\Temp/_gbstools/gbdk/lib/gb/gb.lib
                                          [ set_tile.o ]
C:\Users\f_bes\AppData\Local\Temp/_gbstools/gbdk/lib/sm83/sm83.lib
                                          [ abs.o ]
C:\Users\f_bes\AppData\Local\Temp/_gbstools/gbdk/lib/gb/gb.lib
                                          [ set_wi_t.o ]
C:\Users\f_bes\AppData\Local\Temp/_gbstools/gbdk/lib/gb/gb.lib
                                          [ set_data.o ]
C:\Users\f_bes\AppData\Local\Temp/_gbstools/gbdk/lib/sm83/sm83.lib
                                          [ reverse.o ]
C:\Users\f_bes\AppData\Local\Temp/_gbstools/gbdk/lib/gb/gb.lib
                                          [ far_ptr.o ]
C:\Users\f_bes\AppData\Local\Temp/_gbstools/gbdk/lib/gb/gb.lib
                                          [ sgb.o ]
C:\Users\f_bes\AppData\Local\Temp/_gbstools/gbdk/lib/gb/gb.lib
                                          [ lcd.o ]
C:\Users\f_bes\AppData\Local\Temp/_gbstools/gbdk/lib/gb/gb.lib
                                          [ fill_rect.o ]
C:\Users\f_bes\AppData\Local\Temp/_gbstools/gbdk/lib/gb/gb.lib
                                          [ cpy_data.o ]
C:\Users\f_bes\AppData\Local\Temp/_gbstools/gbdk/lib/gb/gb.lib
                                          [ fill_rect_bk.o ]
C:\Users\f_bes\AppData\Local\Temp/_gbstools/gbdk/lib/gb/gb.lib
                                          [ pad.o ]
C:\Users\f_bes\AppData\Local\Temp/_gbstools/gbdk/lib/gb/gb.lib
                                          [ metasprites.o ]
C:\Users\f_bes\AppData\Local\Temp/_gbstools/gbdk/lib/sm83/sm83.lib
                                          [ __sdcc_call_hl.o ]
C:\Users\f_bes\AppData\Local\Temp/_gbstools/gbdk/lib/sm83/sm83.lib
                                          [ memcpy.o ]
C:\Users\f_bes\AppData\Local\Temp/_gbstools/gbdk/lib/sm83/sm83.lib
                                          [ _memset.o ]
C:\Users\f_bes\AppData\Local\Temp/_gbstools/gbdk/lib/gb/gb.lib
                                          [ set_xy_t.o ]
C:\Users\f_bes\AppData\Local\Temp/_gbstools/gbdk/lib/gb/gb.lib
                                          [ ___sdcc_bcall_ehl.o ]
C:\Users\f_bes\AppData\Local\Temp/_gbstools/gbdk/lib/gb/gb.lib
                                          [ cgb.o ]
C:\Users\f_bes\AppData\Local\Temp/_gbstools/gbdk/lib/sm83/sm83.lib
                                          [ div.o ]
C:\Users\f_bes\AppData\Local\Temp/_gbstools/gbdk/lib/gb/gb.lib
                                          [ set_bk_t.o ]

ASxxxx Linker V03.00/V05.40 + sdld,  page 171.

User Base Address Definitions

_DATA=0xC0A0
_CODE=0x0200
ASxxxx Linker V03.00/V05.40 + sdld,  page 172.

User Global Definitions

.STACK=0xDF00
_shadow_OAM=0xC000
.refresh_OAM=0xFF80
__start_save=60

